	.text
	.file	"256_256_64_16.cpp"
                                        # Start of file scope inline assembly
	.globl	_ZSt21ios_base_library_initv

                                        # End of file scope inline assembly
	.section	.text._ZNK8pybind1117error_already_set4whatEv,"axG",@progbits,_ZNK8pybind1117error_already_set4whatEv,comdat
	.hidden	_ZNK8pybind1117error_already_set4whatEv # -- Begin function _ZNK8pybind1117error_already_set4whatEv
	.weak	_ZNK8pybind1117error_already_set4whatEv
	.p2align	4, 0x90
	.type	_ZNK8pybind1117error_already_set4whatEv,@function
_ZNK8pybind1117error_already_set4whatEv: # @_ZNK8pybind1117error_already_set4whatEv
.Lfunc_begin0:
	.cfi_startproc
	.cfi_personality 155, DW.ref.__gxx_personality_v0
	.cfi_lsda 27, .Lexception0
# %bb.0:
	pushq	%rbx
	.cfi_def_cfa_offset 16
	subq	$48, %rsp
	.cfi_def_cfa_offset 64
	.cfi_offset %rbx, -16
	movq	%rdi, %rbx
.Ltmp0:
	leaq	32(%rsp), %rdi
	callq	_ZN8pybind1118gil_scoped_acquireC2Ev
.Ltmp1:
# %bb.1:
	leaq	16(%rsp), %rsi
	leaq	24(%rsp), %rdx
.Ltmp2:
	leaq	8(%rsp), %rdi
	callq	PyErr_Fetch@PLT
.Ltmp3:
# %bb.2:                                # %_ZN8pybind1111error_scopeC2Ev.exit
	movq	8(%rbx), %rdi
.Ltmp4:
	callq	_ZNK8pybind116detail25error_fetch_and_normalize12error_stringB5cxx11Ev
.Ltmp5:
# %bb.3:
	movq	(%rax), %rbx
	movq	8(%rsp), %rdi
	movq	16(%rsp), %rsi
	movq	24(%rsp), %rdx
.Ltmp7:
	callq	PyErr_Restore@PLT
.Ltmp8:
# %bb.4:                                # %_ZN8pybind1111error_scopeD2Ev.exit
	leaq	32(%rsp), %rdi
	callq	_ZN8pybind1118gil_scoped_acquireD2Ev
	movq	%rbx, %rax
	addq	$48, %rsp
	.cfi_def_cfa_offset 16
	popq	%rbx
	.cfi_def_cfa_offset 8
	retq
.LBB0_6:
	.cfi_def_cfa_offset 64
.Ltmp9:
	movq	%rax, %rdi
	callq	__clang_call_terminate
.LBB0_5:
.Ltmp6:
	movq	%rax, %rdi
	callq	__clang_call_terminate
.Lfunc_end0:
	.size	_ZNK8pybind1117error_already_set4whatEv, .Lfunc_end0-_ZNK8pybind1117error_already_set4whatEv
	.cfi_endproc
	.section	.gcc_except_table._ZNK8pybind1117error_already_set4whatEv,"aG",@progbits,_ZNK8pybind1117error_already_set4whatEv,comdat
	.p2align	2, 0x0
GCC_except_table0:
.Lexception0:
	.byte	255                             # @LPStart Encoding = omit
	.byte	155                             # @TType Encoding = indirect pcrel sdata4
	.uleb128 .Lttbase0-.Lttbaseref0
.Lttbaseref0:
	.byte	1                               # Call site Encoding = uleb128
	.uleb128 .Lcst_end0-.Lcst_begin0
.Lcst_begin0:
	.uleb128 .Ltmp0-.Lfunc_begin0           # >> Call Site 1 <<
	.uleb128 .Ltmp5-.Ltmp0                  #   Call between .Ltmp0 and .Ltmp5
	.uleb128 .Ltmp6-.Lfunc_begin0           #     jumps to .Ltmp6
	.byte	1                               #   On action: 1
	.uleb128 .Ltmp7-.Lfunc_begin0           # >> Call Site 2 <<
	.uleb128 .Ltmp8-.Ltmp7                  #   Call between .Ltmp7 and .Ltmp8
	.uleb128 .Ltmp9-.Lfunc_begin0           #     jumps to .Ltmp9
	.byte	1                               #   On action: 1
.Lcst_end0:
	.byte	1                               # >> Action Record 1 <<
                                        #   Catch TypeInfo 1
	.byte	0                               #   No further actions
	.p2align	2, 0x0
                                        # >> Catch TypeInfos <<
	.long	0                               # TypeInfo 1
.Lttbase0:
	.p2align	2, 0x0
                                        # -- End function
	.section	.text._ZN8pybind1118gil_scoped_acquireC2Ev,"axG",@progbits,_ZN8pybind1118gil_scoped_acquireC2Ev,comdat
	.hidden	_ZN8pybind1118gil_scoped_acquireC2Ev # -- Begin function _ZN8pybind1118gil_scoped_acquireC2Ev
	.weak	_ZN8pybind1118gil_scoped_acquireC2Ev
	.p2align	4, 0x90
	.type	_ZN8pybind1118gil_scoped_acquireC2Ev,@function
_ZN8pybind1118gil_scoped_acquireC2Ev:   # @_ZN8pybind1118gil_scoped_acquireC2Ev
	.cfi_startproc
# %bb.0:
	pushq	%r15
	.cfi_def_cfa_offset 16
	pushq	%r14
	.cfi_def_cfa_offset 24
	pushq	%rbx
	.cfi_def_cfa_offset 32
	.cfi_offset %rbx, -32
	.cfi_offset %r14, -24
	.cfi_offset %r15, -16
	movq	%rdi, %rbx
	movq	$0, (%rdi)
	movw	$257, 8(%rdi)                   # imm = 0x101
	callq	_ZN8pybind116detail13get_internalsEv
	movq	%rax, %r15
	leaq	432(%rax), %r14
	movq	%r14, %rdi
	callq	PyThread_tss_get@PLT
	movq	%rax, (%rbx)
	testq	%rax, %rax
	jne	.LBB1_4
# %bb.1:
	callq	PyGILState_GetThisThreadState@PLT
	movq	%rax, (%rbx)
	testq	%rax, %rax
	je	.LBB1_2
.LBB1_4:                                # %.thread
	callq	_PyThreadState_UncheckedGet@PLT
	movq	(%rbx), %rdi
	cmpq	%rdi, %rax
	setne	8(%rbx)
	je	.LBB1_7
.LBB1_6:                                # %._crit_edge
	callq	PyEval_AcquireThread@PLT
	movq	(%rbx), %rdi
.LBB1_7:
	incl	120(%rdi)
	popq	%rbx
	.cfi_def_cfa_offset 24
	popq	%r14
	.cfi_def_cfa_offset 16
	popq	%r15
	.cfi_def_cfa_offset 8
	retq
.LBB1_2:
	.cfi_def_cfa_offset 32
	movq	448(%r15), %rdi
	callq	PyThreadState_New@PLT
	movq	%rax, (%rbx)
	testq	%rax, %rax
	je	.LBB1_3
# %bb.5:
	movl	$0, 120(%rax)
	movq	%r14, %rdi
	movq	%rax, %rsi
	callq	PyThread_tss_set@PLT
	movq	(%rbx), %rdi
	testb	$1, 8(%rbx)
	jne	.LBB1_6
	jmp	.LBB1_7
.LBB1_3:
	leaq	.L.str.3(%rip), %rdi
	callq	_ZN8pybind1113pybind11_failEPKc
.Lfunc_end1:
	.size	_ZN8pybind1118gil_scoped_acquireC2Ev, .Lfunc_end1-_ZN8pybind1118gil_scoped_acquireC2Ev
	.cfi_endproc
                                        # -- End function
	.section	.text.__clang_call_terminate,"axG",@progbits,__clang_call_terminate,comdat
	.hidden	__clang_call_terminate          # -- Begin function __clang_call_terminate
	.weak	__clang_call_terminate
	.p2align	4, 0x90
	.type	__clang_call_terminate,@function
__clang_call_terminate:                 # @__clang_call_terminate
	.cfi_startproc
# %bb.0:
	pushq	%rax
	.cfi_def_cfa_offset 16
	callq	__cxa_begin_catch@PLT
	callq	_ZSt9terminatev@PLT
.Lfunc_end2:
	.size	__clang_call_terminate, .Lfunc_end2-__clang_call_terminate
	.cfi_endproc
                                        # -- End function
	.section	.text._ZNK8pybind116detail25error_fetch_and_normalize12error_stringB5cxx11Ev,"axG",@progbits,_ZNK8pybind116detail25error_fetch_and_normalize12error_stringB5cxx11Ev,comdat
	.hidden	_ZNK8pybind116detail25error_fetch_and_normalize12error_stringB5cxx11Ev # -- Begin function _ZNK8pybind116detail25error_fetch_and_normalize12error_stringB5cxx11Ev
	.weak	_ZNK8pybind116detail25error_fetch_and_normalize12error_stringB5cxx11Ev
	.p2align	4, 0x90
	.type	_ZNK8pybind116detail25error_fetch_and_normalize12error_stringB5cxx11Ev,@function
_ZNK8pybind116detail25error_fetch_and_normalize12error_stringB5cxx11Ev: # @_ZNK8pybind116detail25error_fetch_and_normalize12error_stringB5cxx11Ev
.Lfunc_begin1:
	.cfi_startproc
	.cfi_personality 155, DW.ref.__gxx_personality_v0
	.cfi_lsda 27, .Lexception1
# %bb.0:
	pushq	%rbp
	.cfi_def_cfa_offset 16
	pushq	%r15
	.cfi_def_cfa_offset 24
	pushq	%r14
	.cfi_def_cfa_offset 32
	pushq	%r13
	.cfi_def_cfa_offset 40
	pushq	%r12
	.cfi_def_cfa_offset 48
	pushq	%rbx
	.cfi_def_cfa_offset 56
	subq	$72, %rsp
	.cfi_def_cfa_offset 128
	.cfi_offset %rbx, -56
	.cfi_offset %r12, -48
	.cfi_offset %r13, -40
	.cfi_offset %r14, -32
	.cfi_offset %r15, -24
	.cfi_offset %rbp, -16
	movq	%rdi, %rbx
	cmpb	$0, 56(%rdi)
	jne	.LBB3_39
# %bb.1:
	leaq	8(%rsp), %rdi
	movq	%rbx, %rsi
	callq	_ZNK8pybind116detail25error_fetch_and_normalize22format_value_and_traceB5cxx11Ev
	movq	16(%rsp), %r12
	movq	%r12, %rax
	shrq	%rax
	movabsq	$4611686018427387903, %rcx      # imm = 0x3FFFFFFFFFFFFFFF
	cmpq	%rcx, %rax
	je	.LBB3_44
# %bb.2:                                # %_ZNKSt7__cxx1112basic_stringIcSt11char_traitsIcESaIcEE15_M_check_lengthEmmPKc.exit.i
	leaq	2(%r12), %r14
	movq	8(%rsp), %r15
	leaq	24(%rsp), %rax
	cmpq	%rax, %r15
	je	.LBB3_13
# %bb.3:                                # %_ZNKSt7__cxx1112basic_stringIcSt11char_traitsIcESaIcEE8capacityEv.exit.i.thread
	movq	24(%rsp), %r13
	movq	%r13, %rax
	cmpq	%r13, %r14
	jbe	.LBB3_16
# %bb.4:                                # %_ZNKSt7__cxx1112basic_stringIcSt11char_traitsIcESaIcEE8capacityEv.exit.i19
	cmpq	$-3, %r12
	jle	.LBB3_15
.LBB3_5:
	addq	%rax, %rax
	movabsq	$9223372036854775807, %rbp      # imm = 0x7FFFFFFFFFFFFFFF
	cmpq	%rbp, %rax
	cmovbq	%rax, %rbp
	cmpq	%rax, %r14
	cmovaeq	%r14, %rbp
	movq	%rbp, %rdi
	incq	%rdi
	js	.LBB3_42
# %bb.6:                                # %_ZNSt7__cxx1112basic_stringIcSt11char_traitsIcESaIcEE9_M_createERmm.exit.i
.Ltmp12:
	callq	_Znwm@PLT
.Ltmp13:
# %bb.7:                                # %.noexc24
	movq	%rax, %rcx
	movw	$8250, (%rax)                   # imm = 0x203A
	testq	%r12, %r12
	je	.LBB3_10
# %bb.8:
	movq	%rcx, %rdi
	addq	$2, %rdi
	cmpq	$1, %r12
	jne	.LBB3_40
# %bb.9:
	movzbl	(%r15), %eax
	movb	%al, (%rdi)
.LBB3_10:                               # %_ZNSt7__cxx1112basic_stringIcSt11char_traitsIcESaIcEE7_S_copyEPcPKcm.exit27.i
	leaq	24(%rsp), %rax
	cmpq	%rax, %r15
	je	.LBB3_12
.LBB3_11:                               # %_ZNKSt7__cxx1112basic_stringIcSt11char_traitsIcESaIcEE11_M_is_localEv.exit.i.i20
	incq	%r13
	movq	%r15, %rdi
	movq	%r13, %rsi
	movq	%rcx, %r15
	callq	_ZdlPvm@PLT
	movq	%r15, %rcx
.LBB3_12:                               # %.noexc18
	movq	%rcx, 8(%rsp)
	movq	%rbp, 24(%rsp)
	jmp	.LBB3_22
.LBB3_13:                               # %_ZNKSt7__cxx1112basic_stringIcSt11char_traitsIcESaIcEE8capacityEv.exit.i
	cmpq	$15, %r14
	jbe	.LBB3_16
# %bb.14:
	movl	$15, %eax
	movq	24(%rsp), %r13
	cmpq	$-3, %r12
	jg	.LBB3_5
.LBB3_15:
	leaq	.L.str.9(%rip), %rdi
	jmp	.LBB3_45
.LBB3_16:
	leaq	.L.str.6(%rip), %rax
	cmpq	%rax, %r15
	seta	%cl
	leaq	(%r15,%r12), %rdx
	cmpq	%rax, %rdx
	setb	%al
	orb	%cl, %al
	cmpb	$1, %al
	jne	.LBB3_41
# %bb.17:
	testq	%r12, %r12
	je	.LBB3_21
# %bb.18:
	cmpq	$1, %r12
	jne	.LBB3_20
# %bb.19:
	movzbl	(%r15), %eax
	movb	%al, 2(%r15)
	jmp	.LBB3_21
.LBB3_20:
	leaq	2(%r15), %rdi
	movq	%r15, %rsi
	movq	%r12, %rdx
	callq	memmove@PLT
.LBB3_21:                               # %_ZNSt7__cxx1112basic_stringIcSt11char_traitsIcESaIcEE7_S_moveEPcPKcm.exit.i
	movw	$8250, (%r15)                   # imm = 0x203A
.LBB3_22:                               # %.noexc
	movabsq	$9223372036854775806, %r13      # imm = 0x7FFFFFFFFFFFFFFE
	movq	%r14, 16(%rsp)
	movq	8(%rsp), %rax
	movb	$0, (%rax,%r14)
	leaq	56(%rsp), %r15
	movq	%r15, 40(%rsp)
	movq	8(%rsp), %rcx
	leaq	24(%rsp), %r14
	cmpq	%r14, %rcx
	je	.LBB3_24
# %bb.23:                               # %_ZNKSt7__cxx1112basic_stringIcSt11char_traitsIcESaIcEE11_M_is_localEv.exit.i.i
	movq	%rcx, 40(%rsp)
	movq	16(%rsp), %r12
	movq	24(%rsp), %rax
	movq	%rax, 56(%rsp)
	jmp	.LBB3_25
.LBB3_24:
	movq	16(%rsp), %r12
	leaq	1(%r12), %rdx
	movq	%r15, %rdi
	movq	%r14, %rsi
	callq	memcpy@PLT
	movq	%r15, %rcx
.LBB3_25:
	movq	%r12, 48(%rsp)
	movq	%r14, 8(%rsp)
	movq	$0, 16(%rsp)
	movb	$0, 24(%rsp)
	movq	32(%rbx), %rsi
	subq	%rsi, %r13
	incq	%r13
	cmpq	%r12, %r13
	jb	.LBB3_47
# %bb.26:                               # %_ZNKSt7__cxx1112basic_stringIcSt11char_traitsIcESaIcEE15_M_check_lengthEmmPKc.exit.i.i.i
	leaq	(%rsi,%r12), %r14
	movq	24(%rbx), %rdi
	leaq	40(%rbx), %rdx
	movl	$15, %eax
	cmpq	%rdx, %rdi
	je	.LBB3_28
# %bb.27:                               # %_ZNKSt7__cxx1112basic_stringIcSt11char_traitsIcESaIcEE15_M_check_lengthEmmPKc.exit.i.i.i
	movq	40(%rbx), %rax
.LBB3_28:                               # %_ZNKSt7__cxx1112basic_stringIcSt11char_traitsIcESaIcEE15_M_check_lengthEmmPKc.exit.i.i.i
	cmpq	%rax, %r14
	jbe	.LBB3_30
# %bb.29:
.Ltmp14:
	leaq	24(%rbx), %rdi
	xorl	%edx, %edx
	movq	%r12, %r8
	callq	_ZNSt7__cxx1112basic_stringIcSt11char_traitsIcESaIcEE9_M_mutateEmmPKcm@PLT
.Ltmp15:
	jmp	.LBB3_34
.LBB3_30:
	testq	%r12, %r12
	je	.LBB3_34
# %bb.31:
	addq	%rsi, %rdi
	cmpq	$1, %r12
	jne	.LBB3_33
# %bb.32:
	movzbl	(%rcx), %eax
	movb	%al, (%rdi)
	jmp	.LBB3_34
.LBB3_33:
	movq	%rcx, %rsi
	movq	%r12, %rdx
	callq	memcpy@PLT
.LBB3_34:
	movq	%r14, 32(%rbx)
	movq	24(%rbx), %rax
	movb	$0, (%rax,%r14)
	movq	40(%rsp), %rdi
	cmpq	%r15, %rdi
	je	.LBB3_36
# %bb.35:                               # %_ZNKSt7__cxx1112basic_stringIcSt11char_traitsIcESaIcEE11_M_is_localEv.exit.i.i6
	movq	56(%rsp), %rsi
	incq	%rsi
	callq	_ZdlPvm@PLT
.LBB3_36:                               # %_ZNSt7__cxx1112basic_stringIcSt11char_traitsIcESaIcEED2Ev.exit
	movq	8(%rsp), %rdi
	leaq	24(%rsp), %rax
	cmpq	%rax, %rdi
	je	.LBB3_38
# %bb.37:                               # %_ZNKSt7__cxx1112basic_stringIcSt11char_traitsIcESaIcEE11_M_is_localEv.exit.i.i7
	movq	24(%rsp), %rsi
	incq	%rsi
	callq	_ZdlPvm@PLT
.LBB3_38:                               # %_ZNSt7__cxx1112basic_stringIcSt11char_traitsIcESaIcEED2Ev.exit9
	movb	$1, 56(%rbx)
.LBB3_39:
	addq	$24, %rbx
	movq	%rbx, %rax
	addq	$72, %rsp
	.cfi_def_cfa_offset 56
	popq	%rbx
	.cfi_def_cfa_offset 48
	popq	%r12
	.cfi_def_cfa_offset 40
	popq	%r13
	.cfi_def_cfa_offset 32
	popq	%r14
	.cfi_def_cfa_offset 24
	popq	%r15
	.cfi_def_cfa_offset 16
	popq	%rbp
	.cfi_def_cfa_offset 8
	retq
.LBB3_40:
	.cfi_def_cfa_offset 128
	movq	%r15, %rsi
	movq	%r12, %rdx
	movq	%rcx, %r12
	callq	memcpy@PLT
	movq	%r12, %rcx
	leaq	24(%rsp), %rax
	cmpq	%rax, %r15
	jne	.LBB3_11
	jmp	.LBB3_12
.LBB3_41:
.Ltmp10:
	leaq	.L.str.6(%rip), %rcx
	leaq	8(%rsp), %rdi
	movl	$2, %r8d
	movq	%r15, %rsi
	xorl	%edx, %edx
	movq	%r12, %r9
	callq	_ZNSt7__cxx1112basic_stringIcSt11char_traitsIcESaIcEE15_M_replace_coldEPcmPKcmm@PLT
.Ltmp11:
	jmp	.LBB3_22
.LBB3_42:
.Ltmp19:
	callq	_ZSt17__throw_bad_allocv@PLT
.Ltmp20:
# %bb.43:                               # %.noexc23
.LBB3_44:
	leaq	.L.str.8(%rip), %rdi
.LBB3_45:                               # %.invoke
.Ltmp21:
	callq	_ZSt20__throw_length_errorPKc@PLT
.Ltmp22:
# %bb.46:                               # %.cont
.LBB3_47:
.Ltmp16:
	leaq	.L.str.40(%rip), %rdi
	callq	_ZSt20__throw_length_errorPKc@PLT
.Ltmp17:
# %bb.48:                               # %.noexc4
.LBB3_49:
.Ltmp18:
	movq	%rax, %rbx
	movq	40(%rsp), %rdi
	cmpq	%r15, %rdi
	jne	.LBB3_52
# %bb.50:                               # %_ZNSt7__cxx1112basic_stringIcSt11char_traitsIcESaIcEED2Ev.exit12
	movq	8(%rsp), %rdi
	leaq	24(%rsp), %rax
	cmpq	%rax, %rdi
	jne	.LBB3_54
.LBB3_51:                               # %_ZNSt7__cxx1112basic_stringIcSt11char_traitsIcESaIcEED2Ev.exit15
	movq	%rbx, %rdi
	callq	_Unwind_Resume@PLT
.LBB3_52:                               # %_ZNKSt7__cxx1112basic_stringIcSt11char_traitsIcESaIcEE11_M_is_localEv.exit.i.i10
	movq	56(%rsp), %rsi
	incq	%rsi
	callq	_ZdlPvm@PLT
	movq	8(%rsp), %rdi
	leaq	24(%rsp), %rax
	cmpq	%rax, %rdi
	je	.LBB3_51
	jmp	.LBB3_54
.LBB3_53:
.Ltmp23:
	movq	%rax, %rbx
	movq	8(%rsp), %rdi
	leaq	24(%rsp), %rax
	cmpq	%rax, %rdi
	je	.LBB3_51
.LBB3_54:                               # %_ZNKSt7__cxx1112basic_stringIcSt11char_traitsIcESaIcEE11_M_is_localEv.exit.i.i13
	movq	24(%rsp), %rsi
	incq	%rsi
	callq	_ZdlPvm@PLT
	movq	%rbx, %rdi
	callq	_Unwind_Resume@PLT
.Lfunc_end3:
	.size	_ZNK8pybind116detail25error_fetch_and_normalize12error_stringB5cxx11Ev, .Lfunc_end3-_ZNK8pybind116detail25error_fetch_and_normalize12error_stringB5cxx11Ev
	.cfi_endproc
	.section	.gcc_except_table._ZNK8pybind116detail25error_fetch_and_normalize12error_stringB5cxx11Ev,"aG",@progbits,_ZNK8pybind116detail25error_fetch_and_normalize12error_stringB5cxx11Ev,comdat
	.p2align	2, 0x0
GCC_except_table3:
.Lexception1:
	.byte	255                             # @LPStart Encoding = omit
	.byte	255                             # @TType Encoding = omit
	.byte	1                               # Call site Encoding = uleb128
	.uleb128 .Lcst_end1-.Lcst_begin1
.Lcst_begin1:
	.uleb128 .Lfunc_begin1-.Lfunc_begin1    # >> Call Site 1 <<
	.uleb128 .Ltmp12-.Lfunc_begin1          #   Call between .Lfunc_begin1 and .Ltmp12
	.byte	0                               #     has no landing pad
	.byte	0                               #   On action: cleanup
	.uleb128 .Ltmp12-.Lfunc_begin1          # >> Call Site 2 <<
	.uleb128 .Ltmp13-.Ltmp12                #   Call between .Ltmp12 and .Ltmp13
	.uleb128 .Ltmp23-.Lfunc_begin1          #     jumps to .Ltmp23
	.byte	0                               #   On action: cleanup
	.uleb128 .Ltmp13-.Lfunc_begin1          # >> Call Site 3 <<
	.uleb128 .Ltmp14-.Ltmp13                #   Call between .Ltmp13 and .Ltmp14
	.byte	0                               #     has no landing pad
	.byte	0                               #   On action: cleanup
	.uleb128 .Ltmp14-.Lfunc_begin1          # >> Call Site 4 <<
	.uleb128 .Ltmp15-.Ltmp14                #   Call between .Ltmp14 and .Ltmp15
	.uleb128 .Ltmp18-.Lfunc_begin1          #     jumps to .Ltmp18
	.byte	0                               #   On action: cleanup
	.uleb128 .Ltmp15-.Lfunc_begin1          # >> Call Site 5 <<
	.uleb128 .Ltmp10-.Ltmp15                #   Call between .Ltmp15 and .Ltmp10
	.byte	0                               #     has no landing pad
	.byte	0                               #   On action: cleanup
	.uleb128 .Ltmp10-.Lfunc_begin1          # >> Call Site 6 <<
	.uleb128 .Ltmp22-.Ltmp10                #   Call between .Ltmp10 and .Ltmp22
	.uleb128 .Ltmp23-.Lfunc_begin1          #     jumps to .Ltmp23
	.byte	0                               #   On action: cleanup
	.uleb128 .Ltmp16-.Lfunc_begin1          # >> Call Site 7 <<
	.uleb128 .Ltmp17-.Ltmp16                #   Call between .Ltmp16 and .Ltmp17
	.uleb128 .Ltmp18-.Lfunc_begin1          #     jumps to .Ltmp18
	.byte	0                               #   On action: cleanup
	.uleb128 .Ltmp17-.Lfunc_begin1          # >> Call Site 8 <<
	.uleb128 .Lfunc_end3-.Ltmp17            #   Call between .Ltmp17 and .Lfunc_end3
	.byte	0                               #     has no landing pad
	.byte	0                               #   On action: cleanup
.Lcst_end1:
	.p2align	2, 0x0
                                        # -- End function
	.section	.text._ZN8pybind1111error_scopeD2Ev,"axG",@progbits,_ZN8pybind1111error_scopeD2Ev,comdat
	.hidden	_ZN8pybind1111error_scopeD2Ev   # -- Begin function _ZN8pybind1111error_scopeD2Ev
	.weak	_ZN8pybind1111error_scopeD2Ev
	.p2align	4, 0x90
	.type	_ZN8pybind1111error_scopeD2Ev,@function
_ZN8pybind1111error_scopeD2Ev:          # @_ZN8pybind1111error_scopeD2Ev
.Lfunc_begin2:
	.cfi_startproc
	.cfi_personality 155, DW.ref.__gxx_personality_v0
	.cfi_lsda 27, .Lexception2
# %bb.0:
	pushq	%rax
	.cfi_def_cfa_offset 16
	movq	(%rdi), %rax
	movq	8(%rdi), %rsi
	movq	16(%rdi), %rdx
.Ltmp24:
	movq	%rax, %rdi
	callq	PyErr_Restore@PLT
.Ltmp25:
# %bb.1:
	popq	%rax
	.cfi_def_cfa_offset 8
	retq
.LBB4_2:
	.cfi_def_cfa_offset 16
.Ltmp26:
	movq	%rax, %rdi
	callq	__clang_call_terminate
.Lfunc_end4:
	.size	_ZN8pybind1111error_scopeD2Ev, .Lfunc_end4-_ZN8pybind1111error_scopeD2Ev
	.cfi_endproc
	.section	.gcc_except_table._ZN8pybind1111error_scopeD2Ev,"aG",@progbits,_ZN8pybind1111error_scopeD2Ev,comdat
	.p2align	2, 0x0
GCC_except_table4:
.Lexception2:
	.byte	255                             # @LPStart Encoding = omit
	.byte	155                             # @TType Encoding = indirect pcrel sdata4
	.uleb128 .Lttbase1-.Lttbaseref1
.Lttbaseref1:
	.byte	1                               # Call site Encoding = uleb128
	.uleb128 .Lcst_end2-.Lcst_begin2
.Lcst_begin2:
	.uleb128 .Ltmp24-.Lfunc_begin2          # >> Call Site 1 <<
	.uleb128 .Ltmp25-.Ltmp24                #   Call between .Ltmp24 and .Ltmp25
	.uleb128 .Ltmp26-.Lfunc_begin2          #     jumps to .Ltmp26
	.byte	1                               #   On action: 1
.Lcst_end2:
	.byte	1                               # >> Action Record 1 <<
                                        #   Catch TypeInfo 1
	.byte	0                               #   No further actions
	.p2align	2, 0x0
                                        # >> Catch TypeInfos <<
	.long	0                               # TypeInfo 1
.Lttbase1:
	.p2align	2, 0x0
                                        # -- End function
	.section	.text._ZN8pybind1118gil_scoped_acquireD2Ev,"axG",@progbits,_ZN8pybind1118gil_scoped_acquireD2Ev,comdat
	.hidden	_ZN8pybind1118gil_scoped_acquireD2Ev # -- Begin function _ZN8pybind1118gil_scoped_acquireD2Ev
	.weak	_ZN8pybind1118gil_scoped_acquireD2Ev
	.p2align	4, 0x90
	.type	_ZN8pybind1118gil_scoped_acquireD2Ev,@function
_ZN8pybind1118gil_scoped_acquireD2Ev:   # @_ZN8pybind1118gil_scoped_acquireD2Ev
.Lfunc_begin3:
	.cfi_startproc
	.cfi_personality 155, DW.ref.__gxx_personality_v0
	.cfi_lsda 27, .Lexception3
# %bb.0:
	pushq	%rbx
	.cfi_def_cfa_offset 16
	.cfi_offset %rbx, -16
	movq	%rdi, %rbx
.Ltmp27:
	callq	_ZN8pybind1118gil_scoped_acquire7dec_refEv
.Ltmp28:
# %bb.1:
	cmpb	$1, 8(%rbx)
	jne	.LBB5_3
# %bb.2:
.Ltmp29:
	callq	PyEval_SaveThread@PLT
.Ltmp30:
.LBB5_3:
	popq	%rbx
	.cfi_def_cfa_offset 8
	retq
.LBB5_4:
	.cfi_def_cfa_offset 16
.Ltmp31:
	movq	%rax, %rdi
	callq	__clang_call_terminate
.Lfunc_end5:
	.size	_ZN8pybind1118gil_scoped_acquireD2Ev, .Lfunc_end5-_ZN8pybind1118gil_scoped_acquireD2Ev
	.cfi_endproc
	.section	.gcc_except_table._ZN8pybind1118gil_scoped_acquireD2Ev,"aG",@progbits,_ZN8pybind1118gil_scoped_acquireD2Ev,comdat
	.p2align	2, 0x0
GCC_except_table5:
.Lexception3:
	.byte	255                             # @LPStart Encoding = omit
	.byte	155                             # @TType Encoding = indirect pcrel sdata4
	.uleb128 .Lttbase2-.Lttbaseref2
.Lttbaseref2:
	.byte	1                               # Call site Encoding = uleb128
	.uleb128 .Lcst_end3-.Lcst_begin3
.Lcst_begin3:
	.uleb128 .Ltmp27-.Lfunc_begin3          # >> Call Site 1 <<
	.uleb128 .Ltmp30-.Ltmp27                #   Call between .Ltmp27 and .Ltmp30
	.uleb128 .Ltmp31-.Lfunc_begin3          #     jumps to .Ltmp31
	.byte	1                               #   On action: 1
.Lcst_end3:
	.byte	1                               # >> Action Record 1 <<
                                        #   Catch TypeInfo 1
	.byte	0                               #   No further actions
	.p2align	2, 0x0
                                        # >> Catch TypeInfos <<
	.long	0                               # TypeInfo 1
.Lttbase2:
	.p2align	2, 0x0
                                        # -- End function
	.text
	.globl	_Z23__device_stub__micro_tk13micro_globals # -- Begin function _Z23__device_stub__micro_tk13micro_globals
	.p2align	4, 0x90
	.type	_Z23__device_stub__micro_tk13micro_globals,@function
_Z23__device_stub__micro_tk13micro_globals: # @_Z23__device_stub__micro_tk13micro_globals
	.cfi_startproc
# %bb.0:
	subq	$56, %rsp
	.cfi_def_cfa_offset 64
	movq	%rdi, (%rsp)
	leaq	40(%rsp), %rdi
	leaq	24(%rsp), %rsi
	leaq	16(%rsp), %rdx
	leaq	8(%rsp), %rcx
	callq	__hipPopCallConfiguration@PLT
	movq	40(%rsp), %rsi
	movl	48(%rsp), %edx
	movq	24(%rsp), %rcx
	movl	32(%rsp), %r8d
	movq	_Z8micro_tk13micro_globals@GOTPCREL(%rip), %rdi
	movq	%rsp, %r9
	pushq	8(%rsp)
	.cfi_adjust_cfa_offset 8
	pushq	24(%rsp)
	.cfi_adjust_cfa_offset 8
	callq	hipLaunchKernel@PLT
	addq	$72, %rsp
	.cfi_adjust_cfa_offset -72
	retq
.Lfunc_end6:
	.size	_Z23__device_stub__micro_tk13micro_globals, .Lfunc_end6-_Z23__device_stub__micro_tk13micro_globals
	.cfi_endproc
                                        # -- End function
	.globl	_Z14dispatch_micro13micro_globals # -- Begin function _Z14dispatch_micro13micro_globals
	.p2align	4, 0x90
	.type	_Z14dispatch_micro13micro_globals,@function
_Z14dispatch_micro13micro_globals:      # @_Z14dispatch_micro13micro_globals
	.cfi_startproc
# %bb.0:
	pushq	%rbx
	.cfi_def_cfa_offset 16
	subq	$208, %rsp
	.cfi_def_cfa_offset 224
	.cfi_offset %rbx, -16
	movq	%rdi, %rbx
	movq	_Z8micro_tk13micro_globals@GOTPCREL(%rip), %rdi
	movl	$8, %esi
	movl	$65536, %edx                    # imm = 0x10000
	callq	hipFuncSetAttribute@PLT
	movabsq	$4294967808, %rdx               # imm = 0x100000200
	leaq	512(%rdx), %rdi
	movl	$65536, %r8d                    # imm = 0x10000
	movl	$1, %esi
	movl	$1, %ecx
	xorl	%r9d, %r9d
	callq	__hipPushCallConfiguration@PLT
	testl	%eax, %eax
	je	.LBB7_1
# %bb.2:
	callq	hipDeviceSynchronize@PLT
	addq	$208, %rsp
	.cfi_def_cfa_offset 16
	popq	%rbx
	.cfi_def_cfa_offset 8
	retq
.LBB7_1:
	.cfi_def_cfa_offset 224
	movq	(%rbx), %rax
	movq	%rax, 64(%rsp)
	movups	8(%rbx), %xmm0
	movups	%xmm0, 72(%rsp)
	movups	24(%rbx), %xmm0
	movups	%xmm0, 88(%rsp)
	movq	48(%rbx), %rax
	movq	%rax, 112(%rsp)
	movups	56(%rbx), %xmm0
	movups	%xmm0, 120(%rsp)
	movups	72(%rbx), %xmm0
	movups	%xmm0, 136(%rsp)
	movq	96(%rbx), %rax
	movq	%rax, 160(%rsp)
	movups	104(%rbx), %xmm0
	movups	%xmm0, 168(%rsp)
	movups	120(%rbx), %xmm0
	movups	%xmm0, 184(%rsp)
	leaq	64(%rsp), %rax
	movq	%rax, (%rsp)
	leaq	48(%rsp), %rdi
	leaq	32(%rsp), %rsi
	leaq	24(%rsp), %rdx
	leaq	16(%rsp), %rcx
	callq	__hipPopCallConfiguration@PLT
	movq	48(%rsp), %rsi
	movl	56(%rsp), %edx
	movq	32(%rsp), %rcx
	movl	40(%rsp), %r8d
	movq	_Z8micro_tk13micro_globals@GOTPCREL(%rip), %rdi
	movq	%rsp, %r9
	pushq	16(%rsp)
	.cfi_adjust_cfa_offset 8
	pushq	32(%rsp)
	.cfi_adjust_cfa_offset 8
	callq	hipLaunchKernel@PLT
	addq	$16, %rsp
	.cfi_adjust_cfa_offset -16
	callq	hipDeviceSynchronize@PLT
	addq	$208, %rsp
	.cfi_def_cfa_offset 16
	popq	%rbx
	.cfi_def_cfa_offset 8
	retq
.Lfunc_end7:
	.size	_Z14dispatch_micro13micro_globals, .Lfunc_end7-_Z14dispatch_micro13micro_globals
	.cfi_endproc
                                        # -- End function
	.globl	PyInit_tk_kernel                # -- Begin function PyInit_tk_kernel
	.p2align	4, 0x90
	.type	PyInit_tk_kernel,@function
PyInit_tk_kernel:                       # @PyInit_tk_kernel
.Lfunc_begin4:
	.cfi_startproc
	.cfi_personality 155, DW.ref.__gxx_personality_v0
	.cfi_lsda 27, .Lexception4
# %bb.0:
	pushq	%rbx
	.cfi_def_cfa_offset 16
	.cfi_offset %rbx, -16
	callq	Py_GetVersion@PLT
	movq	%rax, %rbx
	leaq	.L.str(%rip), %rsi
	movl	$4, %edx
	movq	%rax, %rdi
	callq	strncmp@PLT
	testl	%eax, %eax
	jne	.LBB8_13
# %bb.1:
	movzbl	4(%rbx), %eax
	addb	$-48, %al
	cmpb	$9, %al
	ja	.LBB8_2
.LBB8_13:
	movq	PyExc_ImportError@GOTPCREL(%rip), %rax
	movq	(%rax), %rdi
	leaq	.L.str.1(%rip), %rsi
	leaq	.L.str(%rip), %rdx
	movq	%rbx, %rcx
	xorl	%eax, %eax
	callq	PyErr_Format@PLT
	xorl	%eax, %eax
	popq	%rbx
	.cfi_def_cfa_offset 8
	retq
.LBB8_2:
	.cfi_def_cfa_offset 16
	lock		incl	_ZZN8pybind116detail25get_num_interpreters_seenEvE7counter(%rip)
	movzbl	_ZGVZN8pybind116detail24get_internals_pp_managerEvE20internals_pp_manager(%rip), %eax
	testb	%al, %al
	je	.LBB8_3
.LBB8_6:                                # %_ZN8pybind116detail24get_internals_pp_managerEv.exit
	movl	_ZZN8pybind116detail25get_num_interpreters_seenEvE7counter(%rip), %eax
	cmpl	$2, %eax
	jl	.LBB8_8
# %bb.7:
	leaq	_ZZN8pybind116detail24get_internals_pp_managerEvE20internals_pp_manager+16(%rip), %rdi
	xorl	%esi, %esi
	callq	PyThread_tss_set@PLT
	leaq	_ZZN8pybind116detail24get_internals_pp_managerEvE20internals_pp_manager+24(%rip), %rdi
	xorl	%esi, %esi
	callq	PyThread_tss_set@PLT
	jmp	.LBB8_9
.LBB8_8:
	movq	$0, _ZZN8pybind116detail24get_internals_pp_managerEvE20internals_pp_manager+32(%rip)
.LBB8_9:                                # %_ZN8pybind116detail20internals_pp_managerINS0_9internalsEE5unrefEv.exit
	callq	_ZN8pybind116detail13get_internalsEv
	movzbl	_ZGVZ16PyInit_tk_kernelE5slots(%rip), %eax
	testb	%al, %al
	je	.LBB8_10
.LBB8_12:
	leaq	_ZZ16PyInit_tk_kernelE3def(%rip), %rdi
	popq	%rbx
	.cfi_def_cfa_offset 8
	jmp	PyModuleDef_Init@PLT            # TAILCALL
.LBB8_3:
	.cfi_def_cfa_offset 16
	leaq	_ZGVZN8pybind116detail24get_internals_pp_managerEvE20internals_pp_manager(%rip), %rdi
	callq	__cxa_guard_acquire@PLT
	testl	%eax, %eax
	je	.LBB8_6
# %bb.4:
.Ltmp32:
	leaq	_ZZN8pybind116detail24get_internals_pp_managerEvE20internals_pp_manager(%rip), %rdi
	leaq	.L.str.55(%rip), %rsi
	xorl	%edx, %edx
	callq	_ZN8pybind116detail20internals_pp_managerINS0_9internalsEEC2EPKcPFvPS2_E
.Ltmp33:
# %bb.5:
	leaq	_ZN8pybind116detail20internals_pp_managerINS0_9internalsEED2Ev(%rip), %rdi
	leaq	_ZZN8pybind116detail24get_internals_pp_managerEvE20internals_pp_manager(%rip), %rsi
	leaq	__dso_handle(%rip), %rdx
	callq	__cxa_atexit@PLT
	leaq	_ZGVZN8pybind116detail24get_internals_pp_managerEvE20internals_pp_manager(%rip), %rdi
	callq	__cxa_guard_release@PLT
	jmp	.LBB8_6
.LBB8_10:
	leaq	_ZGVZ16PyInit_tk_kernelE5slots(%rip), %rdi
	callq	__cxa_guard_acquire@PLT
	testl	%eax, %eax
	je	.LBB8_12
# %bb.11:
	movl	$2, _ZZ16PyInit_tk_kernelE5slots(%rip)
	leaq	_ZL23pybind11_exec_tk_kernelP7_object(%rip), %rax
	movq	%rax, _ZZ16PyInit_tk_kernelE5slots+8(%rip)
	movl	$3, _ZZ16PyInit_tk_kernelE5slots+16(%rip)
	movq	$0, _ZZ16PyInit_tk_kernelE5slots+24(%rip)
	movl	$0, _ZZ16PyInit_tk_kernelE5slots+32(%rip)
	movq	$0, _ZZ16PyInit_tk_kernelE5slots+40(%rip)
	leaq	_ZGVZ16PyInit_tk_kernelE5slots(%rip), %rdi
	callq	__cxa_guard_release@PLT
	leaq	_ZZ16PyInit_tk_kernelE3def(%rip), %rdi
	popq	%rbx
	.cfi_def_cfa_offset 8
	jmp	PyModuleDef_Init@PLT            # TAILCALL
.LBB8_14:
	.cfi_def_cfa_offset 16
.Ltmp34:
	movq	%rax, %rbx
	leaq	_ZGVZN8pybind116detail24get_internals_pp_managerEvE20internals_pp_manager(%rip), %rdi
	callq	__cxa_guard_abort@PLT
	movq	%rbx, %rdi
	callq	_Unwind_Resume@PLT
.Lfunc_end8:
	.size	PyInit_tk_kernel, .Lfunc_end8-PyInit_tk_kernel
	.cfi_endproc
	.section	.gcc_except_table,"a",@progbits
	.p2align	2, 0x0
GCC_except_table8:
.Lexception4:
	.byte	255                             # @LPStart Encoding = omit
	.byte	255                             # @TType Encoding = omit
	.byte	1                               # Call site Encoding = uleb128
	.uleb128 .Lcst_end4-.Lcst_begin4
.Lcst_begin4:
	.uleb128 .Lfunc_begin4-.Lfunc_begin4    # >> Call Site 1 <<
	.uleb128 .Ltmp32-.Lfunc_begin4          #   Call between .Lfunc_begin4 and .Ltmp32
	.byte	0                               #     has no landing pad
	.byte	0                               #   On action: cleanup
	.uleb128 .Ltmp32-.Lfunc_begin4          # >> Call Site 2 <<
	.uleb128 .Ltmp33-.Ltmp32                #   Call between .Ltmp32 and .Ltmp33
	.uleb128 .Ltmp34-.Lfunc_begin4          #     jumps to .Ltmp34
	.byte	0                               #   On action: cleanup
	.uleb128 .Ltmp33-.Lfunc_begin4          # >> Call Site 3 <<
	.uleb128 .Lfunc_end8-.Ltmp33            #   Call between .Ltmp33 and .Lfunc_end8
	.byte	0                               #     has no landing pad
	.byte	0                               #   On action: cleanup
.Lcst_end4:
	.p2align	2, 0x0
                                        # -- End function
	.section	.text._ZN8pybind116detail13get_internalsEv,"axG",@progbits,_ZN8pybind116detail13get_internalsEv,comdat
	.hidden	_ZN8pybind116detail13get_internalsEv # -- Begin function _ZN8pybind116detail13get_internalsEv
	.weak	_ZN8pybind116detail13get_internalsEv
	.p2align	4, 0x90
	.type	_ZN8pybind116detail13get_internalsEv,@function
_ZN8pybind116detail13get_internalsEv:   # @_ZN8pybind116detail13get_internalsEv
.Lfunc_begin5:
	.cfi_startproc
	.cfi_personality 155, DW.ref.__gxx_personality_v0
	.cfi_lsda 27, .Lexception5
# %bb.0:
	pushq	%r15
	.cfi_def_cfa_offset 16
	pushq	%r14
	.cfi_def_cfa_offset 24
	pushq	%r12
	.cfi_def_cfa_offset 32
	pushq	%rbx
	.cfi_def_cfa_offset 40
	subq	$24, %rsp
	.cfi_def_cfa_offset 64
	.cfi_offset %rbx, -40
	.cfi_offset %r12, -32
	.cfi_offset %r14, -24
	.cfi_offset %r15, -16
	movzbl	_ZGVZN8pybind116detail24get_internals_pp_managerEvE20internals_pp_manager(%rip), %eax
	testb	%al, %al
	je	.LBB9_1
.LBB9_4:                                # %_ZN8pybind116detail24get_internals_pp_managerEv.exit
	leaq	_ZZN8pybind116detail24get_internals_pp_managerEvE20internals_pp_manager(%rip), %rdi
	callq	_ZN8pybind116detail20internals_pp_managerINS0_9internalsEE6get_ppEv
	movq	%rax, %r14
	movq	(%rax), %rax
	testq	%rax, %rax
	jne	.LBB9_16
# %bb.5:
	callq	PyGILState_Ensure@PLT
	movl	%eax, %ebx
	leaq	8(%rsp), %rsi
	leaq	16(%rsp), %rdx
.Ltmp38:
	movq	%rsp, %rdi
	callq	PyErr_Fetch@PLT
.Ltmp39:
# %bb.6:                                # %_ZN8pybind1111error_scopeC2Ev.exit
.Ltmp41:
	movl	$512, %edi                      # imm = 0x200
	callq	_Znwm@PLT
.Ltmp42:
# %bb.7:
.Ltmp43:
	movq	%rax, %r15
	movq	%rax, %rdi
	callq	_ZN8pybind116detail9internalsC2Ev
.Ltmp44:
# %bb.8:
	movq	(%r14), %r12
	movq	%r15, (%r14)
	testq	%r12, %r12
	je	.LBB9_10
# %bb.9:                                # %_ZNKSt14default_deleteIN8pybind116detail9internalsEEclEPS2_.exit.i.i
	movq	%r12, %rdi
	callq	_ZN8pybind116detail9internalsD2Ev
	movl	$512, %esi                      # imm = 0x200
	movq	%r12, %rdi
	callq	_ZdlPvm@PLT
	movq	(%r14), %r15
.LBB9_10:                               # %_ZNSt10unique_ptrIN8pybind116detail9internalsESt14default_deleteIS2_EE5resetEPS2_.exit
	cmpq	$0, 424(%r15)
	jne	.LBB9_13
# %bb.11:
	movq	416(%r15), %rdi
.Ltmp46:
	callq	_ZN8pybind116detail21make_object_base_typeEP11_typeobject
.Ltmp47:
# %bb.12:
	movq	(%r14), %rcx
	movq	%rax, 424(%rcx)
.LBB9_13:
	movq	(%rsp), %rdi
	movq	8(%rsp), %rsi
	movq	16(%rsp), %rdx
.Ltmp52:
	callq	PyErr_Restore@PLT
.Ltmp53:
# %bb.14:                               # %_ZN8pybind1111error_scopeD2Ev.exit
.Ltmp55:
	movl	%ebx, %edi
	callq	PyGILState_Release@PLT
.Ltmp56:
# %bb.15:                               # %_ZN8pybind1111error_scopeD2Ev.exit._ZN8pybind1125gil_scoped_acquire_simpleD2Ev.exit_crit_edge
	movq	(%r14), %rax
.LBB9_16:                               # %_ZN8pybind1125gil_scoped_acquire_simpleD2Ev.exit
	addq	$24, %rsp
	.cfi_def_cfa_offset 40
	popq	%rbx
	.cfi_def_cfa_offset 32
	popq	%r12
	.cfi_def_cfa_offset 24
	popq	%r14
	.cfi_def_cfa_offset 16
	popq	%r15
	.cfi_def_cfa_offset 8
	retq
.LBB9_1:
	.cfi_def_cfa_offset 64
	leaq	_ZGVZN8pybind116detail24get_internals_pp_managerEvE20internals_pp_manager(%rip), %rdi
	callq	__cxa_guard_acquire@PLT
	testl	%eax, %eax
	je	.LBB9_4
# %bb.2:
.Ltmp35:
	leaq	_ZZN8pybind116detail24get_internals_pp_managerEvE20internals_pp_manager(%rip), %rdi
	leaq	.L.str.55(%rip), %rsi
	xorl	%edx, %edx
	callq	_ZN8pybind116detail20internals_pp_managerINS0_9internalsEEC2EPKcPFvPS2_E
.Ltmp36:
# %bb.3:
	leaq	_ZN8pybind116detail20internals_pp_managerINS0_9internalsEED2Ev(%rip), %rdi
	leaq	_ZZN8pybind116detail24get_internals_pp_managerEvE20internals_pp_manager(%rip), %rsi
	leaq	__dso_handle(%rip), %rdx
	callq	__cxa_atexit@PLT
	leaq	_ZGVZN8pybind116detail24get_internals_pp_managerEvE20internals_pp_manager(%rip), %rdi
	callq	__cxa_guard_release@PLT
	jmp	.LBB9_4
.LBB9_17:
.Ltmp37:
	movq	%rax, %r14
	leaq	_ZGVZN8pybind116detail24get_internals_pp_managerEvE20internals_pp_manager(%rip), %rdi
	callq	__cxa_guard_abort@PLT
	movq	%r14, %rdi
	callq	_Unwind_Resume@PLT
.LBB9_22:
.Ltmp57:
	movq	%rax, %rdi
	callq	__clang_call_terminate
.LBB9_21:
.Ltmp54:
	movq	%rax, %rdi
	callq	__clang_call_terminate
.LBB9_20:
.Ltmp45:
	movq	%rax, %r14
	movl	$512, %esi                      # imm = 0x200
	movq	%r15, %rdi
	callq	_ZdlPvm@PLT
	jmp	.LBB9_24
.LBB9_19:
.Ltmp40:
	movq	%rax, %r14
	jmp	.LBB9_25
.LBB9_23:
.Ltmp48:
	movq	%rax, %r14
.LBB9_24:
	movq	%rsp, %rdi
	callq	_ZN8pybind1111error_scopeD2Ev
.LBB9_25:
.Ltmp49:
	movl	%ebx, %edi
	callq	PyGILState_Release@PLT
.Ltmp50:
# %bb.18:                               # %common.resume
	movq	%r14, %rdi
	callq	_Unwind_Resume@PLT
.LBB9_26:
.Ltmp51:
	movq	%rax, %rdi
	callq	__clang_call_terminate
.Lfunc_end9:
	.size	_ZN8pybind116detail13get_internalsEv, .Lfunc_end9-_ZN8pybind116detail13get_internalsEv
	.cfi_endproc
	.section	.gcc_except_table._ZN8pybind116detail13get_internalsEv,"aG",@progbits,_ZN8pybind116detail13get_internalsEv,comdat
	.p2align	2, 0x0
GCC_except_table9:
.Lexception5:
	.byte	255                             # @LPStart Encoding = omit
	.byte	155                             # @TType Encoding = indirect pcrel sdata4
	.uleb128 .Lttbase3-.Lttbaseref3
.Lttbaseref3:
	.byte	1                               # Call site Encoding = uleb128
	.uleb128 .Lcst_end5-.Lcst_begin5
.Lcst_begin5:
	.uleb128 .Lfunc_begin5-.Lfunc_begin5    # >> Call Site 1 <<
	.uleb128 .Ltmp38-.Lfunc_begin5          #   Call between .Lfunc_begin5 and .Ltmp38
	.byte	0                               #     has no landing pad
	.byte	0                               #   On action: cleanup
	.uleb128 .Ltmp38-.Lfunc_begin5          # >> Call Site 2 <<
	.uleb128 .Ltmp39-.Ltmp38                #   Call between .Ltmp38 and .Ltmp39
	.uleb128 .Ltmp40-.Lfunc_begin5          #     jumps to .Ltmp40
	.byte	0                               #   On action: cleanup
	.uleb128 .Ltmp41-.Lfunc_begin5          # >> Call Site 3 <<
	.uleb128 .Ltmp42-.Ltmp41                #   Call between .Ltmp41 and .Ltmp42
	.uleb128 .Ltmp48-.Lfunc_begin5          #     jumps to .Ltmp48
	.byte	0                               #   On action: cleanup
	.uleb128 .Ltmp43-.Lfunc_begin5          # >> Call Site 4 <<
	.uleb128 .Ltmp44-.Ltmp43                #   Call between .Ltmp43 and .Ltmp44
	.uleb128 .Ltmp45-.Lfunc_begin5          #     jumps to .Ltmp45
	.byte	0                               #   On action: cleanup
	.uleb128 .Ltmp46-.Lfunc_begin5          # >> Call Site 5 <<
	.uleb128 .Ltmp47-.Ltmp46                #   Call between .Ltmp46 and .Ltmp47
	.uleb128 .Ltmp48-.Lfunc_begin5          #     jumps to .Ltmp48
	.byte	0                               #   On action: cleanup
	.uleb128 .Ltmp52-.Lfunc_begin5          # >> Call Site 6 <<
	.uleb128 .Ltmp53-.Ltmp52                #   Call between .Ltmp52 and .Ltmp53
	.uleb128 .Ltmp54-.Lfunc_begin5          #     jumps to .Ltmp54
	.byte	1                               #   On action: 1
	.uleb128 .Ltmp55-.Lfunc_begin5          # >> Call Site 7 <<
	.uleb128 .Ltmp56-.Ltmp55                #   Call between .Ltmp55 and .Ltmp56
	.uleb128 .Ltmp57-.Lfunc_begin5          #     jumps to .Ltmp57
	.byte	1                               #   On action: 1
	.uleb128 .Ltmp35-.Lfunc_begin5          # >> Call Site 8 <<
	.uleb128 .Ltmp36-.Ltmp35                #   Call between .Ltmp35 and .Ltmp36
	.uleb128 .Ltmp37-.Lfunc_begin5          #     jumps to .Ltmp37
	.byte	0                               #   On action: cleanup
	.uleb128 .Ltmp36-.Lfunc_begin5          # >> Call Site 9 <<
	.uleb128 .Ltmp49-.Ltmp36                #   Call between .Ltmp36 and .Ltmp49
	.byte	0                               #     has no landing pad
	.byte	0                               #   On action: cleanup
	.uleb128 .Ltmp49-.Lfunc_begin5          # >> Call Site 10 <<
	.uleb128 .Ltmp50-.Ltmp49                #   Call between .Ltmp49 and .Ltmp50
	.uleb128 .Ltmp51-.Lfunc_begin5          #     jumps to .Ltmp51
	.byte	1                               #   On action: 1
	.uleb128 .Ltmp50-.Lfunc_begin5          # >> Call Site 11 <<
	.uleb128 .Lfunc_end9-.Ltmp50            #   Call between .Ltmp50 and .Lfunc_end9
	.byte	0                               #     has no landing pad
	.byte	0                               #   On action: cleanup
.Lcst_end5:
	.byte	1                               # >> Action Record 1 <<
                                        #   Catch TypeInfo 1
	.byte	0                               #   No further actions
	.p2align	2, 0x0
                                        # >> Catch TypeInfos <<
	.long	0                               # TypeInfo 1
.Lttbase3:
	.p2align	2, 0x0
                                        # -- End function
	.text
	.p2align	4, 0x90                         # -- Begin function _ZL23pybind11_exec_tk_kernelP7_object
	.type	_ZL23pybind11_exec_tk_kernelP7_object,@function
_ZL23pybind11_exec_tk_kernelP7_object:  # @_ZL23pybind11_exec_tk_kernelP7_object
.Lfunc_begin6:
	.cfi_startproc
	.cfi_personality 155, DW.ref.__gxx_personality_v0
	.cfi_lsda 27, .Lexception6
# %bb.0:
	pushq	%r15
	.cfi_def_cfa_offset 16
	pushq	%r14
	.cfi_def_cfa_offset 24
	pushq	%r13
	.cfi_def_cfa_offset 32
	pushq	%r12
	.cfi_def_cfa_offset 40
	pushq	%rbx
	.cfi_def_cfa_offset 48
	subq	$80, %rsp
	.cfi_def_cfa_offset 128
	.cfi_offset %rbx, -48
	.cfi_offset %r12, -40
	.cfi_offset %r13, -32
	.cfi_offset %r14, -24
	.cfi_offset %r15, -16
	movq	%rdi, 24(%rsp)
.Ltmp58:
	leaq	24(%rsp), %rdi
	callq	_ZNKR8pybind116handle7inc_refEv
.Ltmp59:
# %bb.1:                                # %_ZN8pybind1118reinterpret_borrowINS_7module_EEET_NS_6handleE.exit
	movq	24(%rsp), %rax
	movq	%rax, 56(%rsp)
	leaq	.L.str.186(%rip), %rax
	movq	%rax, 64(%rsp)
	leaq	72(%rsp), %r15
	movq	$0, 72(%rsp)
.Ltmp61:
	leaq	.L.str.183(%rip), %rsi
	leaq	48(%rsp), %rdi
	callq	_ZNO8pybind116detail8accessorINS0_17accessor_policies8str_attrEEaSIRA24_KcEEvOT_
.Ltmp62:
# %bb.2:
.Ltmp67:
	movq	%r15, %rdi
	callq	_ZNKR8pybind116handle7dec_refEv
.Ltmp68:
# %bb.3:                                # %_ZN8pybind116detail8accessorINS0_17accessor_policies8str_attrEED2Ev.exit.i
	movq	24(%rsp), %rax
	movq	%rax, 40(%rsp)
.Ltmp70:
	leaq	40(%rsp), %rdi
	callq	_ZNKR8pybind116handle7inc_refEv
.Ltmp71:
# %bb.4:                                # %.noexc
	movq	40(%rsp), %rbx
	movq	_Py_NoneStruct@GOTPCREL(%rip), %r12
	movq	%r12, 16(%rsp)
.Ltmp72:
	leaq	16(%rsp), %rdi
	callq	_ZNKR8pybind116handle7inc_refEv
.Ltmp73:
# %bb.5:                                # %.noexc.i
	movq	16(%rsp), %r13
.Ltmp75:
	leaq	.L.str.184(%rip), %r14
	movq	%rbx, %rdi
	movq	%r14, %rsi
	callq	PyObject_GetAttrString@PLT
.Ltmp76:
# %bb.6:                                # %.noexc.i.i.i
	movq	%rax, %r15
	testq	%rax, %rax
	je	.LBB10_8
# %bb.7:
	movq	%r15, 8(%rsp)
	jmp	.LBB10_11
.LBB10_8:
.Ltmp77:
	callq	PyErr_Clear@PLT
.Ltmp78:
# %bb.9:                                # %.noexc13.i.i.i
	movq	%r13, 8(%rsp)
.Ltmp79:
	leaq	8(%rsp), %rdi
	callq	_ZNKR8pybind116handle7inc_refEv
.Ltmp80:
# %bb.10:                               # %.noexc13._crit_edge.i.i.i
	movq	8(%rsp), %r15
.LBB10_11:
	movq	$0, (%rsp)
.Ltmp82:
	leaq	48(%rsp), %rdi
	movq	%rsp, %rsi
	callq	_ZN8pybind1112cpp_function20make_function_recordEv
.Ltmp83:
# %bb.12:                               # %.noexc.i.i.i.i
	movq	48(%rsp), %rax
	leaq	_ZZN8pybind1112cpp_function10initializeIZN7kittens2pyL11bind_kernelITnDaXadL_Z8micro_tk13micro_globalsEES5_NS_7module_EPKcJNS2_2glI14__hip_bfloat16Lin1ELin1ELin1ELin1EJEEESB_SB_EEEvT1_T2_DpMT0_T3_EUlNS_6objectESI_SI_E_vJSI_SI_SI_EJNS_4nameENS_5scopeENS_7siblingEEEEvOT_PFSE_DpT1_EDpRKT2_ENUlRNS_6detail13function_callEE_8__invokeESZ_(%rip), %rcx
	movq	%rcx, 48(%rax)
	movw	$3, 94(%rax)
	andb	$63, 89(%rax)
	movq	%r14, (%rax)
	movq	%rbx, 112(%rax)
	movq	%r15, 120(%rax)
.Ltmp85:
	leaq	_ZZN8pybind1112cpp_function10initializeIZN7kittens2pyL11bind_kernelITnDaXadL_Z8micro_tk13micro_globalsEES5_NS_7module_EPKcJNS2_2glI14__hip_bfloat16Lin1ELin1ELin1ELin1EJEEESB_SB_EEEvT1_T2_DpMT0_T3_EUlNS_6objectESI_SI_E_vJSI_SI_SI_EJNS_4nameENS_5scopeENS_7siblingEEEEvOT_PFSE_DpT1_EDpRKT2_E9signature(%rip), %rdx
	leaq	_ZZN8pybind1112cpp_function10initializeIZN7kittens2pyL11bind_kernelITnDaXadL_Z8micro_tk13micro_globalsEES5_NS_7module_EPKcJNS2_2glI14__hip_bfloat16Lin1ELin1ELin1ELin1EJEEESB_SB_EEEvT1_T2_DpMT0_T3_EUlNS_6objectESI_SI_E_vJSI_SI_SI_EJNS_4nameENS_5scopeENS_7siblingEEEEvOT_PFSE_DpT1_EDpRKT2_E5types(%rip), %rcx
	movq	%rsp, %rdi
	leaq	48(%rsp), %rsi
	movl	$3, %r8d
	callq	_ZN8pybind1112cpp_function18initialize_genericEOSt10unique_ptrINS_6detail15function_recordENS0_33InitializingFunctionRecordDeleterEEPKcPKPKSt9type_infom
.Ltmp86:
# %bb.13:
	movq	48(%rsp), %rdi
	testq	%rdi, %rdi
	je	.LBB10_15
# %bb.14:
.Ltmp97:
	xorl	%esi, %esi
	callq	_ZN8pybind1112cpp_function8destructEPNS_6detail15function_recordEb
.Ltmp98:
.LBB10_15:
.Ltmp100:
	leaq	8(%rsp), %rdi
	callq	_ZNKR8pybind116handle7dec_refEv
.Ltmp101:
# %bb.16:                               # %_ZN8pybind116objectD2Ev.exit.i.i.i
.Ltmp103:
	leaq	16(%rsp), %rdi
	callq	_ZNKR8pybind116handle7dec_refEv
.Ltmp104:
# %bb.17:                               # %_ZN8pybind116objectD2Ev.exit15.i.i.i
	movq	(%rsp), %rdx
.Ltmp106:
	leaq	.L.str.184(%rip), %rsi
	leaq	40(%rsp), %rdi
	movl	$1, %ecx
	callq	_ZN8pybind117module_10add_objectEPKcNS_6handleEb
.Ltmp107:
# %bb.18:
.Ltmp115:
	movq	%rsp, %rdi
	callq	_ZNKR8pybind116handle7dec_refEv
.Ltmp116:
# %bb.19:
.Ltmp118:
	leaq	40(%rsp), %rdi
	callq	_ZNKR8pybind116handle7dec_refEv
.Ltmp119:
# %bb.20:                               # %_ZN8pybind116objectD2Ev.exit.i
	movq	24(%rsp), %rax
	movq	%rax, 32(%rsp)
.Ltmp121:
	leaq	32(%rsp), %rdi
	callq	_ZNKR8pybind116handle7inc_refEv
.Ltmp122:
# %bb.21:                               # %.noexc12
	movq	32(%rsp), %rbx
	movq	%r12, 16(%rsp)
.Ltmp124:
	leaq	16(%rsp), %rdi
	callq	_ZNKR8pybind116handle7inc_refEv
.Ltmp125:
# %bb.22:                               # %.noexc27.i
	movq	16(%rsp), %r12
.Ltmp127:
	leaq	.L.str.185(%rip), %r14
	movq	%rbx, %rdi
	movq	%r14, %rsi
	callq	PyObject_GetAttrString@PLT
.Ltmp128:
# %bb.23:                               # %.noexc.i.i14.i
	movq	%rax, %r15
	testq	%rax, %rax
	je	.LBB10_39
# %bb.24:
	movq	%r15, 8(%rsp)
	jmp	.LBB10_42
.LBB10_39:
.Ltmp129:
	callq	PyErr_Clear@PLT
.Ltmp130:
# %bb.40:                               # %.noexc13.i.i24.i
	movq	%r12, 8(%rsp)
.Ltmp131:
	leaq	8(%rsp), %rdi
	callq	_ZNKR8pybind116handle7inc_refEv
.Ltmp132:
# %bb.41:                               # %.noexc13._crit_edge.i.i25.i
	movq	8(%rsp), %r15
.LBB10_42:
	movq	$0, (%rsp)
.Ltmp134:
	leaq	48(%rsp), %rdi
	movq	%rsp, %rsi
	callq	_ZN8pybind1112cpp_function20make_function_recordEv
.Ltmp135:
# %bb.43:                               # %.noexc.i.i.i19.i
	movq	48(%rsp), %rax
	leaq	_ZZN8pybind1112cpp_function10initializeIZN7kittens2pyL13bind_functionITnDaXadL_Z14dispatch_micro13micro_globalsEES5_NS_7module_EPKcJNS2_2glI14__hip_bfloat16Lin1ELin1ELin1ELin1EJEEESB_SB_EEEvT1_T2_DpMT0_T3_EUlNS_6objectESI_SI_E_vJSI_SI_SI_EJNS_4nameENS_5scopeENS_7siblingEEEEvOT_PFSE_DpT1_EDpRKT2_ENUlRNS_6detail13function_callEE_8__invokeESZ_(%rip), %rcx
	movq	%rcx, 48(%rax)
	movw	$3, 94(%rax)
	andb	$63, 89(%rax)
	movq	%r14, (%rax)
	movq	%rbx, 112(%rax)
	movq	%r15, 120(%rax)
.Ltmp137:
	leaq	_ZZN8pybind1112cpp_function10initializeIZN7kittens2pyL13bind_functionITnDaXadL_Z14dispatch_micro13micro_globalsEES5_NS_7module_EPKcJNS2_2glI14__hip_bfloat16Lin1ELin1ELin1ELin1EJEEESB_SB_EEEvT1_T2_DpMT0_T3_EUlNS_6objectESI_SI_E_vJSI_SI_SI_EJNS_4nameENS_5scopeENS_7siblingEEEEvOT_PFSE_DpT1_EDpRKT2_E9signature(%rip), %rdx
	leaq	_ZZN8pybind1112cpp_function10initializeIZN7kittens2pyL13bind_functionITnDaXadL_Z14dispatch_micro13micro_globalsEES5_NS_7module_EPKcJNS2_2glI14__hip_bfloat16Lin1ELin1ELin1ELin1EJEEESB_SB_EEEvT1_T2_DpMT0_T3_EUlNS_6objectESI_SI_E_vJSI_SI_SI_EJNS_4nameENS_5scopeENS_7siblingEEEEvOT_PFSE_DpT1_EDpRKT2_E5types(%rip), %rcx
	movq	%rsp, %rdi
	leaq	48(%rsp), %rsi
	movl	$3, %r8d
	callq	_ZN8pybind1112cpp_function18initialize_genericEOSt10unique_ptrINS_6detail15function_recordENS0_33InitializingFunctionRecordDeleterEEPKcPKPKSt9type_infom
.Ltmp138:
# %bb.44:
	movq	48(%rsp), %rdi
	testq	%rdi, %rdi
	je	.LBB10_46
# %bb.45:
.Ltmp149:
	xorl	%esi, %esi
	callq	_ZN8pybind1112cpp_function8destructEPNS_6detail15function_recordEb
.Ltmp150:
.LBB10_46:
.Ltmp152:
	leaq	8(%rsp), %rdi
	callq	_ZNKR8pybind116handle7dec_refEv
.Ltmp153:
# %bb.47:                               # %_ZN8pybind116objectD2Ev.exit.i.i21.i
.Ltmp155:
	leaq	16(%rsp), %rdi
	callq	_ZNKR8pybind116handle7dec_refEv
.Ltmp156:
# %bb.48:                               # %_ZN8pybind116objectD2Ev.exit15.i.i22.i
	movq	(%rsp), %rdx
.Ltmp158:
	leaq	.L.str.185(%rip), %rsi
	leaq	32(%rsp), %rdi
	movl	$1, %ecx
	callq	_ZN8pybind117module_10add_objectEPKcNS_6handleEb
.Ltmp159:
# %bb.49:
.Ltmp183:
	movq	%rsp, %rdi
	callq	_ZNKR8pybind116handle7dec_refEv
.Ltmp184:
# %bb.50:
.Ltmp186:
	leaq	32(%rsp), %rdi
	callq	_ZNKR8pybind116handle7dec_refEv
.Ltmp187:
# %bb.51:
.Ltmp189:
	leaq	24(%rsp), %rdi
	callq	_ZNKR8pybind116handle7dec_refEv
.Ltmp190:
# %bb.52:                               # %_ZN8pybind116objectD2Ev.exit
	xorl	%eax, %eax
.LBB10_84:
	addq	$80, %rsp
	.cfi_def_cfa_offset 48
	popq	%rbx
	.cfi_def_cfa_offset 40
	popq	%r12
	.cfi_def_cfa_offset 32
	popq	%r13
	.cfi_def_cfa_offset 24
	popq	%r14
	.cfi_def_cfa_offset 16
	popq	%r15
	.cfi_def_cfa_offset 8
	retq
.LBB10_53:
	.cfi_def_cfa_offset 128
.Ltmp151:
	movq	%rax, %rdi
	callq	__clang_call_terminate
.LBB10_25:
.Ltmp99:
	movq	%rax, %rdi
	callq	__clang_call_terminate
.LBB10_75:
.Ltmp191:
	movq	%rax, %rdi
	callq	__clang_call_terminate
.LBB10_66:
.Ltmp188:
	movq	%rax, %rdi
	callq	__clang_call_terminate
.LBB10_61:
.Ltmp185:
	movq	%rax, %rdi
	callq	__clang_call_terminate
.LBB10_65:
.Ltmp160:
	movq	%rdx, %r14
	movq	%rax, %rbx
.Ltmp161:
	movq	%rsp, %rdi
	callq	_ZNKR8pybind116handle7dec_refEv
.Ltmp162:
	jmp	.LBB10_73
.LBB10_95:
.Ltmp163:
	movq	%rax, %rdi
	callq	__clang_call_terminate
.LBB10_60:
.Ltmp157:
	movq	%rax, %rdi
	callq	__clang_call_terminate
.LBB10_59:
.Ltmp154:
	movq	%rax, %rdi
	callq	__clang_call_terminate
.LBB10_54:
.Ltmp139:
	movq	%rdx, %r14
	movq	%rax, %rbx
	leaq	48(%rsp), %rdi
	callq	_ZNSt10unique_ptrIN8pybind116detail15function_recordENS0_12cpp_function33InitializingFunctionRecordDeleterEED2Ev
	jmp	.LBB10_56
.LBB10_55:
.Ltmp136:
	movq	%rdx, %r14
	movq	%rax, %rbx
.LBB10_56:                              # %.body.i.i.i16.i
.Ltmp140:
	movq	%rsp, %rdi
	callq	_ZNKR8pybind116handle7dec_refEv
.Ltmp141:
# %bb.57:                               # %.body.i.i18.i
.Ltmp143:
	leaq	8(%rsp), %rdi
	callq	_ZNKR8pybind116handle7dec_refEv
.Ltmp144:
	jmp	.LBB10_64
.LBB10_62:
.Ltmp145:
	movq	%rax, %rdi
	callq	__clang_call_terminate
.LBB10_58:
.Ltmp142:
	movq	%rax, %rdi
	callq	__clang_call_terminate
.LBB10_72:
.Ltmp126:
	movq	%rdx, %r14
	movq	%rax, %rbx
	jmp	.LBB10_73
.LBB10_38:
.Ltmp120:
	movq	%rax, %rdi
	callq	__clang_call_terminate
.LBB10_33:
.Ltmp117:
	movq	%rax, %rdi
	callq	__clang_call_terminate
.LBB10_37:
.Ltmp108:
	movq	%rdx, %r14
	movq	%rax, %rbx
.Ltmp109:
	movq	%rsp, %rdi
	callq	_ZNKR8pybind116handle7dec_refEv
.Ltmp110:
	jmp	.LBB10_70
.LBB10_93:
.Ltmp111:
	movq	%rax, %rdi
	callq	__clang_call_terminate
.LBB10_32:
.Ltmp105:
	movq	%rax, %rdi
	callq	__clang_call_terminate
.LBB10_31:
.Ltmp102:
	movq	%rax, %rdi
	callq	__clang_call_terminate
.LBB10_26:
.Ltmp87:
	movq	%rdx, %r14
	movq	%rax, %rbx
	leaq	48(%rsp), %rdi
	callq	_ZNSt10unique_ptrIN8pybind116detail15function_recordENS0_12cpp_function33InitializingFunctionRecordDeleterEED2Ev
	jmp	.LBB10_28
.LBB10_27:
.Ltmp84:
	movq	%rdx, %r14
	movq	%rax, %rbx
.LBB10_28:                              # %.body.i.i.i.i
.Ltmp88:
	movq	%rsp, %rdi
	callq	_ZNKR8pybind116handle7dec_refEv
.Ltmp89:
# %bb.29:                               # %.body.i.i.i
.Ltmp91:
	leaq	8(%rsp), %rdi
	callq	_ZNKR8pybind116handle7dec_refEv
.Ltmp92:
	jmp	.LBB10_36
.LBB10_34:
.Ltmp93:
	movq	%rax, %rdi
	callq	__clang_call_terminate
.LBB10_30:
.Ltmp90:
	movq	%rax, %rdi
	callq	__clang_call_terminate
.LBB10_69:
.Ltmp74:
	movq	%rdx, %r14
	movq	%rax, %rbx
	jmp	.LBB10_70
.LBB10_91:
.Ltmp69:
	movq	%rax, %rdi
	callq	__clang_call_terminate
.LBB10_68:
.Ltmp63:
	movq	%rdx, %r14
	movq	%rax, %rbx
.Ltmp64:
	movq	%r15, %rdi
	callq	_ZNKR8pybind116handle7dec_refEv
.Ltmp65:
	jmp	.LBB10_77
.LBB10_67:
.Ltmp66:
	movq	%rax, %rdi
	callq	__clang_call_terminate
.LBB10_79:
.Ltmp60:
	movq	%rdx, %r14
	movq	%rax, %rbx
	jmp	.LBB10_80
.LBB10_63:
.Ltmp133:
	movq	%rdx, %r14
	movq	%rax, %rbx
.LBB10_64:                              # %_ZN8pybind116objectD2Ev.exit17.i.i9.i
.Ltmp146:
	leaq	16(%rsp), %rdi
	callq	_ZNKR8pybind116handle7dec_refEv
.Ltmp147:
.LBB10_73:                              # %.body28.i
.Ltmp164:
	leaq	32(%rsp), %rdi
	callq	_ZNKR8pybind116handle7dec_refEv
.Ltmp165:
	jmp	.LBB10_77
.LBB10_94:
.Ltmp148:
	movq	%rax, %rdi
	callq	__clang_call_terminate
.LBB10_74:
.Ltmp166:
	movq	%rax, %rdi
	callq	__clang_call_terminate
.LBB10_35:
.Ltmp81:
	movq	%rdx, %r14
	movq	%rax, %rbx
.LBB10_36:                              # %_ZN8pybind116objectD2Ev.exit17.i.i.i
.Ltmp94:
	leaq	16(%rsp), %rdi
	callq	_ZNKR8pybind116handle7dec_refEv
.Ltmp95:
.LBB10_70:                              # %.body.i
.Ltmp112:
	leaq	40(%rsp), %rdi
	callq	_ZNKR8pybind116handle7dec_refEv
.Ltmp113:
	jmp	.LBB10_77
.LBB10_92:
.Ltmp96:
	movq	%rax, %rdi
	callq	__clang_call_terminate
.LBB10_71:
.Ltmp114:
	movq	%rax, %rdi
	callq	__clang_call_terminate
.LBB10_76:
.Ltmp123:
	movq	%rdx, %r14
	movq	%rax, %rbx
.LBB10_77:                              # %.body
.Ltmp167:
	leaq	24(%rsp), %rdi
	callq	_ZNKR8pybind116handle7dec_refEv
.Ltmp168:
.LBB10_80:                              # %_ZN8pybind116objectD2Ev.exit13
	cmpl	$2, %r14d
	jne	.LBB10_85
# %bb.81:
	movq	%rbx, %rdi
	callq	__cxa_begin_catch@PLT
	movq	PyExc_ImportError@GOTPCREL(%rip), %rcx
	movq	(%rcx), %rbx
	movq	8(%rax), %rdi
.Ltmp175:
	callq	_ZN8pybind116detail25error_fetch_and_normalize7restoreEv
.Ltmp176:
# %bb.82:                               # %.noexc14
.Ltmp177:
	leaq	.L.str.182(%rip), %rsi
	movq	%rbx, %rdi
	callq	_ZN8pybind1110raise_fromEP7_objectPKc
.Ltmp178:
	jmp	.LBB10_83
.LBB10_85:
	cmpl	$1, %r14d
	jne	.LBB10_89
# %bb.86:
	movq	%rbx, %rdi
	callq	__cxa_begin_catch@PLT
	movq	PyExc_ImportError@GOTPCREL(%rip), %rcx
	movq	(%rcx), %rbx
	movq	(%rax), %rcx
	movq	%rax, %rdi
	callq	*16(%rcx)
.Ltmp170:
	movq	%rbx, %rdi
	movq	%rax, %rsi
	callq	PyErr_SetString@PLT
.Ltmp171:
.LBB10_83:                              # %_ZN8pybind1110raise_fromERNS_17error_already_setEP7_objectPKc.exit
	callq	__cxa_end_catch@PLT
	movl	$-1, %eax
	jmp	.LBB10_84
.LBB10_87:
.Ltmp172:
	movq	%rax, %rbx
.Ltmp173:
	callq	__cxa_end_catch@PLT
.Ltmp174:
	jmp	.LBB10_89
.LBB10_78:
.Ltmp169:
	movq	%rax, %rdi
	callq	__clang_call_terminate
.LBB10_88:
.Ltmp179:
	movq	%rax, %rbx
.Ltmp180:
	callq	__cxa_end_catch@PLT
.Ltmp181:
.LBB10_89:
	movq	%rbx, %rdi
	callq	_Unwind_Resume@PLT
.LBB10_90:
.Ltmp182:
	movq	%rax, %rdi
	callq	__clang_call_terminate
.Lfunc_end10:
	.size	_ZL23pybind11_exec_tk_kernelP7_object, .Lfunc_end10-_ZL23pybind11_exec_tk_kernelP7_object
	.cfi_endproc
	.section	.gcc_except_table,"a",@progbits
	.p2align	2, 0x0
GCC_except_table10:
.Lexception6:
	.byte	255                             # @LPStart Encoding = omit
	.byte	155                             # @TType Encoding = indirect pcrel sdata4
	.uleb128 .Lttbase4-.Lttbaseref4
.Lttbaseref4:
	.byte	1                               # Call site Encoding = uleb128
	.uleb128 .Lcst_end6-.Lcst_begin6
.Lcst_begin6:
	.uleb128 .Ltmp58-.Lfunc_begin6          # >> Call Site 1 <<
	.uleb128 .Ltmp59-.Ltmp58                #   Call between .Ltmp58 and .Ltmp59
	.uleb128 .Ltmp60-.Lfunc_begin6          #     jumps to .Ltmp60
	.byte	5                               #   On action: 3
	.uleb128 .Ltmp61-.Lfunc_begin6          # >> Call Site 2 <<
	.uleb128 .Ltmp62-.Ltmp61                #   Call between .Ltmp61 and .Ltmp62
	.uleb128 .Ltmp63-.Lfunc_begin6          #     jumps to .Ltmp63
	.byte	5                               #   On action: 3
	.uleb128 .Ltmp67-.Lfunc_begin6          # >> Call Site 3 <<
	.uleb128 .Ltmp68-.Ltmp67                #   Call between .Ltmp67 and .Ltmp68
	.uleb128 .Ltmp69-.Lfunc_begin6          #     jumps to .Ltmp69
	.byte	7                               #   On action: 4
	.uleb128 .Ltmp70-.Lfunc_begin6          # >> Call Site 4 <<
	.uleb128 .Ltmp71-.Ltmp70                #   Call between .Ltmp70 and .Ltmp71
	.uleb128 .Ltmp123-.Lfunc_begin6         #     jumps to .Ltmp123
	.byte	5                               #   On action: 3
	.uleb128 .Ltmp72-.Lfunc_begin6          # >> Call Site 5 <<
	.uleb128 .Ltmp73-.Ltmp72                #   Call between .Ltmp72 and .Ltmp73
	.uleb128 .Ltmp74-.Lfunc_begin6          #     jumps to .Ltmp74
	.byte	5                               #   On action: 3
	.uleb128 .Ltmp75-.Lfunc_begin6          # >> Call Site 6 <<
	.uleb128 .Ltmp80-.Ltmp75                #   Call between .Ltmp75 and .Ltmp80
	.uleb128 .Ltmp81-.Lfunc_begin6          #     jumps to .Ltmp81
	.byte	5                               #   On action: 3
	.uleb128 .Ltmp82-.Lfunc_begin6          # >> Call Site 7 <<
	.uleb128 .Ltmp83-.Ltmp82                #   Call between .Ltmp82 and .Ltmp83
	.uleb128 .Ltmp84-.Lfunc_begin6          #     jumps to .Ltmp84
	.byte	5                               #   On action: 3
	.uleb128 .Ltmp85-.Lfunc_begin6          # >> Call Site 8 <<
	.uleb128 .Ltmp86-.Ltmp85                #   Call between .Ltmp85 and .Ltmp86
	.uleb128 .Ltmp87-.Lfunc_begin6          #     jumps to .Ltmp87
	.byte	5                               #   On action: 3
	.uleb128 .Ltmp97-.Lfunc_begin6          # >> Call Site 9 <<
	.uleb128 .Ltmp98-.Ltmp97                #   Call between .Ltmp97 and .Ltmp98
	.uleb128 .Ltmp99-.Lfunc_begin6          #     jumps to .Ltmp99
	.byte	7                               #   On action: 4
	.uleb128 .Ltmp100-.Lfunc_begin6         # >> Call Site 10 <<
	.uleb128 .Ltmp101-.Ltmp100              #   Call between .Ltmp100 and .Ltmp101
	.uleb128 .Ltmp102-.Lfunc_begin6         #     jumps to .Ltmp102
	.byte	7                               #   On action: 4
	.uleb128 .Ltmp103-.Lfunc_begin6         # >> Call Site 11 <<
	.uleb128 .Ltmp104-.Ltmp103              #   Call between .Ltmp103 and .Ltmp104
	.uleb128 .Ltmp105-.Lfunc_begin6         #     jumps to .Ltmp105
	.byte	7                               #   On action: 4
	.uleb128 .Ltmp106-.Lfunc_begin6         # >> Call Site 12 <<
	.uleb128 .Ltmp107-.Ltmp106              #   Call between .Ltmp106 and .Ltmp107
	.uleb128 .Ltmp108-.Lfunc_begin6         #     jumps to .Ltmp108
	.byte	5                               #   On action: 3
	.uleb128 .Ltmp115-.Lfunc_begin6         # >> Call Site 13 <<
	.uleb128 .Ltmp116-.Ltmp115              #   Call between .Ltmp115 and .Ltmp116
	.uleb128 .Ltmp117-.Lfunc_begin6         #     jumps to .Ltmp117
	.byte	7                               #   On action: 4
	.uleb128 .Ltmp118-.Lfunc_begin6         # >> Call Site 14 <<
	.uleb128 .Ltmp119-.Ltmp118              #   Call between .Ltmp118 and .Ltmp119
	.uleb128 .Ltmp120-.Lfunc_begin6         #     jumps to .Ltmp120
	.byte	7                               #   On action: 4
	.uleb128 .Ltmp121-.Lfunc_begin6         # >> Call Site 15 <<
	.uleb128 .Ltmp122-.Ltmp121              #   Call between .Ltmp121 and .Ltmp122
	.uleb128 .Ltmp123-.Lfunc_begin6         #     jumps to .Ltmp123
	.byte	5                               #   On action: 3
	.uleb128 .Ltmp124-.Lfunc_begin6         # >> Call Site 16 <<
	.uleb128 .Ltmp125-.Ltmp124              #   Call between .Ltmp124 and .Ltmp125
	.uleb128 .Ltmp126-.Lfunc_begin6         #     jumps to .Ltmp126
	.byte	5                               #   On action: 3
	.uleb128 .Ltmp127-.Lfunc_begin6         # >> Call Site 17 <<
	.uleb128 .Ltmp132-.Ltmp127              #   Call between .Ltmp127 and .Ltmp132
	.uleb128 .Ltmp133-.Lfunc_begin6         #     jumps to .Ltmp133
	.byte	5                               #   On action: 3
	.uleb128 .Ltmp134-.Lfunc_begin6         # >> Call Site 18 <<
	.uleb128 .Ltmp135-.Ltmp134              #   Call between .Ltmp134 and .Ltmp135
	.uleb128 .Ltmp136-.Lfunc_begin6         #     jumps to .Ltmp136
	.byte	5                               #   On action: 3
	.uleb128 .Ltmp137-.Lfunc_begin6         # >> Call Site 19 <<
	.uleb128 .Ltmp138-.Ltmp137              #   Call between .Ltmp137 and .Ltmp138
	.uleb128 .Ltmp139-.Lfunc_begin6         #     jumps to .Ltmp139
	.byte	5                               #   On action: 3
	.uleb128 .Ltmp149-.Lfunc_begin6         # >> Call Site 20 <<
	.uleb128 .Ltmp150-.Ltmp149              #   Call between .Ltmp149 and .Ltmp150
	.uleb128 .Ltmp151-.Lfunc_begin6         #     jumps to .Ltmp151
	.byte	7                               #   On action: 4
	.uleb128 .Ltmp152-.Lfunc_begin6         # >> Call Site 21 <<
	.uleb128 .Ltmp153-.Ltmp152              #   Call between .Ltmp152 and .Ltmp153
	.uleb128 .Ltmp154-.Lfunc_begin6         #     jumps to .Ltmp154
	.byte	7                               #   On action: 4
	.uleb128 .Ltmp155-.Lfunc_begin6         # >> Call Site 22 <<
	.uleb128 .Ltmp156-.Ltmp155              #   Call between .Ltmp155 and .Ltmp156
	.uleb128 .Ltmp157-.Lfunc_begin6         #     jumps to .Ltmp157
	.byte	7                               #   On action: 4
	.uleb128 .Ltmp158-.Lfunc_begin6         # >> Call Site 23 <<
	.uleb128 .Ltmp159-.Ltmp158              #   Call between .Ltmp158 and .Ltmp159
	.uleb128 .Ltmp160-.Lfunc_begin6         #     jumps to .Ltmp160
	.byte	5                               #   On action: 3
	.uleb128 .Ltmp183-.Lfunc_begin6         # >> Call Site 24 <<
	.uleb128 .Ltmp184-.Ltmp183              #   Call between .Ltmp183 and .Ltmp184
	.uleb128 .Ltmp185-.Lfunc_begin6         #     jumps to .Ltmp185
	.byte	7                               #   On action: 4
	.uleb128 .Ltmp186-.Lfunc_begin6         # >> Call Site 25 <<
	.uleb128 .Ltmp187-.Ltmp186              #   Call between .Ltmp186 and .Ltmp187
	.uleb128 .Ltmp188-.Lfunc_begin6         #     jumps to .Ltmp188
	.byte	7                               #   On action: 4
	.uleb128 .Ltmp189-.Lfunc_begin6         # >> Call Site 26 <<
	.uleb128 .Ltmp190-.Ltmp189              #   Call between .Ltmp189 and .Ltmp190
	.uleb128 .Ltmp191-.Lfunc_begin6         #     jumps to .Ltmp191
	.byte	7                               #   On action: 4
	.uleb128 .Ltmp161-.Lfunc_begin6         # >> Call Site 27 <<
	.uleb128 .Ltmp162-.Ltmp161              #   Call between .Ltmp161 and .Ltmp162
	.uleb128 .Ltmp163-.Lfunc_begin6         #     jumps to .Ltmp163
	.byte	7                               #   On action: 4
	.uleb128 .Ltmp140-.Lfunc_begin6         # >> Call Site 28 <<
	.uleb128 .Ltmp141-.Ltmp140              #   Call between .Ltmp140 and .Ltmp141
	.uleb128 .Ltmp142-.Lfunc_begin6         #     jumps to .Ltmp142
	.byte	7                               #   On action: 4
	.uleb128 .Ltmp143-.Lfunc_begin6         # >> Call Site 29 <<
	.uleb128 .Ltmp144-.Ltmp143              #   Call between .Ltmp143 and .Ltmp144
	.uleb128 .Ltmp145-.Lfunc_begin6         #     jumps to .Ltmp145
	.byte	7                               #   On action: 4
	.uleb128 .Ltmp109-.Lfunc_begin6         # >> Call Site 30 <<
	.uleb128 .Ltmp110-.Ltmp109              #   Call between .Ltmp109 and .Ltmp110
	.uleb128 .Ltmp111-.Lfunc_begin6         #     jumps to .Ltmp111
	.byte	7                               #   On action: 4
	.uleb128 .Ltmp88-.Lfunc_begin6          # >> Call Site 31 <<
	.uleb128 .Ltmp89-.Ltmp88                #   Call between .Ltmp88 and .Ltmp89
	.uleb128 .Ltmp90-.Lfunc_begin6          #     jumps to .Ltmp90
	.byte	7                               #   On action: 4
	.uleb128 .Ltmp91-.Lfunc_begin6          # >> Call Site 32 <<
	.uleb128 .Ltmp92-.Ltmp91                #   Call between .Ltmp91 and .Ltmp92
	.uleb128 .Ltmp93-.Lfunc_begin6          #     jumps to .Ltmp93
	.byte	7                               #   On action: 4
	.uleb128 .Ltmp64-.Lfunc_begin6          # >> Call Site 33 <<
	.uleb128 .Ltmp65-.Ltmp64                #   Call between .Ltmp64 and .Ltmp65
	.uleb128 .Ltmp66-.Lfunc_begin6          #     jumps to .Ltmp66
	.byte	7                               #   On action: 4
	.uleb128 .Ltmp146-.Lfunc_begin6         # >> Call Site 34 <<
	.uleb128 .Ltmp147-.Ltmp146              #   Call between .Ltmp146 and .Ltmp147
	.uleb128 .Ltmp148-.Lfunc_begin6         #     jumps to .Ltmp148
	.byte	7                               #   On action: 4
	.uleb128 .Ltmp164-.Lfunc_begin6         # >> Call Site 35 <<
	.uleb128 .Ltmp165-.Ltmp164              #   Call between .Ltmp164 and .Ltmp165
	.uleb128 .Ltmp166-.Lfunc_begin6         #     jumps to .Ltmp166
	.byte	7                               #   On action: 4
	.uleb128 .Ltmp94-.Lfunc_begin6          # >> Call Site 36 <<
	.uleb128 .Ltmp95-.Ltmp94                #   Call between .Ltmp94 and .Ltmp95
	.uleb128 .Ltmp96-.Lfunc_begin6          #     jumps to .Ltmp96
	.byte	7                               #   On action: 4
	.uleb128 .Ltmp112-.Lfunc_begin6         # >> Call Site 37 <<
	.uleb128 .Ltmp113-.Ltmp112              #   Call between .Ltmp112 and .Ltmp113
	.uleb128 .Ltmp114-.Lfunc_begin6         #     jumps to .Ltmp114
	.byte	7                               #   On action: 4
	.uleb128 .Ltmp167-.Lfunc_begin6         # >> Call Site 38 <<
	.uleb128 .Ltmp168-.Ltmp167              #   Call between .Ltmp167 and .Ltmp168
	.uleb128 .Ltmp169-.Lfunc_begin6         #     jumps to .Ltmp169
	.byte	7                               #   On action: 4
	.uleb128 .Ltmp168-.Lfunc_begin6         # >> Call Site 39 <<
	.uleb128 .Ltmp175-.Ltmp168              #   Call between .Ltmp168 and .Ltmp175
	.byte	0                               #     has no landing pad
	.byte	0                               #   On action: cleanup
	.uleb128 .Ltmp175-.Lfunc_begin6         # >> Call Site 40 <<
	.uleb128 .Ltmp178-.Ltmp175              #   Call between .Ltmp175 and .Ltmp178
	.uleb128 .Ltmp179-.Lfunc_begin6         #     jumps to .Ltmp179
	.byte	0                               #   On action: cleanup
	.uleb128 .Ltmp178-.Lfunc_begin6         # >> Call Site 41 <<
	.uleb128 .Ltmp170-.Ltmp178              #   Call between .Ltmp178 and .Ltmp170
	.byte	0                               #     has no landing pad
	.byte	0                               #   On action: cleanup
	.uleb128 .Ltmp170-.Lfunc_begin6         # >> Call Site 42 <<
	.uleb128 .Ltmp171-.Ltmp170              #   Call between .Ltmp170 and .Ltmp171
	.uleb128 .Ltmp172-.Lfunc_begin6         #     jumps to .Ltmp172
	.byte	0                               #   On action: cleanup
	.uleb128 .Ltmp171-.Lfunc_begin6         # >> Call Site 43 <<
	.uleb128 .Ltmp173-.Ltmp171              #   Call between .Ltmp171 and .Ltmp173
	.byte	0                               #     has no landing pad
	.byte	0                               #   On action: cleanup
	.uleb128 .Ltmp173-.Lfunc_begin6         # >> Call Site 44 <<
	.uleb128 .Ltmp181-.Ltmp173              #   Call between .Ltmp173 and .Ltmp181
	.uleb128 .Ltmp182-.Lfunc_begin6         #     jumps to .Ltmp182
	.byte	7                               #   On action: 4
	.uleb128 .Ltmp181-.Lfunc_begin6         # >> Call Site 45 <<
	.uleb128 .Lfunc_end10-.Ltmp181          #   Call between .Ltmp181 and .Lfunc_end10
	.byte	0                               #     has no landing pad
	.byte	0                               #   On action: cleanup
.Lcst_end6:
	.byte	0                               # >> Action Record 1 <<
                                        #   Cleanup
	.byte	0                               #   No further actions
	.byte	1                               # >> Action Record 2 <<
                                        #   Catch TypeInfo 1
	.byte	125                             #   Continue to action 1
	.byte	2                               # >> Action Record 3 <<
                                        #   Catch TypeInfo 2
	.byte	125                             #   Continue to action 2
	.byte	3                               # >> Action Record 4 <<
                                        #   Catch TypeInfo 3
	.byte	0                               #   No further actions
	.p2align	2, 0x0
                                        # >> Catch TypeInfos <<
	.long	0                               # TypeInfo 3
.Ltmp192:                               # TypeInfo 2
	.long	.L_ZTIN8pybind1117error_already_setE.DW.stub-.Ltmp192
.Ltmp193:                               # TypeInfo 1
	.long	.L_ZTISt9exception.DW.stub-.Ltmp193
.Lttbase4:
	.p2align	2, 0x0
                                        # -- End function
	.section	.text._ZN8pybind1117error_already_setD2Ev,"axG",@progbits,_ZN8pybind1117error_already_setD2Ev,comdat
	.hidden	_ZN8pybind1117error_already_setD2Ev # -- Begin function _ZN8pybind1117error_already_setD2Ev
	.weak	_ZN8pybind1117error_already_setD2Ev
	.p2align	4, 0x90
	.type	_ZN8pybind1117error_already_setD2Ev,@function
_ZN8pybind1117error_already_setD2Ev:    # @_ZN8pybind1117error_already_setD2Ev
	.cfi_startproc
# %bb.0:
	pushq	%r14
	.cfi_def_cfa_offset 16
	pushq	%rbx
	.cfi_def_cfa_offset 24
	pushq	%rax
	.cfi_def_cfa_offset 32
	.cfi_offset %rbx, -24
	.cfi_offset %r14, -16
	leaq	_ZTVN8pybind1117error_already_setE+16(%rip), %rax
	movq	%rax, (%rdi)
	movq	16(%rdi), %rbx
	testq	%rbx, %rbx
	je	.LBB11_9
# %bb.1:
	movq	8(%rbx), %rax
	movabsq	$4294967297, %rcx               # imm = 0x100000001
	cmpq	%rcx, %rax
	jne	.LBB11_3
# %bb.2:
	movq	$0, 8(%rbx)
	movq	(%rbx), %rax
	movq	%rdi, %r14
	movq	%rbx, %rdi
	callq	*16(%rax)
	movq	(%rbx), %rax
	movq	%rbx, %rdi
	callq	*24(%rax)
.LBB11_8:                               # %_ZNSt12__shared_ptrIN8pybind116detail25error_fetch_and_normalizeELN9__gnu_cxx12_Lock_policyE2EED2Ev.exit
	movq	%r14, %rdi
	addq	$8, %rsp
	.cfi_def_cfa_offset 24
	popq	%rbx
	.cfi_def_cfa_offset 16
	popq	%r14
	.cfi_def_cfa_offset 8
	jmp	_ZNSt9exceptionD2Ev@PLT         # TAILCALL
.LBB11_3:
	.cfi_def_cfa_offset 32
	movq	__libc_single_threaded@GOTPCREL(%rip), %rcx
	cmpb	$0, (%rcx)
	je	.LBB11_5
# %bb.4:
	leal	-1(%rax), %ecx
	movl	%ecx, 8(%rbx)
	cmpl	$1, %eax
	je	.LBB11_7
.LBB11_9:                               # %_ZNSt12__shared_ptrIN8pybind116detail25error_fetch_and_normalizeELN9__gnu_cxx12_Lock_policyE2EED2Ev.exit
	addq	$8, %rsp
	.cfi_def_cfa_offset 24
	popq	%rbx
	.cfi_def_cfa_offset 16
	popq	%r14
	.cfi_def_cfa_offset 8
	jmp	_ZNSt9exceptionD2Ev@PLT         # TAILCALL
.LBB11_5:
	.cfi_def_cfa_offset 32
	movl	$-1, %eax
	lock		xaddl	%eax, 8(%rbx)
	cmpl	$1, %eax
	jne	.LBB11_9
.LBB11_7:
	movq	%rdi, %r14
	movq	%rbx, %rdi
	callq	_ZNSt16_Sp_counted_baseILN9__gnu_cxx12_Lock_policyE2EE24_M_release_last_use_coldEv@PLT
	jmp	.LBB11_8
.Lfunc_end11:
	.size	_ZN8pybind1117error_already_setD2Ev, .Lfunc_end11-_ZN8pybind1117error_already_setD2Ev
	.cfi_endproc
                                        # -- End function
	.section	.text._ZN8pybind1117error_already_setD0Ev,"axG",@progbits,_ZN8pybind1117error_already_setD0Ev,comdat
	.hidden	_ZN8pybind1117error_already_setD0Ev # -- Begin function _ZN8pybind1117error_already_setD0Ev
	.weak	_ZN8pybind1117error_already_setD0Ev
	.p2align	4, 0x90
	.type	_ZN8pybind1117error_already_setD0Ev,@function
_ZN8pybind1117error_already_setD0Ev:    # @_ZN8pybind1117error_already_setD0Ev
	.cfi_startproc
# %bb.0:
	pushq	%r14
	.cfi_def_cfa_offset 16
	pushq	%rbx
	.cfi_def_cfa_offset 24
	pushq	%rax
	.cfi_def_cfa_offset 32
	.cfi_offset %rbx, -24
	.cfi_offset %r14, -16
	movq	%rdi, %rbx
	leaq	_ZTVN8pybind1117error_already_setE+16(%rip), %rax
	movq	%rax, (%rdi)
	movq	16(%rdi), %r14
	testq	%r14, %r14
	je	.LBB12_8
# %bb.1:
	movq	8(%r14), %rax
	movabsq	$4294967297, %rcx               # imm = 0x100000001
	cmpq	%rcx, %rax
	jne	.LBB12_3
# %bb.2:
	movq	$0, 8(%r14)
	movq	(%r14), %rax
	movq	%r14, %rdi
	callq	*16(%rax)
	movq	(%r14), %rax
	movq	%r14, %rdi
	callq	*24(%rax)
	jmp	.LBB12_8
.LBB12_3:
	movq	__libc_single_threaded@GOTPCREL(%rip), %rcx
	cmpb	$0, (%rcx)
	je	.LBB12_5
# %bb.4:
	leal	-1(%rax), %ecx
	movl	%ecx, 8(%r14)
	cmpl	$1, %eax
	je	.LBB12_7
.LBB12_8:                               # %_ZN8pybind1117error_already_setD2Ev.exit
	movq	%rbx, %rdi
	callq	_ZNSt9exceptionD2Ev@PLT
	movl	$24, %esi
	movq	%rbx, %rdi
	addq	$8, %rsp
	.cfi_def_cfa_offset 24
	popq	%rbx
	.cfi_def_cfa_offset 16
	popq	%r14
	.cfi_def_cfa_offset 8
	jmp	_ZdlPvm@PLT                     # TAILCALL
.LBB12_5:
	.cfi_def_cfa_offset 32
	movl	$-1, %eax
	lock		xaddl	%eax, 8(%r14)
	cmpl	$1, %eax
	jne	.LBB12_8
.LBB12_7:
	movq	%r14, %rdi
	callq	_ZNSt16_Sp_counted_baseILN9__gnu_cxx12_Lock_policyE2EE24_M_release_last_use_coldEv@PLT
	jmp	.LBB12_8
.Lfunc_end12:
	.size	_ZN8pybind1117error_already_setD0Ev, .Lfunc_end12-_ZN8pybind1117error_already_setD0Ev
	.cfi_endproc
                                        # -- End function
	.section	.text._ZN8pybind1113pybind11_failEPKc,"axG",@progbits,_ZN8pybind1113pybind11_failEPKc,comdat
	.hidden	_ZN8pybind1113pybind11_failEPKc # -- Begin function _ZN8pybind1113pybind11_failEPKc
	.weak	_ZN8pybind1113pybind11_failEPKc
	.p2align	4, 0x90
	.type	_ZN8pybind1113pybind11_failEPKc,@function
_ZN8pybind1113pybind11_failEPKc:        # @_ZN8pybind1113pybind11_failEPKc
.Lfunc_begin7:
	.cfi_startproc
	.cfi_personality 155, DW.ref.__gxx_personality_v0
	.cfi_lsda 27, .Lexception7
# %bb.0:
	pushq	%r14
	.cfi_def_cfa_offset 16
	pushq	%rbx
	.cfi_def_cfa_offset 24
	pushq	%rax
	.cfi_def_cfa_offset 32
	.cfi_offset %rbx, -24
	.cfi_offset %r14, -16
	movq	%rdi, %r14
	callq	PyErr_Occurred@PLT
	testq	%rax, %rax
	jne	.LBB13_4
# %bb.1:
	movl	$16, %edi
	callq	__cxa_allocate_exception@PLT
	movq	%rax, %rbx
.Ltmp194:
	movq	%rax, %rdi
	movq	%r14, %rsi
	callq	_ZNSt13runtime_errorC1EPKc@PLT
.Ltmp195:
# %bb.2:
	movq	_ZTISt13runtime_error@GOTPCREL(%rip), %rsi
	movq	_ZNSt13runtime_errorD1Ev@GOTPCREL(%rip), %rdx
	movq	%rbx, %rdi
	callq	__cxa_throw@PLT
.LBB13_4:
	leaq	.L.str.4(%rip), %rdi
	leaq	.L.str.5(%rip), %rsi
	leaq	.L__PRETTY_FUNCTION__._ZN8pybind1113pybind11_failEPKc(%rip), %rcx
	movl	$1064, %edx                     # imm = 0x428
	callq	__assert_fail@PLT
.LBB13_3:
.Ltmp196:
	movq	%rax, %r14
	movq	%rbx, %rdi
	callq	__cxa_free_exception@PLT
	movq	%r14, %rdi
	callq	_Unwind_Resume@PLT
.Lfunc_end13:
	.size	_ZN8pybind1113pybind11_failEPKc, .Lfunc_end13-_ZN8pybind1113pybind11_failEPKc
	.cfi_endproc
	.section	.gcc_except_table._ZN8pybind1113pybind11_failEPKc,"aG",@progbits,_ZN8pybind1113pybind11_failEPKc,comdat
	.p2align	2, 0x0
GCC_except_table13:
.Lexception7:
	.byte	255                             # @LPStart Encoding = omit
	.byte	255                             # @TType Encoding = omit
	.byte	1                               # Call site Encoding = uleb128
	.uleb128 .Lcst_end7-.Lcst_begin7
.Lcst_begin7:
	.uleb128 .Lfunc_begin7-.Lfunc_begin7    # >> Call Site 1 <<
	.uleb128 .Ltmp194-.Lfunc_begin7         #   Call between .Lfunc_begin7 and .Ltmp194
	.byte	0                               #     has no landing pad
	.byte	0                               #   On action: cleanup
	.uleb128 .Ltmp194-.Lfunc_begin7         # >> Call Site 2 <<
	.uleb128 .Ltmp195-.Ltmp194              #   Call between .Ltmp194 and .Ltmp195
	.uleb128 .Ltmp196-.Lfunc_begin7         #     jumps to .Ltmp196
	.byte	0                               #   On action: cleanup
	.uleb128 .Ltmp195-.Lfunc_begin7         # >> Call Site 3 <<
	.uleb128 .Lfunc_end13-.Ltmp195          #   Call between .Ltmp195 and .Lfunc_end13
	.byte	0                               #     has no landing pad
	.byte	0                               #   On action: cleanup
.Lcst_end7:
	.p2align	2, 0x0
                                        # -- End function
	.section	.text._ZStplIcSt11char_traitsIcESaIcEENSt7__cxx1112basic_stringIT_T0_T1_EEPKS5_OS8_,"axG",@progbits,_ZStplIcSt11char_traitsIcESaIcEENSt7__cxx1112basic_stringIT_T0_T1_EEPKS5_OS8_,comdat
	.weak	_ZStplIcSt11char_traitsIcESaIcEENSt7__cxx1112basic_stringIT_T0_T1_EEPKS5_OS8_ # -- Begin function _ZStplIcSt11char_traitsIcESaIcEENSt7__cxx1112basic_stringIT_T0_T1_EEPKS5_OS8_
	.p2align	4, 0x90
	.type	_ZStplIcSt11char_traitsIcESaIcEENSt7__cxx1112basic_stringIT_T0_T1_EEPKS5_OS8_,@function
_ZStplIcSt11char_traitsIcESaIcEENSt7__cxx1112basic_stringIT_T0_T1_EEPKS5_OS8_: # @_ZStplIcSt11char_traitsIcESaIcEENSt7__cxx1112basic_stringIT_T0_T1_EEPKS5_OS8_
	.cfi_startproc
# %bb.0:
	pushq	%r15
	.cfi_def_cfa_offset 16
	pushq	%r14
	.cfi_def_cfa_offset 24
	pushq	%r12
	.cfi_def_cfa_offset 32
	pushq	%rbx
	.cfi_def_cfa_offset 40
	pushq	%rax
	.cfi_def_cfa_offset 48
	.cfi_offset %rbx, -40
	.cfi_offset %r12, -32
	.cfi_offset %r14, -24
	.cfi_offset %r15, -16
	movq	%rdx, %r14
	movq	%rsi, %r15
	movq	%rdi, %rbx
	movq	%rsi, %rdi
	callq	strlen@PLT
	movq	%r14, %rdi
	xorl	%esi, %esi
	xorl	%edx, %edx
	movq	%r15, %rcx
	movq	%rax, %r8
	callq	_ZNSt7__cxx1112basic_stringIcSt11char_traitsIcESaIcEE10_M_replaceEmmPKcm@PLT
	movq	%rax, %r14
	leaq	16(%rbx), %rdi
	movq	%rdi, (%rbx)
	movq	(%rax), %rax
	movq	%r14, %r15
	addq	$16, %r15
	cmpq	%r15, %rax
	je	.LBB14_1
# %bb.2:                                # %_ZNKSt7__cxx1112basic_stringIcSt11char_traitsIcESaIcEE11_M_is_localEv.exit.i
	movq	%rax, (%rbx)
	movq	16(%r14), %rax
	movq	%rax, 16(%rbx)
	movq	8(%r14), %r12
	jmp	.LBB14_3
.LBB14_1:
	movq	8(%r14), %r12
	leaq	1(%r12), %rdx
	movq	%r15, %rsi
	callq	memcpy@PLT
.LBB14_3:                               # %_ZNSt7__cxx1112basic_stringIcSt11char_traitsIcESaIcEEC2EOS4_.exit
	movq	%r12, 8(%rbx)
	movq	%r15, (%r14)
	movq	$0, 8(%r14)
	movb	$0, 16(%r14)
	movq	%rbx, %rax
	addq	$8, %rsp
	.cfi_def_cfa_offset 40
	popq	%rbx
	.cfi_def_cfa_offset 32
	popq	%r12
	.cfi_def_cfa_offset 24
	popq	%r14
	.cfi_def_cfa_offset 16
	popq	%r15
	.cfi_def_cfa_offset 8
	retq
.Lfunc_end14:
	.size	_ZStplIcSt11char_traitsIcESaIcEENSt7__cxx1112basic_stringIT_T0_T1_EEPKS5_OS8_, .Lfunc_end14-_ZStplIcSt11char_traitsIcESaIcEENSt7__cxx1112basic_stringIT_T0_T1_EEPKS5_OS8_
	.cfi_endproc
                                        # -- End function
	.section	.text._ZNK8pybind116detail25error_fetch_and_normalize22format_value_and_traceB5cxx11Ev,"axG",@progbits,_ZNK8pybind116detail25error_fetch_and_normalize22format_value_and_traceB5cxx11Ev,comdat
	.hidden	_ZNK8pybind116detail25error_fetch_and_normalize22format_value_and_traceB5cxx11Ev # -- Begin function _ZNK8pybind116detail25error_fetch_and_normalize22format_value_and_traceB5cxx11Ev
	.weak	_ZNK8pybind116detail25error_fetch_and_normalize22format_value_and_traceB5cxx11Ev
	.p2align	4, 0x90
	.type	_ZNK8pybind116detail25error_fetch_and_normalize22format_value_and_traceB5cxx11Ev,@function
_ZNK8pybind116detail25error_fetch_and_normalize22format_value_and_traceB5cxx11Ev: # @_ZNK8pybind116detail25error_fetch_and_normalize22format_value_and_traceB5cxx11Ev
.Lfunc_begin8:
	.cfi_startproc
	.cfi_personality 155, DW.ref.__gxx_personality_v0
	.cfi_lsda 27, .Lexception8
# %bb.0:
	pushq	%rbp
	.cfi_def_cfa_offset 16
	pushq	%r15
	.cfi_def_cfa_offset 24
	pushq	%r14
	.cfi_def_cfa_offset 32
	pushq	%r13
	.cfi_def_cfa_offset 40
	pushq	%r12
	.cfi_def_cfa_offset 48
	pushq	%rbx
	.cfi_def_cfa_offset 56
	subq	$280, %rsp                      # imm = 0x118
	.cfi_def_cfa_offset 336
	.cfi_offset %rbx, -56
	.cfi_offset %r12, -48
	.cfi_offset %r13, -40
	.cfi_offset %r14, -32
	.cfi_offset %r15, -24
	.cfi_offset %rbp, -16
	movq	%rdi, %rbx
	leaq	16(%rdi), %rax
	movq	%rax, 40(%rsp)                  # 8-byte Spill
	movq	%rax, (%rdi)
	movq	$0, 8(%rdi)
	movb	$0, 16(%rdi)
	leaq	168(%rsp), %rax
	movq	%rax, 152(%rsp)
	movq	$0, 160(%rsp)
	movb	$0, 168(%rsp)
	movq	%rsi, 240(%rsp)                 # 8-byte Spill
	movq	8(%rsi), %rdi
	testq	%rdi, %rdi
	movq	%rbx, (%rsp)                    # 8-byte Spill
	je	.LBB15_16
# %bb.1:
.Ltmp197:
	callq	PyObject_Str@PLT
.Ltmp198:
# %bb.2:
	movq	%rax, 272(%rsp)
	testq	%rax, %rax
	je	.LBB15_19
# %bb.3:
.Ltmp200:
	leaq	.L.str.12(%rip), %rsi
	leaq	.L.str.13(%rip), %rdx
	movq	%rax, %rdi
	callq	PyUnicode_AsEncodedString@PLT
.Ltmp201:
# %bb.4:
	movq	%rax, 48(%rsp)
	testq	%rax, %rax
	je	.LBB15_24
# %bb.5:
	movq	$0, 80(%rsp)
	movq	$0, 112(%rsp)
.Ltmp203:
	leaq	80(%rsp), %rsi
	leaq	112(%rsp), %rdx
	movq	%rax, %rdi
	callq	PyBytes_AsStringAndSize@PLT
.Ltmp204:
# %bb.6:
	cmpl	$-1, %eax
	je	.LBB15_29
# %bb.7:
	movq	80(%rsp), %r15
	movq	112(%rsp), %r14
	leaq	24(%rsp), %rbx
	movq	%rbx, 8(%rsp)
	testq	%r15, %r15
	setne	%al
	testq	%r14, %r14
	sete	%cl
	orb	%al, %cl
	je	.LBB15_577
# %bb.8:
	movq	%rbx, %r12
	cmpq	$16, %r14
	jb	.LBB15_13
# %bb.9:
	testq	%r14, %r14
	js	.LBB15_585
# %bb.10:
	movq	%r14, %rdi
	incq	%rdi
	js	.LBB15_530
# %bb.11:                               # %_ZNSt7__cxx1112basic_stringIcSt11char_traitsIcESaIcEE9_M_createERmm.exit.i.i
.Ltmp205:
	callq	_Znwm@PLT
.Ltmp206:
# %bb.12:                               # %.noexc153
	movq	%rax, %r12
	movq	%rax, 8(%rsp)
	movq	%r14, 24(%rsp)
.LBB15_13:                              # %._crit_edge.i.i
	testq	%r14, %r14
	je	.LBB15_47
# %bb.14:                               # %._crit_edge.i.i
	cmpq	$1, %r14
	jne	.LBB15_46
# %bb.15:
	movzbl	(%r15), %eax
	movb	%al, (%r12)
	jmp	.LBB15_47
.LBB15_16:
.Ltmp390:
	leaq	.L.str.23(%rip), %rcx
	movl	$21, %r8d
	movq	%rbx, %rdi
	xorl	%esi, %esi
	xorl	%edx, %edx
	callq	_ZNSt7__cxx1112basic_stringIcSt11char_traitsIcESaIcEE9_M_mutateEmmPKcm@PLT
.Ltmp391:
# %bb.17:                               # %_ZNSt7__cxx1112basic_stringIcSt11char_traitsIcESaIcEE10_M_replaceEmmPKcm.exit865
	movq	$21, 8(%rbx)
	movq	(%rbx), %rax
	movb	$0, 21(%rax)
	cmpq	$0, 8(%rbx)
	jne	.LBB15_18
.LBB15_382:                             # %_ZNKSt7__cxx1112basic_stringIcSt11char_traitsIcESaIcEE15_M_check_lengthEmmPKc.exit.i866
	movq	(%rsp), %rbx                    # 8-byte Reload
	movq	(%rbx), %rsi
	cmpq	40(%rsp), %rsi                  # 8-byte Folded Reload
	je	.LBB15_385
# %bb.383:                              # %_ZNKSt7__cxx1112basic_stringIcSt11char_traitsIcESaIcEE15_M_check_lengthEmmPKc.exit.i866
	cmpq	$15, 16(%rbx)
	jae	.LBB15_385
# %bb.384:
.Ltmp394:
	leaq	.L.str.24(%rip), %rcx
	movl	$15, %r8d
	movq	%rbx, %rdi
	xorl	%esi, %esi
	xorl	%edx, %edx
	callq	_ZNSt7__cxx1112basic_stringIcSt11char_traitsIcESaIcEE9_M_mutateEmmPKcm@PLT
.Ltmp395:
	jmp	.LBB15_387
.LBB15_19:
.Ltmp232:
	leaq	8(%rsp), %rdi
	callq	_ZN8pybind116detail12error_stringB5cxx11Ev
.Ltmp233:
# %bb.20:
	movq	152(%rsp), %rdi
	leaq	168(%rsp), %rax
	cmpq	%rax, %rdi
	je	.LBB15_34
# %bb.21:                               # %_ZNKSt7__cxx1112basic_stringIcSt11char_traitsIcESaIcEE11_M_is_localEv.exit.thread.i
	movq	8(%rsp), %rsi
	leaq	24(%rsp), %rax
	cmpq	%rax, %rsi
	je	.LBB15_37
# %bb.22:                               # %_ZNKSt7__cxx1112basic_stringIcSt11char_traitsIcESaIcEE11_M_is_localEv.exit23.thread25.i
	movq	168(%rsp), %rcx
	movq	%rsi, 152(%rsp)
	movups	16(%rsp), %xmm0
	movups	%xmm0, 160(%rsp)
	testq	%rdi, %rdi
	je	.LBB15_36
# %bb.23:
	movq	%rdi, 8(%rsp)
	movq	%rcx, 24(%rsp)
	jmp	.LBB15_66
.LBB15_385:
	leaq	.L.str.24(%rip), %rax
	cmpq	%rax, %rsi
	je	.LBB15_525
# %bb.386:                              # %_ZNSt7__cxx1112basic_stringIcSt11char_traitsIcESaIcEE7_S_moveEPcPKcm.exit.i872
	movabsq	$4487070949640979789, %rax      # imm = 0x3E4547415353454D
	movq	%rax, 7(%rsi)
	movabsq	$5557540158834558268, %rax      # imm = 0x4D205954504D453C
	movq	%rax, (%rsi)
	movq	(%rsp), %rbx                    # 8-byte Reload
.LBB15_387:                             # %_ZNSt7__cxx1112basic_stringIcSt11char_traitsIcESaIcEE10_M_replaceEmmPKcm.exit876
	movq	$15, 8(%rbx)
	movq	(%rbx), %rax
	movb	$0, 15(%rax)
	movq	240(%rsp), %rax                 # 8-byte Reload
	movq	16(%rax), %rax
	testq	%rax, %rax
	jne	.LBB15_388
	jmp	.LBB15_397
.LBB15_24:
.Ltmp220:
	leaq	8(%rsp), %rdi
	callq	_ZN8pybind116detail12error_stringB5cxx11Ev
.Ltmp221:
# %bb.25:
	movq	152(%rsp), %rdi
	leaq	168(%rsp), %rax
	cmpq	%rax, %rdi
	je	.LBB15_40
# %bb.26:                               # %_ZNKSt7__cxx1112basic_stringIcSt11char_traitsIcESaIcEE11_M_is_localEv.exit.thread.i124
	movq	8(%rsp), %rsi
	leaq	24(%rsp), %rax
	cmpq	%rax, %rsi
	je	.LBB15_43
# %bb.27:                               # %_ZNKSt7__cxx1112basic_stringIcSt11char_traitsIcESaIcEE11_M_is_localEv.exit23.thread25.i125
	movq	168(%rsp), %rcx
	movq	%rsi, 152(%rsp)
	movups	16(%rsp), %xmm0
	movups	%xmm0, 160(%rsp)
	testq	%rdi, %rdi
	je	.LBB15_42
# %bb.28:
	movq	%rdi, 8(%rsp)
	movq	%rcx, 24(%rsp)
	jmp	.LBB15_75
.LBB15_29:
.Ltmp214:
	leaq	8(%rsp), %rdi
	callq	_ZN8pybind116detail12error_stringB5cxx11Ev
.Ltmp215:
# %bb.30:
	movq	152(%rsp), %rdi
	leaq	168(%rsp), %rax
	cmpq	%rax, %rdi
	je	.LBB15_58
# %bb.31:                               # %_ZNKSt7__cxx1112basic_stringIcSt11char_traitsIcESaIcEE11_M_is_localEv.exit.thread.i137
	movq	8(%rsp), %rsi
	leaq	24(%rsp), %rax
	cmpq	%rax, %rsi
	je	.LBB15_61
# %bb.32:                               # %_ZNKSt7__cxx1112basic_stringIcSt11char_traitsIcESaIcEE11_M_is_localEv.exit23.thread25.i138
	movq	168(%rsp), %rcx
	movq	%rsi, 152(%rsp)
	movups	16(%rsp), %xmm0
	movups	%xmm0, 160(%rsp)
	testq	%rdi, %rdi
	je	.LBB15_60
# %bb.33:
	movq	%rdi, 8(%rsp)
	movq	%rcx, 24(%rsp)
	jmp	.LBB15_80
.LBB15_34:                              # %_ZNKSt7__cxx1112basic_stringIcSt11char_traitsIcESaIcEE11_M_is_localEv.exit.i
	movq	8(%rsp), %rsi
	leaq	24(%rsp), %rax
	cmpq	%rax, %rsi
	je	.LBB15_37
# %bb.35:                               # %.thread.i
	movq	%rsi, 152(%rsp)
	movups	16(%rsp), %xmm0
	movups	%xmm0, 160(%rsp)
.LBB15_36:
	movq	%rax, 8(%rsp)
	movq	%rax, %rdi
	jmp	.LBB15_66
.LBB15_37:
	movq	16(%rsp), %rdx
	testq	%rdx, %rdx
	je	.LBB15_65
# %bb.38:
	cmpq	$1, %rdx
	jne	.LBB15_64
# %bb.39:
	movzbl	(%rsi), %eax
	movb	%al, (%rdi)
	jmp	.LBB15_65
.LBB15_40:                              # %_ZNKSt7__cxx1112basic_stringIcSt11char_traitsIcESaIcEE11_M_is_localEv.exit.i129
	movq	8(%rsp), %rsi
	leaq	24(%rsp), %rax
	cmpq	%rax, %rsi
	je	.LBB15_43
# %bb.41:                               # %.thread.i130
	movq	%rsi, 152(%rsp)
	movups	16(%rsp), %xmm0
	movups	%xmm0, 160(%rsp)
.LBB15_42:
	movq	%rax, 8(%rsp)
	movq	%rax, %rdi
	jmp	.LBB15_75
.LBB15_43:
	movq	16(%rsp), %rdx
	testq	%rdx, %rdx
	je	.LBB15_74
# %bb.44:
	cmpq	$1, %rdx
	jne	.LBB15_73
# %bb.45:
	movzbl	(%rsi), %eax
	movb	%al, (%rdi)
	jmp	.LBB15_74
.LBB15_46:
	movq	%r12, %rdi
	movq	%r15, %rsi
	movq	%r14, %rdx
	callq	memcpy@PLT
.LBB15_47:
	movq	%r14, 16(%rsp)
	movb	$0, (%r12,%r14)
	movq	(%rsp), %rax                    # 8-byte Reload
	movq	(%rax), %rdi
	cmpq	40(%rsp), %rdi                  # 8-byte Folded Reload
	je	.LBB15_51
# %bb.48:                               # %_ZNKSt7__cxx1112basic_stringIcSt11char_traitsIcESaIcEE11_M_is_localEv.exit.thread.i154
	movq	8(%rsp), %rsi
	cmpq	%rbx, %rsi
	je	.LBB15_54
# %bb.49:                               # %_ZNKSt7__cxx1112basic_stringIcSt11char_traitsIcESaIcEE11_M_is_localEv.exit23.thread25.i155
	movq	(%rsp), %rcx                    # 8-byte Reload
	movq	16(%rcx), %rax
	movq	%rsi, (%rcx)
	movups	16(%rsp), %xmm0
	movups	%xmm0, 8(%rcx)
	testq	%rdi, %rdi
	je	.LBB15_53
# %bb.50:
	movq	%rdi, 8(%rsp)
	movq	%rax, 24(%rsp)
	jmp	.LBB15_71
.LBB15_51:                              # %_ZNKSt7__cxx1112basic_stringIcSt11char_traitsIcESaIcEE11_M_is_localEv.exit.i159
	movq	8(%rsp), %rsi
	cmpq	%rbx, %rsi
	je	.LBB15_54
# %bb.52:                               # %.thread.i160
	movq	(%rsp), %rax                    # 8-byte Reload
	movq	%rsi, (%rax)
	movups	16(%rsp), %xmm0
	movups	%xmm0, 8(%rax)
.LBB15_53:
	movq	%rbx, 8(%rsp)
	movq	%rbx, %rdi
	jmp	.LBB15_71
.LBB15_54:
	leaq	8(%rsp), %rax
	cmpq	(%rsp), %rax                    # 8-byte Folded Reload
	je	.LBB15_533
# %bb.55:
	movq	16(%rsp), %rdx
	testq	%rdx, %rdx
	je	.LBB15_70
# %bb.56:
	cmpq	$1, %rdx
	jne	.LBB15_69
# %bb.57:
	movzbl	(%rsi), %eax
	movb	%al, (%rdi)
	jmp	.LBB15_70
.LBB15_58:                              # %_ZNKSt7__cxx1112basic_stringIcSt11char_traitsIcESaIcEE11_M_is_localEv.exit.i142
	movq	8(%rsp), %rsi
	leaq	24(%rsp), %rax
	cmpq	%rax, %rsi
	je	.LBB15_61
# %bb.59:                               # %.thread.i143
	movq	%rsi, 152(%rsp)
	movups	16(%rsp), %xmm0
	movups	%xmm0, 160(%rsp)
.LBB15_60:
	movq	%rax, 8(%rsp)
	movq	%rax, %rdi
	jmp	.LBB15_80
.LBB15_61:
	movq	16(%rsp), %rdx
	testq	%rdx, %rdx
	je	.LBB15_79
# %bb.62:
	cmpq	$1, %rdx
	jne	.LBB15_78
# %bb.63:
	movzbl	(%rsi), %eax
	movb	%al, (%rdi)
	jmp	.LBB15_79
.LBB15_64:
	callq	memcpy@PLT
.LBB15_65:                              # %_ZNSt7__cxx1112basic_stringIcSt11char_traitsIcESaIcEE7_S_copyEPcPKcm.exit.i
	movq	16(%rsp), %rax
	movq	%rax, 160(%rsp)
	movq	152(%rsp), %rcx
	movb	$0, (%rcx,%rax)
	movq	8(%rsp), %rdi
.LBB15_66:                              # %_ZNSt7__cxx1112basic_stringIcSt11char_traitsIcESaIcEEaSEOS4_.exit
	movq	$0, 16(%rsp)
	movb	$0, (%rdi)
	movq	8(%rsp), %rdi
	leaq	24(%rsp), %rax
	cmpq	%rax, %rdi
	je	.LBB15_68
# %bb.67:                               # %_ZNKSt7__cxx1112basic_stringIcSt11char_traitsIcESaIcEE11_M_is_localEv.exit.i.i
	movq	24(%rsp), %rsi
	incq	%rsi
	callq	_ZdlPvm@PLT
.LBB15_68:                              # %_ZNSt7__cxx1112basic_stringIcSt11char_traitsIcESaIcEED2Ev.exit
	movq	(%rsp), %rdi                    # 8-byte Reload
	movq	8(%rdi), %rdx
.Ltmp235:
	leaq	.L.str.11(%rip), %rcx
	movl	$46, %r8d
	xorl	%esi, %esi
	callq	_ZNSt7__cxx1112basic_stringIcSt11char_traitsIcESaIcEE10_M_replaceEmmPKcm@PLT
.Ltmp236:
	jmp	.LBB15_84
.LBB15_69:
	callq	memcpy@PLT
.LBB15_70:                              # %_ZNSt7__cxx1112basic_stringIcSt11char_traitsIcESaIcEE7_S_copyEPcPKcm.exit.i157
	movq	16(%rsp), %rax
	movq	(%rsp), %rcx                    # 8-byte Reload
	movq	%rax, 8(%rcx)
	movq	(%rcx), %rcx
	movb	$0, (%rcx,%rax)
	movq	8(%rsp), %rdi
.LBB15_71:                              # %_ZNSt7__cxx1112basic_stringIcSt11char_traitsIcESaIcEEaSEOS4_.exit161
	movq	$0, 16(%rsp)
	movb	$0, (%rdi)
	movq	8(%rsp), %rdi
	cmpq	%rbx, %rdi
	je	.LBB15_83
# %bb.72:                               # %_ZNKSt7__cxx1112basic_stringIcSt11char_traitsIcESaIcEE11_M_is_localEv.exit.i.i162
	movq	24(%rsp), %rsi
	incq	%rsi
	callq	_ZdlPvm@PLT
	jmp	.LBB15_83
.LBB15_73:
	callq	memcpy@PLT
.LBB15_74:                              # %_ZNSt7__cxx1112basic_stringIcSt11char_traitsIcESaIcEE7_S_copyEPcPKcm.exit.i127
	movq	16(%rsp), %rax
	movq	%rax, 160(%rsp)
	movq	152(%rsp), %rcx
	movb	$0, (%rcx,%rax)
	movq	8(%rsp), %rdi
.LBB15_75:                              # %_ZNSt7__cxx1112basic_stringIcSt11char_traitsIcESaIcEEaSEOS4_.exit131
	movq	$0, 16(%rsp)
	movb	$0, (%rdi)
	movq	8(%rsp), %rdi
	leaq	24(%rsp), %rax
	cmpq	%rax, %rdi
	je	.LBB15_77
# %bb.76:                               # %_ZNKSt7__cxx1112basic_stringIcSt11char_traitsIcESaIcEE11_M_is_localEv.exit.i.i132
	movq	24(%rsp), %rsi
	incq	%rsi
	callq	_ZdlPvm@PLT
.LBB15_77:                              # %_ZNSt7__cxx1112basic_stringIcSt11char_traitsIcESaIcEED2Ev.exit134
	movq	(%rsp), %rdi                    # 8-byte Reload
	movq	8(%rdi), %rdx
.Ltmp223:
	leaq	.L.str.11(%rip), %rcx
	movl	$46, %r8d
	xorl	%esi, %esi
	callq	_ZNSt7__cxx1112basic_stringIcSt11char_traitsIcESaIcEE10_M_replaceEmmPKcm@PLT
.Ltmp224:
	jmp	.LBB15_83
.LBB15_78:
	callq	memcpy@PLT
.LBB15_79:                              # %_ZNSt7__cxx1112basic_stringIcSt11char_traitsIcESaIcEE7_S_copyEPcPKcm.exit.i140
	movq	16(%rsp), %rax
	movq	%rax, 160(%rsp)
	movq	152(%rsp), %rcx
	movb	$0, (%rcx,%rax)
	movq	8(%rsp), %rdi
.LBB15_80:                              # %_ZNSt7__cxx1112basic_stringIcSt11char_traitsIcESaIcEEaSEOS4_.exit144
	movq	$0, 16(%rsp)
	movb	$0, (%rdi)
	movq	8(%rsp), %rdi
	leaq	24(%rsp), %rax
	cmpq	%rax, %rdi
	je	.LBB15_82
# %bb.81:                               # %_ZNKSt7__cxx1112basic_stringIcSt11char_traitsIcESaIcEE11_M_is_localEv.exit.i.i145
	movq	24(%rsp), %rsi
	incq	%rsi
	callq	_ZdlPvm@PLT
.LBB15_82:                              # %_ZNSt7__cxx1112basic_stringIcSt11char_traitsIcESaIcEED2Ev.exit147
	movq	(%rsp), %rdi                    # 8-byte Reload
	movq	8(%rdi), %rdx
.Ltmp217:
	leaq	.L.str.11(%rip), %rcx
	movl	$46, %r8d
	xorl	%esi, %esi
	callq	_ZNSt7__cxx1112basic_stringIcSt11char_traitsIcESaIcEE10_M_replaceEmmPKcm@PLT
.Ltmp218:
.LBB15_83:                              # %_ZNSt7__cxx1112basic_stringIcSt11char_traitsIcESaIcEEaSEPKc.exit136
.Ltmp229:
	leaq	48(%rsp), %rdi
	callq	_ZNKR8pybind116handle7dec_refEv
.Ltmp230:
.LBB15_84:                              # %_ZNSt7__cxx1112basic_stringIcSt11char_traitsIcESaIcEEaSEPKc.exit
	movq	240(%rsp), %rax                 # 8-byte Reload
	movq	8(%rax), %rdi
.Ltmp238:
	leaq	.L.str.14(%rip), %rsi
	callq	PyObject_GetAttrString@PLT
.Ltmp239:
# %bb.85:
	movq	%rax, 200(%rsp)
	testq	%rax, %rax
	je	.LBB15_91
# %bb.86:
.Ltmp241:
	movq	%rax, %rdi
	callq	PyList_Size@PLT
.Ltmp242:
# %bb.87:
	testq	%rax, %rax
	js	.LBB15_92
# %bb.88:
	movabsq	$3777893186295716171, %rsi      # imm = 0x346DC5D63886594B
	cmpq	$10, %rax
	movq	%rax, 184(%rsp)                 # 8-byte Spill
	leaq	96(%rsp), %rbx
	jae	.LBB15_100
# %bb.89:                               # %.thread781
	movq	%rbx, 80(%rsp)
.LBB15_90:
	movb	$45, 96(%rsp)
	movl	$1, %r12d
	movl	$1, %r14d
	movq	%rbx, %r15
	jmp	.LBB15_125
.LBB15_91:
.Ltmp375:
	callq	PyErr_Clear@PLT
.Ltmp376:
	jmp	.LBB15_379
.LBB15_92:
.Ltmp358:
	leaq	48(%rsp), %rdi
	callq	_ZN8pybind116detail12error_stringB5cxx11Ev
.Ltmp359:
# %bb.93:
	movq	56(%rsp), %r12
	movabsq	$9223372036854775807, %rax      # imm = 0x7FFFFFFFFFFFFFFF
	addq	$-35, %rax
	cmpq	%rax, %r12
	jg	.LBB15_579
# %bb.94:                               # %_ZNKSt7__cxx1112basic_stringIcSt11char_traitsIcESaIcEE15_M_check_lengthEmmPKc.exit.i
	leaq	35(%r12), %rbx
	movq	48(%rsp), %r15
	leaq	64(%rsp), %r14
	cmpq	%r14, %r15
	je	.LBB15_106
# %bb.95:                               # %_ZNKSt7__cxx1112basic_stringIcSt11char_traitsIcESaIcEE8capacityEv.exit.i.thread
	movq	64(%rsp), %r13
	movq	%r13, %rax
	cmpq	%r13, %rbx
	ja	.LBB15_107
# %bb.96:
	leaq	.L.str.15(%rip), %rax
	cmpq	%rax, %r15
	seta	%cl
	leaq	(%r15,%r12), %rdx
	cmpq	%rax, %rdx
	setb	%al
	orb	%cl, %al
	cmpb	$1, %al
	jne	.LBB15_536
# %bb.97:
	testq	%r12, %r12
	je	.LBB15_362
# %bb.98:
	cmpq	$1, %r12
	jne	.LBB15_361
# %bb.99:
	movzbl	(%r15), %eax
	movb	%al, 35(%r15)
	jmp	.LBB15_362
.LBB15_100:                             # %.lr.ph.i.i.preheader
	movl	$4, %r12d
	movq	%rax, %rcx
	.p2align	4, 0x90
.LBB15_101:                             # %.lr.ph.i.i
                                        # =>This Inner Loop Header: Depth=1
	cmpq	$99, %rcx
	jbe	.LBB15_113
# %bb.102:                              #   in Loop: Header=BB15_101 Depth=1
	cmpq	$999, %rcx                      # imm = 0x3E7
	jbe	.LBB15_121
# %bb.103:                              #   in Loop: Header=BB15_101 Depth=1
	cmpq	$10000, %rcx                    # imm = 0x2710
	jb	.LBB15_114
# %bb.104:                              #   in Loop: Header=BB15_101 Depth=1
	movq	%rcx, %rax
	mulq	%rsi
	shrq	$11, %rdx
	addl	$4, %r12d
	cmpq	$99999, %rcx                    # imm = 0x1869F
	movq	%rdx, %rcx
	ja	.LBB15_101
# %bb.105:                              # %_ZNSt8__detail14__to_chars_lenImEEjT_i.exit.i.loopexit
	addl	$-3, %r12d
	movl	%r12d, %r14d
	movq	%rbx, 80(%rsp)
	cmpl	$16, %r12d
	jae	.LBB15_115
	jmp	.LBB15_122
.LBB15_106:                             # %_ZNKSt7__cxx1112basic_stringIcSt11char_traitsIcESaIcEE8capacityEv.exit.i
	movl	$15, %eax
	movq	64(%rsp), %r13
.LBB15_107:                             # %_ZNKSt7__cxx1112basic_stringIcSt11char_traitsIcESaIcEE8capacityEv.exit.i877
	cmpq	$-36, %r12
	jle	.LBB15_582
# %bb.108:
	addq	%rax, %rax
	movabsq	$9223372036854775807, %r14      # imm = 0x7FFFFFFFFFFFFFFF
	cmpq	%r14, %rax
	cmovbq	%rax, %r14
	cmpq	%rax, %rbx
	cmovaeq	%rbx, %r14
	movq	%r14, %rdi
	incq	%rdi
	js	.LBB15_528
# %bb.109:                              # %_ZNSt7__cxx1112basic_stringIcSt11char_traitsIcESaIcEE9_M_createERmm.exit.i
.Ltmp363:
	callq	_Znwm@PLT
.Ltmp364:
# %bb.110:                              # %.noexc883
	movq	%rax, %rbp
	movups	.L.str.15+16(%rip), %xmm0
	movups	%xmm0, 16(%rax)
	movups	.L.str.15(%rip), %xmm0
	movups	%xmm0, (%rax)
	movl	$540682591, 31(%rax)            # imm = 0x203A295F
	testq	%r12, %r12
	je	.LBB15_118
# %bb.111:
	movq	%rbp, %rdi
	addq	$35, %rdi
	cmpq	$1, %r12
	jne	.LBB15_117
# %bb.112:
	movzbl	(%r15), %eax
	movb	%al, (%rdi)
	jmp	.LBB15_118
.LBB15_113:
	addl	$-2, %r12d
.LBB15_114:                             # %_ZNSt8__detail14__to_chars_lenImEEjT_i.exit.i
	movl	%r12d, %r14d
	movq	%rbx, 80(%rsp)
	cmpl	$16, %r12d
	jb	.LBB15_122
.LBB15_115:                             # %.noexc.i184
	leaq	1(%r14), %rdi
.Ltmp244:
	callq	_Znwm@PLT
.Ltmp245:
# %bb.116:                              # %.noexc185
	movq	%rax, %r15
	movq	%rax, 80(%rsp)
	movq	%r14, 96(%rsp)
	jmp	.LBB15_124
.LBB15_117:
	movq	%r15, %rsi
	movq	%r12, %rdx
	callq	memcpy@PLT
.LBB15_118:                             # %_ZNSt7__cxx1112basic_stringIcSt11char_traitsIcESaIcEE7_S_copyEPcPKcm.exit27.i
	leaq	64(%rsp), %rax
	cmpq	%rax, %r15
	je	.LBB15_120
# %bb.119:                              # %_ZNKSt7__cxx1112basic_stringIcSt11char_traitsIcESaIcEE11_M_is_localEv.exit.i.i879
	incq	%r13
	movq	%r15, %rdi
	movq	%r13, %rsi
	callq	_ZdlPvm@PLT
.LBB15_120:                             # %.noexc821
	movq	%rbp, 48(%rsp)
	movq	%r14, 64(%rsp)
	movq	%rbp, %r15
	leaq	64(%rsp), %r14
	jmp	.LBB15_363
.LBB15_121:
	decl	%r12d
	movl	%r12d, %r14d
	movq	%rbx, 80(%rsp)
	cmpl	$16, %r12d
	jae	.LBB15_115
.LBB15_122:
	movq	%rbx, %r15
	testl	%r12d, %r12d
	je	.LBB15_125
# %bb.123:
	cmpl	$1, %r12d
	je	.LBB15_90
.LBB15_124:
	movq	%r15, %rdi
	movl	$45, %esi
	movq	%r14, %rdx
	callq	memset@PLT
.LBB15_125:
	movq	%r14, 88(%rsp)
	movb	$0, (%r15,%r14)
	movq	80(%rsp), %rcx
	movabsq	$2951479051793528259, %r9       # imm = 0x28F5C28F5C28F5C3
	leaq	.L__const._ZNSt8__detail18__to_chars_10_implIjEEvPcjT_.__digits(%rip), %r10
	movq	184(%rsp), %rsi                 # 8-byte Reload
	cmpq	$100, %rsi
	jb	.LBB15_130
# %bb.126:                              # %.lr.ph.preheader.i.i
	addl	$-2, %r12d
	.p2align	4, 0x90
.LBB15_127:                             # %.lr.ph.i13.i
                                        # =>This Inner Loop Header: Depth=1
	leal	1(%r12), %edi
	movq	%rsi, %rax
	shrq	$2, %rax
	mulq	%r9
	shrq	$2, %rdx
	imull	$100, %edx, %eax
	movl	%esi, %r8d
	subl	%eax, %r8d
	movzbl	(%r10,%r8,2), %eax
	movzbl	1(%r10,%r8,2), %r8d
	movb	%r8b, (%rcx,%rdi)
	movl	%r12d, %edi
	movb	%al, (%rcx,%rdi)
	addl	$-2, %r12d
	cmpq	$9999, %rsi                     # imm = 0x270F
	movq	%rdx, %rsi
	ja	.LBB15_127
# %bb.128:                              # %._crit_edge.i.i183
	cmpq	$10, %rdx
	jb	.LBB15_131
.LBB15_129:
	movzbl	(%r10,%rdx,2), %eax
	movzbl	1(%r10,%rdx,2), %edx
	movb	%dl, 1(%rcx)
	jmp	.LBB15_132
.LBB15_130:
	movq	%rsi, %rdx
	cmpq	$10, %rdx
	jae	.LBB15_129
.LBB15_131:
	orb	$48, %dl
	movl	%edx, %eax
.LBB15_132:
	movq	%rbx, 144(%rsp)                 # 8-byte Spill
	movb	%al, (%rcx)
	movq	88(%rsp), %r12
	movq	%r12, %rax
	andq	$-16, %rax
	movabsq	$9223372036854775807, %rcx      # imm = 0x7FFFFFFFFFFFFFFF
	addq	$-15, %rcx
	cmpq	%rcx, %rax
	je	.LBB15_569
# %bb.133:                              # %_ZNKSt7__cxx1112basic_stringIcSt11char_traitsIcESaIcEE15_M_check_lengthEmmPKc.exit.i822
	leaq	16(%r12), %rbp
	movq	80(%rsp), %r14
	leaq	96(%rsp), %rax
	cmpq	%rax, %r14
	je	.LBB15_139
# %bb.134:                              # %_ZNKSt7__cxx1112basic_stringIcSt11char_traitsIcESaIcEE8capacityEv.exit.i823.thread
	movq	96(%rsp), %r15
	movq	%r15, %rax
	cmpq	%r15, %rbp
	ja	.LBB15_140
# %bb.135:
	leaq	.L.str.16(%rip), %rax
	cmpq	%rax, %r14
	seta	%cl
	leaq	(%r14,%r12), %rdx
	cmpq	%rax, %rdx
	setb	%al
	orb	%cl, %al
	cmpb	$1, %al
	jne	.LBB15_532
# %bb.136:
	testq	%r12, %r12
	je	.LBB15_151
# %bb.137:
	cmpq	$1, %r12
	jne	.LBB15_150
# %bb.138:
	movzbl	(%r14), %eax
	movb	%al, 16(%r14)
	jmp	.LBB15_151
.LBB15_139:                             # %_ZNKSt7__cxx1112basic_stringIcSt11char_traitsIcESaIcEE8capacityEv.exit.i823
	movl	$15, %eax
	movq	96(%rsp), %r15
.LBB15_140:                             # %_ZNKSt7__cxx1112basic_stringIcSt11char_traitsIcESaIcEE8capacityEv.exit.i884
	cmpq	$-17, %r12
	jle	.LBB15_574
# %bb.141:
	addq	%rax, %rax
	movabsq	$9223372036854775807, %rbx      # imm = 0x7FFFFFFFFFFFFFFF
	cmpq	%rbx, %rax
	cmovbq	%rax, %rbx
	cmpq	%rax, %rbp
	cmovaeq	%rbp, %rbx
	movq	%rbx, %rdi
	incq	%rdi
	js	.LBB15_526
# %bb.142:                              # %_ZNSt7__cxx1112basic_stringIcSt11char_traitsIcESaIcEE9_M_createERmm.exit.i886
.Ltmp249:
	callq	_Znwm@PLT
.Ltmp250:
# %bb.143:                              # %.noexc895
	movq	%rax, %r13
	movups	.L.str.16(%rip), %xmm0
	movups	%xmm0, (%rax)
	testq	%r12, %r12
	je	.LBB15_147
# %bb.144:
	movq	%r13, %rdi
	addq	$16, %rdi
	cmpq	$1, %r12
	jne	.LBB15_146
# %bb.145:
	movzbl	(%r14), %eax
	movb	%al, (%rdi)
	jmp	.LBB15_147
.LBB15_146:
	movq	%r14, %rsi
	movq	%r12, %rdx
	callq	memcpy@PLT
.LBB15_147:                             # %_ZNSt7__cxx1112basic_stringIcSt11char_traitsIcESaIcEE7_S_copyEPcPKcm.exit27.i889
	leaq	96(%rsp), %rax
	cmpq	%rax, %r14
	je	.LBB15_149
# %bb.148:                              # %_ZNKSt7__cxx1112basic_stringIcSt11char_traitsIcESaIcEE11_M_is_localEv.exit.i.i890
	incq	%r15
	movq	%r14, %rdi
	movq	%r15, %rsi
	callq	_ZdlPvm@PLT
.LBB15_149:                             # %.noexc831
	movq	%r13, 80(%rsp)
	movq	%rbx, 96(%rsp)
	jmp	.LBB15_152
.LBB15_150:
	leaq	16(%r14), %rdi
	movq	%r14, %rsi
	movq	%r12, %rdx
	callq	memmove@PLT
.LBB15_151:                             # %_ZNSt7__cxx1112basic_stringIcSt11char_traitsIcESaIcEE7_S_moveEPcPKcm.exit.i828
	movups	.L.str.16(%rip), %xmm0
	movups	%xmm0, (%r14)
.LBB15_152:                             # %.noexc189
	movq	%rbp, 88(%rsp)
	movq	80(%rsp), %rax
	movb	$0, (%rax,%rbp)
	leaq	64(%rsp), %r14
	movq	%r14, 48(%rsp)
	movq	80(%rsp), %rax
	leaq	96(%rsp), %rbx
	cmpq	%rbx, %rax
	je	.LBB15_154
# %bb.153:                              # %_ZNKSt7__cxx1112basic_stringIcSt11char_traitsIcESaIcEE11_M_is_localEv.exit.i.i186
	movq	%rax, 48(%rsp)
	movq	88(%rsp), %r15
	movq	96(%rsp), %rcx
	movq	%rcx, 64(%rsp)
	jmp	.LBB15_155
.LBB15_154:
	movq	88(%rsp), %r15
	leaq	1(%r15), %rdx
	movq	%r14, %rdi
	movq	%rbx, %rsi
	callq	memcpy@PLT
	movq	%r14, %rax
.LBB15_155:
	movq	144(%rsp), %r13                 # 8-byte Reload
	movq	%r15, 56(%rsp)
	movq	%rbx, 80(%rsp)
	movq	$0, 88(%rsp)
	movb	$0, 96(%rsp)
	movq	%r15, %rcx
	andq	$-2, %rcx
	movabsq	$9223372036854775807, %rdx      # imm = 0x7FFFFFFFFFFFFFFF
	decq	%rdx
	cmpq	%rdx, %rcx
	je	.LBB15_570
# %bb.156:                              # %_ZNKSt7__cxx1112basic_stringIcSt11char_traitsIcESaIcEE15_M_check_lengthEmmPKc.exit.i.i
	leaq	2(%r15), %rbx
	movl	$15, %ecx
	cmpq	%r14, %rax
	je	.LBB15_158
# %bb.157:                              # %_ZNKSt7__cxx1112basic_stringIcSt11char_traitsIcESaIcEE15_M_check_lengthEmmPKc.exit.i.i
	movq	64(%rsp), %rcx
.LBB15_158:                             # %_ZNKSt7__cxx1112basic_stringIcSt11char_traitsIcESaIcEE15_M_check_lengthEmmPKc.exit.i.i
	cmpq	%rcx, %rbx
	jbe	.LBB15_160
# %bb.159:
.Ltmp251:
	leaq	.L.str.17(%rip), %rcx
	leaq	48(%rsp), %rdi
	movl	$2, %r8d
	movq	%r15, %rsi
	xorl	%edx, %edx
	callq	_ZNSt7__cxx1112basic_stringIcSt11char_traitsIcESaIcEE9_M_mutateEmmPKcm@PLT
.Ltmp252:
	jmp	.LBB15_161
.LBB15_160:
	movw	$14889, (%rax,%r15)             # imm = 0x3A29
.LBB15_161:                             # %_ZNSt7__cxx1112basic_stringIcSt11char_traitsIcESaIcEE6appendEPKc.exit.i
	movq	%rbx, 56(%rsp)
	movq	48(%rsp), %rax
	movb	$0, (%rax,%rbx)
	leaq	24(%rsp), %r12
	movq	%r12, 8(%rsp)
	movq	48(%rsp), %rcx
	cmpq	%r14, %rcx
	je	.LBB15_163
# %bb.162:                              # %_ZNKSt7__cxx1112basic_stringIcSt11char_traitsIcESaIcEE11_M_is_localEv.exit.i.i191
	movq	%rcx, 8(%rsp)
	movq	56(%rsp), %r15
	movq	64(%rsp), %rax
	movq	%rax, 24(%rsp)
	jmp	.LBB15_164
.LBB15_163:
	movq	56(%rsp), %r15
	leaq	1(%r15), %rdx
	movq	%r12, %rdi
	movq	%r14, %rsi
	callq	memcpy@PLT
	movq	%r12, %rcx
.LBB15_164:
	movq	%r15, 16(%rsp)
	movq	%r14, 48(%rsp)
	movq	$0, 56(%rsp)
	movb	$0, 64(%rsp)
	movq	(%rsp), %rdx                    # 8-byte Reload
	movq	8(%rdx), %rsi
	movabsq	$9223372036854775807, %rax      # imm = 0x7FFFFFFFFFFFFFFF
	subq	%rsi, %rax
	cmpq	%r15, %rax
	jb	.LBB15_572
# %bb.165:                              # %_ZNKSt7__cxx1112basic_stringIcSt11char_traitsIcESaIcEE15_M_check_lengthEmmPKc.exit.i.i.i195
	leaq	(%rsi,%r15), %rbx
	movq	(%rdx), %rdi
	movl	$15, %eax
	cmpq	40(%rsp), %rdi                  # 8-byte Folded Reload
	je	.LBB15_167
# %bb.166:                              # %_ZNKSt7__cxx1112basic_stringIcSt11char_traitsIcESaIcEE15_M_check_lengthEmmPKc.exit.i.i.i195
	movq	40(%rsp), %rax                  # 8-byte Reload
	movq	(%rax), %rax
.LBB15_167:                             # %_ZNKSt7__cxx1112basic_stringIcSt11char_traitsIcESaIcEE15_M_check_lengthEmmPKc.exit.i.i.i195
	cmpq	%rax, %rbx
	jbe	.LBB15_169
# %bb.168:
.Ltmp253:
	movq	(%rsp), %rdi                    # 8-byte Reload
	xorl	%edx, %edx
	movq	%r15, %r8
	callq	_ZNSt7__cxx1112basic_stringIcSt11char_traitsIcESaIcEE9_M_mutateEmmPKcm@PLT
.Ltmp254:
	jmp	.LBB15_173
.LBB15_169:
	testq	%r15, %r15
	je	.LBB15_173
# %bb.170:
	addq	%rsi, %rdi
	cmpq	$1, %r15
	jne	.LBB15_172
# %bb.171:
	movzbl	(%rcx), %eax
	movb	%al, (%rdi)
	jmp	.LBB15_173
.LBB15_172:
	movq	%rcx, %rsi
	movq	%r15, %rdx
	callq	memcpy@PLT
.LBB15_173:
	movq	(%rsp), %rax                    # 8-byte Reload
	movq	%rbx, 8(%rax)
	movq	(%rax), %rax
	movb	$0, (%rax,%rbx)
	movq	8(%rsp), %rdi
	cmpq	%r12, %rdi
	je	.LBB15_175
# %bb.174:                              # %_ZNKSt7__cxx1112basic_stringIcSt11char_traitsIcESaIcEE11_M_is_localEv.exit.i.i203
	movq	24(%rsp), %rsi
	incq	%rsi
	callq	_ZdlPvm@PLT
.LBB15_175:                             # %_ZNSt7__cxx1112basic_stringIcSt11char_traitsIcESaIcEED2Ev.exit205
	movq	48(%rsp), %rdi
	cmpq	%r14, %rdi
	je	.LBB15_177
# %bb.176:                              # %_ZNKSt7__cxx1112basic_stringIcSt11char_traitsIcESaIcEE11_M_is_localEv.exit.i.i206
	movq	64(%rsp), %rsi
	incq	%rsi
	callq	_ZdlPvm@PLT
.LBB15_177:                             # %_ZNSt7__cxx1112basic_stringIcSt11char_traitsIcESaIcEED2Ev.exit208
	movq	80(%rsp), %rdi
	cmpq	%r13, %rdi
	je	.LBB15_179
# %bb.178:                              # %_ZNKSt7__cxx1112basic_stringIcSt11char_traitsIcESaIcEE11_M_is_localEv.exit.i.i209
	movq	96(%rsp), %rsi
	incq	%rsi
	callq	_ZdlPvm@PLT
.LBB15_179:                             # %_ZNSt7__cxx1112basic_stringIcSt11char_traitsIcESaIcEED2Ev.exit211
	cmpq	$0, 184(%rsp)                   # 8-byte Folded Reload
	je	.LBB15_379
# %bb.180:                              # %.lr.ph.preheader
	leaq	24(%rsp), %r15
	movq	$0, 144(%rsp)                   # 8-byte Folded Spill
	leaq	.L.str.8(%rip), %rax
	movq	%rax, 192(%rsp)                 # 8-byte Spill
	.p2align	4, 0x90
.LBB15_181:                             # %.lr.ph
                                        # =>This Loop Header: Depth=1
                                        #     Child Loop BB15_222 Depth 2
                                        #     Child Loop BB15_297 Depth 2
                                        #     Child Loop BB15_207 Depth 2
                                        #     Child Loop BB15_241 Depth 2
	movq	200(%rsp), %rax
	movq	8(%rax), %rcx
	testb	$2, 171(%rcx)
	je	.LBB15_544
# %bb.182:                              #   in Loop: Header=BB15_181 Depth=1
	movq	24(%rax), %rax
	movq	144(%rsp), %rcx                 # 8-byte Reload
	movq	(%rax,%rcx,8), %rdi
.Ltmp255:
	leaq	.L.str.12(%rip), %rsi
	leaq	.L.str.13(%rip), %rdx
	callq	PyUnicode_AsEncodedString@PLT
.Ltmp256:
# %bb.183:                              #   in Loop: Header=BB15_181 Depth=1
	movq	%rax, 264(%rsp)
	testq	%rax, %rax
	je	.LBB15_200
# %bb.184:                              #   in Loop: Header=BB15_181 Depth=1
	movq	$0, 256(%rsp)
	movq	$0, 248(%rsp)
.Ltmp258:
	movq	%rax, %rdi
	leaq	256(%rsp), %rsi
	leaq	248(%rsp), %rdx
	callq	PyBytes_AsStringAndSize@PLT
.Ltmp259:
# %bb.185:                              #   in Loop: Header=BB15_181 Depth=1
	cmpl	$-1, %eax
	movabsq	$3777893186295716171, %rsi      # imm = 0x346DC5D63886594B
	je	.LBB15_203
# %bb.186:                              # %_ZNKSt7__cxx1112basic_stringIcSt11char_traitsIcESaIcEE8capacityEv.exit.i.i
                                        #   in Loop: Header=BB15_181 Depth=1
	movq	(%rsp), %rax                    # 8-byte Reload
	movq	(%rax), %rax
	movl	$15, %ecx
	cmpq	40(%rsp), %rax                  # 8-byte Folded Reload
	je	.LBB15_188
# %bb.187:                              # %_ZNKSt7__cxx1112basic_stringIcSt11char_traitsIcESaIcEE8capacityEv.exit.i.i
                                        #   in Loop: Header=BB15_181 Depth=1
	movq	40(%rsp), %rcx                  # 8-byte Reload
	movq	(%rcx), %rcx
.LBB15_188:                             # %_ZNKSt7__cxx1112basic_stringIcSt11char_traitsIcESaIcEE8capacityEv.exit.i.i
                                        #   in Loop: Header=BB15_181 Depth=1
	movq	(%rsp), %rdi                    # 8-byte Reload
	movq	8(%rdi), %r14
	leaq	1(%r14), %rbx
	cmpq	%rcx, %rbx
	jbe	.LBB15_191
# %bb.189:                              #   in Loop: Header=BB15_181 Depth=1
.Ltmp260:
	movl	$1, %r8d
	movq	%r14, %rsi
	xorl	%edx, %edx
	xorl	%ecx, %ecx
	callq	_ZNSt7__cxx1112basic_stringIcSt11char_traitsIcESaIcEE9_M_mutateEmmPKcm@PLT
.Ltmp261:
# %bb.190:                              # %.noexc361
                                        #   in Loop: Header=BB15_181 Depth=1
	movq	(%rsp), %rdi                    # 8-byte Reload
	movq	(%rdi), %rax
.LBB15_191:                             #   in Loop: Header=BB15_181 Depth=1
	movb	$10, (%rax,%r14)
	movq	%rbx, 8(%rdi)
	movq	(%rdi), %rax
	movb	$0, 1(%rax,%r14)
	movq	%r15, %r12
	movq	256(%rsp), %r15
	movq	248(%rsp), %r14
	movq	%r12, 8(%rsp)
	testq	%r15, %r15
	setne	%al
	testq	%r14, %r14
	sete	%cl
	orb	%al, %cl
	je	.LBB15_545
# %bb.192:                              #   in Loop: Header=BB15_181 Depth=1
	cmpq	$16, %r14
	jb	.LBB15_197
# %bb.193:                              #   in Loop: Header=BB15_181 Depth=1
	testq	%r14, %r14
	js	.LBB15_555
# %bb.194:                              #   in Loop: Header=BB15_181 Depth=1
	movq	%r14, %rdi
	incq	%rdi
	js	.LBB15_519
# %bb.195:                              # %_ZNSt7__cxx1112basic_stringIcSt11char_traitsIcESaIcEE9_M_createERmm.exit.i.i364
                                        #   in Loop: Header=BB15_181 Depth=1
.Ltmp263:
	callq	_Znwm@PLT
.Ltmp264:
# %bb.196:                              # %.noexc370
                                        #   in Loop: Header=BB15_181 Depth=1
	movq	%rax, %r12
	movq	%rax, 8(%rsp)
	movq	%r14, 24(%rsp)
.LBB15_197:                             # %._crit_edge.i.i363
                                        #   in Loop: Header=BB15_181 Depth=1
	testq	%r14, %r14
	je	.LBB15_213
# %bb.198:                              # %._crit_edge.i.i363
                                        #   in Loop: Header=BB15_181 Depth=1
	cmpq	$1, %r14
	jne	.LBB15_212
# %bb.199:                              #   in Loop: Header=BB15_181 Depth=1
	movzbl	(%r15), %eax
	movb	%al, (%r12)
	jmp	.LBB15_213
	.p2align	4, 0x90
.LBB15_200:                             #   in Loop: Header=BB15_181 Depth=1
	movq	144(%rsp), %rcx                 # 8-byte Reload
	cmpq	$10, %rcx
	jae	.LBB15_206
# %bb.201:                              # %.thread788
                                        #   in Loop: Header=BB15_181 Depth=1
	leaq	128(%rsp), %rax
	movq	%rax, 112(%rsp)
.LBB15_202:                             #   in Loop: Header=BB15_181 Depth=1
	movb	$45, 128(%rsp)
	movl	$1, %ebx
	movl	$1, %r14d
	movq	%rax, %r15
	jmp	.LBB15_239
	.p2align	4, 0x90
.LBB15_203:                             #   in Loop: Header=BB15_181 Depth=1
	movq	144(%rsp), %rcx                 # 8-byte Reload
	cmpq	$10, %rcx
	jae	.LBB15_221
# %bb.204:                              # %.thread795
                                        #   in Loop: Header=BB15_181 Depth=1
	leaq	128(%rsp), %rax
	movq	%rax, 112(%rsp)
.LBB15_205:                             #   in Loop: Header=BB15_181 Depth=1
	movb	$45, 128(%rsp)
	movl	$1, %ebx
	movl	$1, %r14d
	movq	%rax, %r15
	jmp	.LBB15_295
.LBB15_206:                             # %.lr.ph.i.i221.preheader
                                        #   in Loop: Header=BB15_181 Depth=1
	movl	$4, %ebx
	movabsq	$3777893186295716171, %rsi      # imm = 0x346DC5D63886594B
	.p2align	4, 0x90
.LBB15_207:                             # %.lr.ph.i.i221
                                        #   Parent Loop BB15_181 Depth=1
                                        # =>  This Inner Loop Header: Depth=2
	cmpq	$99, %rcx
	jbe	.LBB15_230
# %bb.208:                              #   in Loop: Header=BB15_207 Depth=2
	cmpq	$999, %rcx                      # imm = 0x3E7
	jbe	.LBB15_231
# %bb.209:                              #   in Loop: Header=BB15_207 Depth=2
	cmpq	$10000, %rcx                    # imm = 0x2710
	jb	.LBB15_232
# %bb.210:                              #   in Loop: Header=BB15_207 Depth=2
	movq	%rcx, %rax
	mulq	%rsi
	shrq	$11, %rdx
	addl	$4, %ebx
	cmpq	$99999, %rcx                    # imm = 0x1869F
	movq	%rdx, %rcx
	ja	.LBB15_207
# %bb.211:                              # %_ZNSt8__detail14__to_chars_lenImEEjT_i.exit.i224.loopexit
                                        #   in Loop: Header=BB15_181 Depth=1
	addl	$-3, %ebx
	jmp	.LBB15_232
.LBB15_212:                             #   in Loop: Header=BB15_181 Depth=1
	movq	%r12, %rdi
	movq	%r15, %rsi
	movq	%r14, %rdx
	callq	memcpy@PLT
.LBB15_213:                             #   in Loop: Header=BB15_181 Depth=1
	movq	%r14, 16(%rsp)
	movb	$0, (%r12,%r14)
	movq	16(%rsp), %r8
	movq	(%rsp), %rcx                    # 8-byte Reload
	movq	8(%rcx), %rsi
	movabsq	$9223372036854775807, %rax      # imm = 0x7FFFFFFFFFFFFFFF
	subq	%rsi, %rax
	cmpq	%r8, %rax
	jb	.LBB15_547
# %bb.214:                              # %_ZNKSt7__cxx1112basic_stringIcSt11char_traitsIcESaIcEE15_M_check_lengthEmmPKc.exit.i.i.i372
                                        #   in Loop: Header=BB15_181 Depth=1
	movq	(%rcx), %rdi
	movl	$15, %eax
	cmpq	40(%rsp), %rdi                  # 8-byte Folded Reload
	leaq	24(%rsp), %r15
	je	.LBB15_216
# %bb.215:                              # %_ZNKSt7__cxx1112basic_stringIcSt11char_traitsIcESaIcEE15_M_check_lengthEmmPKc.exit.i.i.i372
                                        #   in Loop: Header=BB15_181 Depth=1
	movq	40(%rsp), %rax                  # 8-byte Reload
	movq	(%rax), %rax
.LBB15_216:                             # %_ZNKSt7__cxx1112basic_stringIcSt11char_traitsIcESaIcEE15_M_check_lengthEmmPKc.exit.i.i.i372
                                        #   in Loop: Header=BB15_181 Depth=1
	movq	8(%rsp), %rcx
	leaq	(%rsi,%r8), %rbx
	cmpq	%rax, %rbx
	jbe	.LBB15_218
# %bb.217:                              #   in Loop: Header=BB15_181 Depth=1
.Ltmp266:
	movq	(%rsp), %rdi                    # 8-byte Reload
	xorl	%edx, %edx
	callq	_ZNSt7__cxx1112basic_stringIcSt11char_traitsIcESaIcEE9_M_mutateEmmPKcm@PLT
.Ltmp267:
	jmp	.LBB15_228
.LBB15_218:                             #   in Loop: Header=BB15_181 Depth=1
	testq	%r8, %r8
	je	.LBB15_228
# %bb.219:                              #   in Loop: Header=BB15_181 Depth=1
	addq	%rsi, %rdi
	cmpq	$1, %r8
	jne	.LBB15_227
# %bb.220:                              #   in Loop: Header=BB15_181 Depth=1
	movzbl	(%rcx), %eax
	movb	%al, (%rdi)
	jmp	.LBB15_228
.LBB15_221:                             # %.lr.ph.i.i291.preheader
                                        #   in Loop: Header=BB15_181 Depth=1
	movl	$4, %ebx
	.p2align	4, 0x90
.LBB15_222:                             # %.lr.ph.i.i291
                                        #   Parent Loop BB15_181 Depth=1
                                        # =>  This Inner Loop Header: Depth=2
	cmpq	$99, %rcx
	jbe	.LBB15_286
# %bb.223:                              #   in Loop: Header=BB15_222 Depth=2
	cmpq	$999, %rcx                      # imm = 0x3E7
	jbe	.LBB15_287
# %bb.224:                              #   in Loop: Header=BB15_222 Depth=2
	cmpq	$10000, %rcx                    # imm = 0x2710
	jb	.LBB15_288
# %bb.225:                              #   in Loop: Header=BB15_222 Depth=2
	movq	%rcx, %rax
	mulq	%rsi
	shrq	$11, %rdx
	addl	$4, %ebx
	cmpq	$99999, %rcx                    # imm = 0x1869F
	movq	%rdx, %rcx
	ja	.LBB15_222
# %bb.226:                              # %_ZNSt8__detail14__to_chars_lenImEEjT_i.exit.i294.loopexit
                                        #   in Loop: Header=BB15_181 Depth=1
	addl	$-3, %ebx
	jmp	.LBB15_288
.LBB15_227:                             #   in Loop: Header=BB15_181 Depth=1
	movq	%rcx, %rsi
	movq	%r8, %rdx
	callq	memcpy@PLT
	.p2align	4, 0x90
.LBB15_228:                             #   in Loop: Header=BB15_181 Depth=1
	movq	(%rsp), %rax                    # 8-byte Reload
	movq	%rbx, 8(%rax)
	movq	(%rax), %rax
	movb	$0, (%rax,%rbx)
	movq	8(%rsp), %rdi
	cmpq	%r15, %rdi
	je	.LBB15_356
# %bb.229:                              # %_ZNKSt7__cxx1112basic_stringIcSt11char_traitsIcESaIcEE11_M_is_localEv.exit.i.i380
                                        #   in Loop: Header=BB15_181 Depth=1
	movq	24(%rsp), %rsi
	jmp	.LBB15_355
.LBB15_230:                             #   in Loop: Header=BB15_181 Depth=1
	addl	$-2, %ebx
	jmp	.LBB15_232
.LBB15_231:                             #   in Loop: Header=BB15_181 Depth=1
	decl	%ebx
.LBB15_232:                             # %_ZNSt8__detail14__to_chars_lenImEEjT_i.exit.i224
                                        #   in Loop: Header=BB15_181 Depth=1
	movl	%ebx, %r14d
	leaq	128(%rsp), %rax
	movq	%rax, 112(%rsp)
	cmpl	$16, %ebx
	jb	.LBB15_235
# %bb.233:                              # %.noexc.i234
                                        #   in Loop: Header=BB15_181 Depth=1
	leaq	1(%r14), %rdi
.Ltmp310:
	callq	_Znwm@PLT
.Ltmp311:
# %bb.234:                              # %.noexc235
                                        #   in Loop: Header=BB15_181 Depth=1
	movq	%rax, %r15
	movq	%rax, 112(%rsp)
	movq	%r14, 128(%rsp)
	jmp	.LBB15_237
.LBB15_235:                             #   in Loop: Header=BB15_181 Depth=1
	testl	%ebx, %ebx
	je	.LBB15_238
# %bb.236:                              #   in Loop: Header=BB15_181 Depth=1
	movq	%rax, %r15
	cmpl	$1, %ebx
	je	.LBB15_202
.LBB15_237:                             #   in Loop: Header=BB15_181 Depth=1
	movq	%r15, %rdi
	movl	$45, %esi
	movq	%r14, %rdx
	callq	memset@PLT
	jmp	.LBB15_239
.LBB15_238:                             #   in Loop: Header=BB15_181 Depth=1
	leaq	128(%rsp), %r15
	.p2align	4, 0x90
.LBB15_239:                             #   in Loop: Header=BB15_181 Depth=1
	movq	%r14, 120(%rsp)
	movb	$0, (%r15,%r14)
	movq	112(%rsp), %rcx
	movq	144(%rsp), %rsi                 # 8-byte Reload
	movq	%rsi, %rdx
	cmpq	$100, %rsi
	movabsq	$2951479051793528259, %r9       # imm = 0x28F5C28F5C28F5C3
	leaq	.L__const._ZNSt8__detail18__to_chars_10_implIjEEvPcjT_.__digits(%rip), %r10
	jb	.LBB15_242
# %bb.240:                              # %.lr.ph.preheader.i.i230
                                        #   in Loop: Header=BB15_181 Depth=1
	addl	$-2, %ebx
	.p2align	4, 0x90
.LBB15_241:                             # %.lr.ph.i13.i231
                                        #   Parent Loop BB15_181 Depth=1
                                        # =>  This Inner Loop Header: Depth=2
	leal	1(%rbx), %edi
	movq	%rsi, %rax
	shrq	$2, %rax
	mulq	%r9
	shrq	$2, %rdx
	imull	$100, %edx, %eax
	movl	%esi, %r8d
	subl	%eax, %r8d
	movzbl	(%r10,%r8,2), %eax
	movzbl	1(%r10,%r8,2), %r8d
	movb	%r8b, (%rcx,%rdi)
	movl	%ebx, %edi
	movb	%al, (%rcx,%rdi)
	addl	$-2, %ebx
	cmpq	$9999, %rsi                     # imm = 0x270F
	movq	%rdx, %rsi
	ja	.LBB15_241
.LBB15_242:                             # %._crit_edge.i.i227
                                        #   in Loop: Header=BB15_181 Depth=1
	cmpq	$10, %rdx
	jb	.LBB15_244
# %bb.243:                              #   in Loop: Header=BB15_181 Depth=1
	movzbl	(%r10,%rdx,2), %eax
	movzbl	1(%r10,%rdx,2), %edx
	movb	%dl, 1(%rcx)
	jmp	.LBB15_245
.LBB15_244:                             #   in Loop: Header=BB15_181 Depth=1
	orb	$48, %dl
	movl	%edx, %eax
.LBB15_245:                             #   in Loop: Header=BB15_181 Depth=1
	movb	%al, (%rcx)
	movq	120(%rsp), %r13
	movabsq	$9223372036854775807, %rax      # imm = 0x7FFFFFFFFFFFFFFF
	addq	$-29, %rax
	cmpq	%rax, %r13
	jg	.LBB15_558
# %bb.246:                              # %_ZNKSt7__cxx1112basic_stringIcSt11char_traitsIcESaIcEE15_M_check_lengthEmmPKc.exit.i833
                                        #   in Loop: Header=BB15_181 Depth=1
	leaq	29(%r13), %rbx
	movq	112(%rsp), %r14
	leaq	128(%rsp), %rax
	cmpq	%rax, %r14
	je	.LBB15_249
# %bb.247:                              # %_ZNKSt7__cxx1112basic_stringIcSt11char_traitsIcESaIcEE8capacityEv.exit.i834.thread
                                        #   in Loop: Header=BB15_181 Depth=1
	movq	128(%rsp), %r15
	movq	%r15, %rax
	cmpq	%r15, %rbx
	jbe	.LBB15_259
# %bb.248:                              # %_ZNKSt7__cxx1112basic_stringIcSt11char_traitsIcESaIcEE8capacityEv.exit.i897
                                        #   in Loop: Header=BB15_181 Depth=1
	cmpq	$-29, %r13
	jge	.LBB15_251
	jmp	.LBB15_557
.LBB15_249:                             # %_ZNKSt7__cxx1112basic_stringIcSt11char_traitsIcESaIcEE8capacityEv.exit.i834
                                        #   in Loop: Header=BB15_181 Depth=1
	cmpq	$15, %rbx
	jbe	.LBB15_259
# %bb.250:                              #   in Loop: Header=BB15_181 Depth=1
	movl	$15, %eax
	movq	128(%rsp), %r15
	cmpq	$-29, %r13
	jl	.LBB15_557
.LBB15_251:                             #   in Loop: Header=BB15_181 Depth=1
	addq	%rax, %rax
	movabsq	$9223372036854775807, %rbp      # imm = 0x7FFFFFFFFFFFFFFF
	cmpq	%rbp, %rax
	cmovbq	%rax, %rbp
	cmpq	%rax, %rbx
	cmovaeq	%rbx, %rbp
	movq	%rbp, %rdi
	incq	%rdi
	js	.LBB15_521
# %bb.252:                              # %_ZNSt7__cxx1112basic_stringIcSt11char_traitsIcESaIcEE9_M_createERmm.exit.i899
                                        #   in Loop: Header=BB15_181 Depth=1
.Ltmp315:
	callq	_Znwm@PLT
.Ltmp316:
# %bb.253:                              # %.noexc908
                                        #   in Loop: Header=BB15_181 Depth=1
	movq	%rax, %r12
	movups	.L.str.20+13(%rip), %xmm0
	movups	%xmm0, 13(%rax)
	movups	.L.str.20(%rip), %xmm0
	movups	%xmm0, (%rax)
	testq	%r13, %r13
	je	.LBB15_256
# %bb.254:                              #   in Loop: Header=BB15_181 Depth=1
	movq	%r12, %rdi
	addq	$29, %rdi
	cmpq	$1, %r13
	jne	.LBB15_285
# %bb.255:                              #   in Loop: Header=BB15_181 Depth=1
	movzbl	(%r14), %eax
	movb	%al, (%rdi)
.LBB15_256:                             # %_ZNSt7__cxx1112basic_stringIcSt11char_traitsIcESaIcEE7_S_copyEPcPKcm.exit27.i902
                                        #   in Loop: Header=BB15_181 Depth=1
	leaq	128(%rsp), %rax
	cmpq	%rax, %r14
	je	.LBB15_258
.LBB15_257:                             # %_ZNKSt7__cxx1112basic_stringIcSt11char_traitsIcESaIcEE11_M_is_localEv.exit.i.i903
                                        #   in Loop: Header=BB15_181 Depth=1
	incq	%r15
	movq	%r14, %rdi
	movq	%r15, %rsi
	callq	_ZdlPvm@PLT
.LBB15_258:                             # %.noexc842
                                        #   in Loop: Header=BB15_181 Depth=1
	movq	%r12, 112(%rsp)
	movq	%rbp, 128(%rsp)
	jmp	.LBB15_265
.LBB15_259:                             #   in Loop: Header=BB15_181 Depth=1
	leaq	.L.str.20(%rip), %rdx
	cmpq	%rdx, %r14
	seta	%al
	leaq	(%r14,%r13), %rcx
	cmpq	%rdx, %rcx
	setb	%cl
	orb	%al, %cl
	cmpb	$1, %cl
	jne	.LBB15_359
# %bb.260:                              #   in Loop: Header=BB15_181 Depth=1
	testq	%r13, %r13
	je	.LBB15_264
# %bb.261:                              #   in Loop: Header=BB15_181 Depth=1
	cmpq	$1, %r13
	jne	.LBB15_263
# %bb.262:                              #   in Loop: Header=BB15_181 Depth=1
	movzbl	(%r14), %eax
	movb	%al, 29(%r14)
	jmp	.LBB15_264
.LBB15_263:                             #   in Loop: Header=BB15_181 Depth=1
	leaq	29(%r14), %rdi
	movq	%r14, %rsi
	movq	%r13, %rdx
	callq	memmove@PLT
.LBB15_264:                             # %_ZNSt7__cxx1112basic_stringIcSt11char_traitsIcESaIcEE7_S_moveEPcPKcm.exit.i839
                                        #   in Loop: Header=BB15_181 Depth=1
	movups	.L.str.20+13(%rip), %xmm0
	movups	%xmm0, 13(%r14)
	movups	.L.str.20(%rip), %xmm0
	movups	%xmm0, (%r14)
.LBB15_265:                             # %.noexc240
                                        #   in Loop: Header=BB15_181 Depth=1
	movq	%rbx, 120(%rsp)
	movq	112(%rsp), %rax
	movb	$0, (%rax,%rbx)
	leaq	96(%rsp), %r15
	movq	%r15, 80(%rsp)
	movq	112(%rsp), %rax
	leaq	128(%rsp), %rsi
	cmpq	%rsi, %rax
	je	.LBB15_269
# %bb.266:                              #   in Loop: Header=BB15_181 Depth=1
	movq	%rax, 80(%rsp)
	movq	120(%rsp), %r14
	movq	120(%rsp), %rcx
	movq	%rcx, 88(%rsp)
	movq	128(%rsp), %rcx
	movq	%rcx, 96(%rsp)
	movq	%rsi, 112(%rsp)
	movq	$0, 120(%rsp)
	movb	$0, 128(%rsp)
	movabsq	$9223372036854775807, %rcx      # imm = 0x7FFFFFFFFFFFFFFF
	addq	$-3, %rcx
	cmpq	%rcx, %r14
	jg	.LBB15_551
# %bb.267:                              # %_ZNKSt7__cxx1112basic_stringIcSt11char_traitsIcESaIcEE15_M_check_lengthEmmPKc.exit.i.i242
                                        #   in Loop: Header=BB15_181 Depth=1
	leaq	3(%r14), %rbx
	leaq	96(%rsp), %rcx
	cmpq	%rcx, %rax
	leaq	24(%rsp), %r15
	je	.LBB15_270
# %bb.268:                              #   in Loop: Header=BB15_181 Depth=1
	xorl	%ecx, %ecx
	movl	$15, %edx
	testb	%cl, %cl
	je	.LBB15_271
	jmp	.LBB15_272
.LBB15_269:                             # %_ZNKSt7__cxx1112basic_stringIcSt11char_traitsIcESaIcEE15_M_check_lengthEmmPKc.exit.i.i242.thread
                                        #   in Loop: Header=BB15_181 Depth=1
	movq	120(%rsp), %r14
	leaq	1(%r14), %rdx
	movq	%r15, %rdi
	callq	memcpy@PLT
	movq	%r14, 88(%rsp)
	movq	$0, 120(%rsp)
	movb	$0, 128(%rsp)
	leaq	3(%r14), %rbx
	movq	%r15, %rax
	leaq	24(%rsp), %r15
.LBB15_270:                             #   in Loop: Header=BB15_181 Depth=1
	movb	$1, %cl
	movl	$15, %edx
	testb	%cl, %cl
	jne	.LBB15_272
.LBB15_271:                             # %_ZNKSt7__cxx1112basic_stringIcSt11char_traitsIcESaIcEE8capacityEv.exit.i.i.i243
                                        #   in Loop: Header=BB15_181 Depth=1
	movq	96(%rsp), %rdx
.LBB15_272:                             # %_ZNKSt7__cxx1112basic_stringIcSt11char_traitsIcESaIcEE8capacityEv.exit.i.i.i243
                                        #   in Loop: Header=BB15_181 Depth=1
	cmpq	%rdx, %rbx
	jbe	.LBB15_274
# %bb.273:                              #   in Loop: Header=BB15_181 Depth=1
.Ltmp321:
	movl	$3, %r8d
	leaq	80(%rsp), %rdi
	movq	%r14, %rsi
	xorl	%edx, %edx
	leaq	.L.str.21(%rip), %rcx
	callq	_ZNSt7__cxx1112basic_stringIcSt11char_traitsIcESaIcEE9_M_mutateEmmPKcm@PLT
.Ltmp322:
	jmp	.LBB15_275
.LBB15_274:                             #   in Loop: Header=BB15_181 Depth=1
	movb	$32, 2(%rax,%r14)
	movw	$14941, (%rax,%r14)             # imm = 0x3A5D
.LBB15_275:                             # %_ZNSt7__cxx1112basic_stringIcSt11char_traitsIcESaIcEE6appendEPKc.exit.i247
                                        #   in Loop: Header=BB15_181 Depth=1
	movq	%rbx, 88(%rsp)
	movq	80(%rsp), %rax
	movb	$0, (%rax,%rbx)
	leaq	64(%rsp), %rdi
	movq	%rdi, 48(%rsp)
	movq	80(%rsp), %rax
	leaq	96(%rsp), %r14
	cmpq	%r14, %rax
	je	.LBB15_277
# %bb.276:                              # %_ZNKSt7__cxx1112basic_stringIcSt11char_traitsIcESaIcEE11_M_is_localEv.exit.i.i248
                                        #   in Loop: Header=BB15_181 Depth=1
	movq	%rax, 48(%rsp)
	movq	88(%rsp), %rbx
	movq	96(%rsp), %rax
	movq	%rax, 64(%rsp)
	jmp	.LBB15_278
.LBB15_277:                             #   in Loop: Header=BB15_181 Depth=1
	movq	88(%rsp), %rbx
	leaq	1(%rbx), %rdx
	movq	%r14, %rsi
	callq	memcpy@PLT
.LBB15_278:                             #   in Loop: Header=BB15_181 Depth=1
	movq	%rbx, 56(%rsp)
	movq	%r14, 80(%rsp)
	movq	$0, 88(%rsp)
	movb	$0, 96(%rsp)
.Ltmp324:
	leaq	208(%rsp), %rbx
	movq	%rbx, %rdi
	callq	_ZN8pybind116detail12error_stringB5cxx11Ev
.Ltmp325:
# %bb.279:                              #   in Loop: Header=BB15_181 Depth=1
.Ltmp327:
	leaq	8(%rsp), %rdi
	leaq	48(%rsp), %rsi
	movq	%rbx, %rdx
	callq	_ZStplIcSt11char_traitsIcESaIcEENSt7__cxx1112basic_stringIT_T0_T1_EEOS8_S9_@PLT
.Ltmp328:
# %bb.280:                              #   in Loop: Header=BB15_181 Depth=1
	movq	16(%rsp), %r8
	movq	(%rsp), %rcx                    # 8-byte Reload
	movq	8(%rcx), %rsi
	movabsq	$9223372036854775807, %rax      # imm = 0x7FFFFFFFFFFFFFFF
	subq	%rsi, %rax
	cmpq	%r8, %rax
	jb	.LBB15_549
# %bb.281:                              # %_ZNKSt7__cxx1112basic_stringIcSt11char_traitsIcESaIcEE15_M_check_lengthEmmPKc.exit.i.i.i253
                                        #   in Loop: Header=BB15_181 Depth=1
	movq	(%rcx), %rdi
	movl	$15, %eax
	cmpq	40(%rsp), %rdi                  # 8-byte Folded Reload
	je	.LBB15_283
# %bb.282:                              # %_ZNKSt7__cxx1112basic_stringIcSt11char_traitsIcESaIcEE15_M_check_lengthEmmPKc.exit.i.i.i253
                                        #   in Loop: Header=BB15_181 Depth=1
	movq	40(%rsp), %rax                  # 8-byte Reload
	movq	(%rax), %rax
.LBB15_283:                             # %_ZNKSt7__cxx1112basic_stringIcSt11char_traitsIcESaIcEE15_M_check_lengthEmmPKc.exit.i.i.i253
                                        #   in Loop: Header=BB15_181 Depth=1
	movq	8(%rsp), %rcx
	leaq	(%rsi,%r8), %rbx
	cmpq	%rax, %rbx
	jbe	.LBB15_341
# %bb.284:                              #   in Loop: Header=BB15_181 Depth=1
.Ltmp330:
	movq	(%rsp), %rdi                    # 8-byte Reload
	xorl	%edx, %edx
	callq	_ZNSt7__cxx1112basic_stringIcSt11char_traitsIcESaIcEE9_M_mutateEmmPKcm@PLT
.Ltmp331:
	jmp	.LBB15_345
.LBB15_285:                             #   in Loop: Header=BB15_181 Depth=1
	movq	%r14, %rsi
	movq	%r13, %rdx
	callq	memcpy@PLT
	leaq	128(%rsp), %rax
	cmpq	%rax, %r14
	jne	.LBB15_257
	jmp	.LBB15_258
.LBB15_286:                             #   in Loop: Header=BB15_181 Depth=1
	addl	$-2, %ebx
	jmp	.LBB15_288
.LBB15_287:                             #   in Loop: Header=BB15_181 Depth=1
	decl	%ebx
.LBB15_288:                             # %_ZNSt8__detail14__to_chars_lenImEEjT_i.exit.i294
                                        #   in Loop: Header=BB15_181 Depth=1
	movl	%ebx, %r14d
	leaq	128(%rsp), %rax
	movq	%rax, 112(%rsp)
	cmpl	$16, %ebx
	jb	.LBB15_291
# %bb.289:                              # %.noexc.i304
                                        #   in Loop: Header=BB15_181 Depth=1
	leaq	1(%r14), %rdi
.Ltmp279:
	callq	_Znwm@PLT
.Ltmp280:
# %bb.290:                              # %.noexc305
                                        #   in Loop: Header=BB15_181 Depth=1
	movq	%rax, %r15
	movq	%rax, 112(%rsp)
	movq	%r14, 128(%rsp)
	jmp	.LBB15_293
.LBB15_291:                             #   in Loop: Header=BB15_181 Depth=1
	testl	%ebx, %ebx
	je	.LBB15_294
# %bb.292:                              #   in Loop: Header=BB15_181 Depth=1
	movq	%rax, %r15
	cmpl	$1, %ebx
	je	.LBB15_205
.LBB15_293:                             #   in Loop: Header=BB15_181 Depth=1
	movq	%r15, %rdi
	movl	$45, %esi
	movq	%r14, %rdx
	callq	memset@PLT
	jmp	.LBB15_295
.LBB15_294:                             #   in Loop: Header=BB15_181 Depth=1
	leaq	128(%rsp), %r15
	.p2align	4, 0x90
.LBB15_295:                             #   in Loop: Header=BB15_181 Depth=1
	movq	%r14, 120(%rsp)
	movb	$0, (%r15,%r14)
	movq	112(%rsp), %rcx
	movq	144(%rsp), %rsi                 # 8-byte Reload
	movq	%rsi, %rdx
	cmpq	$100, %rsi
	movabsq	$2951479051793528259, %r9       # imm = 0x28F5C28F5C28F5C3
	leaq	.L__const._ZNSt8__detail18__to_chars_10_implIjEEvPcjT_.__digits(%rip), %r10
	jb	.LBB15_298
# %bb.296:                              # %.lr.ph.preheader.i.i300
                                        #   in Loop: Header=BB15_181 Depth=1
	addl	$-2, %ebx
	.p2align	4, 0x90
.LBB15_297:                             # %.lr.ph.i13.i301
                                        #   Parent Loop BB15_181 Depth=1
                                        # =>  This Inner Loop Header: Depth=2
	leal	1(%rbx), %edi
	movq	%rsi, %rax
	shrq	$2, %rax
	mulq	%r9
	shrq	$2, %rdx
	imull	$100, %edx, %eax
	movl	%esi, %r8d
	subl	%eax, %r8d
	movzbl	(%r10,%r8,2), %eax
	movzbl	1(%r10,%r8,2), %r8d
	movb	%r8b, (%rcx,%rdi)
	movl	%ebx, %edi
	movb	%al, (%rcx,%rdi)
	addl	$-2, %ebx
	cmpq	$9999, %rsi                     # imm = 0x270F
	movq	%rdx, %rsi
	ja	.LBB15_297
.LBB15_298:                             # %._crit_edge.i.i297
                                        #   in Loop: Header=BB15_181 Depth=1
	cmpq	$10, %rdx
	jb	.LBB15_300
# %bb.299:                              #   in Loop: Header=BB15_181 Depth=1
	movzbl	(%r10,%rdx,2), %eax
	movzbl	1(%r10,%rdx,2), %edx
	movb	%dl, 1(%rcx)
	jmp	.LBB15_301
.LBB15_300:                             #   in Loop: Header=BB15_181 Depth=1
	orb	$48, %dl
	movl	%edx, %eax
.LBB15_301:                             #   in Loop: Header=BB15_181 Depth=1
	movb	%al, (%rcx)
	movq	120(%rsp), %r13
	movabsq	$9223372036854775807, %rax      # imm = 0x7FFFFFFFFFFFFFFF
	addq	$-30, %rax
	cmpq	%rax, %r13
	jg	.LBB15_567
# %bb.302:                              # %_ZNKSt7__cxx1112basic_stringIcSt11char_traitsIcESaIcEE15_M_check_lengthEmmPKc.exit.i844
                                        #   in Loop: Header=BB15_181 Depth=1
	leaq	30(%r13), %rbx
	movq	112(%rsp), %r14
	leaq	128(%rsp), %rax
	cmpq	%rax, %r14
	je	.LBB15_305
# %bb.303:                              # %_ZNKSt7__cxx1112basic_stringIcSt11char_traitsIcESaIcEE8capacityEv.exit.i845.thread
                                        #   in Loop: Header=BB15_181 Depth=1
	movq	128(%rsp), %r15
	movq	%r15, %rax
	cmpq	%r15, %rbx
	jbe	.LBB15_315
# %bb.304:                              # %_ZNKSt7__cxx1112basic_stringIcSt11char_traitsIcESaIcEE8capacityEv.exit.i910
                                        #   in Loop: Header=BB15_181 Depth=1
	cmpq	$-30, %r13
	jge	.LBB15_307
	jmp	.LBB15_566
.LBB15_305:                             # %_ZNKSt7__cxx1112basic_stringIcSt11char_traitsIcESaIcEE8capacityEv.exit.i845
                                        #   in Loop: Header=BB15_181 Depth=1
	cmpq	$15, %rbx
	jbe	.LBB15_315
# %bb.306:                              #   in Loop: Header=BB15_181 Depth=1
	movl	$15, %eax
	movq	128(%rsp), %r15
	cmpq	$-30, %r13
	jl	.LBB15_566
.LBB15_307:                             #   in Loop: Header=BB15_181 Depth=1
	addq	%rax, %rax
	movabsq	$9223372036854775807, %rbp      # imm = 0x7FFFFFFFFFFFFFFF
	cmpq	%rbp, %rax
	cmovbq	%rax, %rbp
	cmpq	%rax, %rbx
	cmovaeq	%rbx, %rbp
	movq	%rbp, %rdi
	incq	%rdi
	js	.LBB15_523
# %bb.308:                              # %_ZNSt7__cxx1112basic_stringIcSt11char_traitsIcESaIcEE9_M_createERmm.exit.i912
                                        #   in Loop: Header=BB15_181 Depth=1
.Ltmp284:
	callq	_Znwm@PLT
.Ltmp285:
# %bb.309:                              # %.noexc921
                                        #   in Loop: Header=BB15_181 Depth=1
	movq	%rax, %r12
	movups	.L.str.22+14(%rip), %xmm0
	movups	%xmm0, 14(%rax)
	movups	.L.str.22(%rip), %xmm0
	movups	%xmm0, (%rax)
	testq	%r13, %r13
	je	.LBB15_312
# %bb.310:                              #   in Loop: Header=BB15_181 Depth=1
	movq	%r12, %rdi
	addq	$30, %rdi
	cmpq	$1, %r13
	jne	.LBB15_358
# %bb.311:                              #   in Loop: Header=BB15_181 Depth=1
	movzbl	(%r14), %eax
	movb	%al, (%rdi)
.LBB15_312:                             # %_ZNSt7__cxx1112basic_stringIcSt11char_traitsIcESaIcEE7_S_copyEPcPKcm.exit27.i915
                                        #   in Loop: Header=BB15_181 Depth=1
	leaq	128(%rsp), %rax
	cmpq	%rax, %r14
	je	.LBB15_314
.LBB15_313:                             # %_ZNKSt7__cxx1112basic_stringIcSt11char_traitsIcESaIcEE11_M_is_localEv.exit.i.i916
                                        #   in Loop: Header=BB15_181 Depth=1
	incq	%r15
	movq	%r14, %rdi
	movq	%r15, %rsi
	callq	_ZdlPvm@PLT
.LBB15_314:                             # %.noexc853
                                        #   in Loop: Header=BB15_181 Depth=1
	movq	%r12, 112(%rsp)
	movq	%rbp, 128(%rsp)
	jmp	.LBB15_321
.LBB15_315:                             #   in Loop: Header=BB15_181 Depth=1
	leaq	.L.str.22(%rip), %rdx
	cmpq	%rdx, %r14
	seta	%al
	leaq	(%r14,%r13), %rcx
	cmpq	%rdx, %rcx
	setb	%cl
	orb	%al, %cl
	cmpb	$1, %cl
	jne	.LBB15_360
# %bb.316:                              #   in Loop: Header=BB15_181 Depth=1
	testq	%r13, %r13
	je	.LBB15_320
# %bb.317:                              #   in Loop: Header=BB15_181 Depth=1
	cmpq	$1, %r13
	jne	.LBB15_319
# %bb.318:                              #   in Loop: Header=BB15_181 Depth=1
	movzbl	(%r14), %eax
	movb	%al, 30(%r14)
	jmp	.LBB15_320
.LBB15_319:                             #   in Loop: Header=BB15_181 Depth=1
	leaq	30(%r14), %rdi
	movq	%r14, %rsi
	movq	%r13, %rdx
	callq	memmove@PLT
.LBB15_320:                             # %_ZNSt7__cxx1112basic_stringIcSt11char_traitsIcESaIcEE7_S_moveEPcPKcm.exit.i850
                                        #   in Loop: Header=BB15_181 Depth=1
	movups	.L.str.22+14(%rip), %xmm0
	movups	%xmm0, 14(%r14)
	movups	.L.str.22(%rip), %xmm0
	movups	%xmm0, (%r14)
.LBB15_321:                             # %.noexc310
                                        #   in Loop: Header=BB15_181 Depth=1
	movq	%rbx, 120(%rsp)
	movq	112(%rsp), %rax
	movb	$0, (%rax,%rbx)
	leaq	96(%rsp), %r15
	movq	%r15, 80(%rsp)
	movq	112(%rsp), %rax
	leaq	128(%rsp), %rsi
	cmpq	%rsi, %rax
	je	.LBB15_325
# %bb.322:                              #   in Loop: Header=BB15_181 Depth=1
	movq	%rax, 80(%rsp)
	movq	120(%rsp), %r14
	movq	120(%rsp), %rcx
	movq	%rcx, 88(%rsp)
	movq	128(%rsp), %rcx
	movq	%rcx, 96(%rsp)
	movq	%rsi, 112(%rsp)
	movq	$0, 120(%rsp)
	movb	$0, 128(%rsp)
	movabsq	$9223372036854775807, %rcx      # imm = 0x7FFFFFFFFFFFFFFF
	addq	$-3, %rcx
	cmpq	%rcx, %r14
	jg	.LBB15_560
# %bb.323:                              # %_ZNKSt7__cxx1112basic_stringIcSt11char_traitsIcESaIcEE15_M_check_lengthEmmPKc.exit.i.i312
                                        #   in Loop: Header=BB15_181 Depth=1
	leaq	3(%r14), %rbx
	leaq	96(%rsp), %rcx
	cmpq	%rcx, %rax
	leaq	24(%rsp), %r15
	je	.LBB15_326
# %bb.324:                              #   in Loop: Header=BB15_181 Depth=1
	xorl	%ecx, %ecx
	movl	$15, %edx
	testb	%cl, %cl
	je	.LBB15_327
	jmp	.LBB15_328
.LBB15_325:                             # %_ZNKSt7__cxx1112basic_stringIcSt11char_traitsIcESaIcEE15_M_check_lengthEmmPKc.exit.i.i312.thread
                                        #   in Loop: Header=BB15_181 Depth=1
	movq	120(%rsp), %r14
	leaq	1(%r14), %rdx
	movq	%r15, %rdi
	callq	memcpy@PLT
	movq	%r14, 88(%rsp)
	movq	$0, 120(%rsp)
	movb	$0, 128(%rsp)
	leaq	3(%r14), %rbx
	movq	%r15, %rax
	leaq	24(%rsp), %r15
.LBB15_326:                             #   in Loop: Header=BB15_181 Depth=1
	movb	$1, %cl
	movl	$15, %edx
	testb	%cl, %cl
	jne	.LBB15_328
.LBB15_327:                             # %_ZNKSt7__cxx1112basic_stringIcSt11char_traitsIcESaIcEE8capacityEv.exit.i.i.i313
                                        #   in Loop: Header=BB15_181 Depth=1
	movq	96(%rsp), %rdx
.LBB15_328:                             # %_ZNKSt7__cxx1112basic_stringIcSt11char_traitsIcESaIcEE8capacityEv.exit.i.i.i313
                                        #   in Loop: Header=BB15_181 Depth=1
	cmpq	%rdx, %rbx
	jbe	.LBB15_330
# %bb.329:                              #   in Loop: Header=BB15_181 Depth=1
.Ltmp290:
	movl	$3, %r8d
	leaq	80(%rsp), %rdi
	movq	%r14, %rsi
	xorl	%edx, %edx
	leaq	.L.str.21(%rip), %rcx
	callq	_ZNSt7__cxx1112basic_stringIcSt11char_traitsIcESaIcEE9_M_mutateEmmPKcm@PLT
.Ltmp291:
	jmp	.LBB15_331
.LBB15_330:                             #   in Loop: Header=BB15_181 Depth=1
	movb	$32, 2(%rax,%r14)
	movw	$14941, (%rax,%r14)             # imm = 0x3A5D
.LBB15_331:                             # %_ZNSt7__cxx1112basic_stringIcSt11char_traitsIcESaIcEE6appendEPKc.exit.i317
                                        #   in Loop: Header=BB15_181 Depth=1
	movq	%rbx, 88(%rsp)
	movq	80(%rsp), %rax
	movb	$0, (%rax,%rbx)
	leaq	64(%rsp), %rdi
	movq	%rdi, 48(%rsp)
	movq	80(%rsp), %rax
	leaq	96(%rsp), %r14
	cmpq	%r14, %rax
	je	.LBB15_333
# %bb.332:                              # %_ZNKSt7__cxx1112basic_stringIcSt11char_traitsIcESaIcEE11_M_is_localEv.exit.i.i318
                                        #   in Loop: Header=BB15_181 Depth=1
	movq	%rax, 48(%rsp)
	movq	88(%rsp), %rbx
	movq	96(%rsp), %rax
	movq	%rax, 64(%rsp)
	jmp	.LBB15_334
.LBB15_333:                             #   in Loop: Header=BB15_181 Depth=1
	movq	88(%rsp), %rbx
	leaq	1(%rbx), %rdx
	movq	%r14, %rsi
	callq	memcpy@PLT
.LBB15_334:                             #   in Loop: Header=BB15_181 Depth=1
	movq	%rbx, 56(%rsp)
	movq	%r14, 80(%rsp)
	movq	$0, 88(%rsp)
	movb	$0, 96(%rsp)
.Ltmp293:
	leaq	208(%rsp), %rbx
	movq	%rbx, %rdi
	callq	_ZN8pybind116detail12error_stringB5cxx11Ev
.Ltmp294:
# %bb.335:                              #   in Loop: Header=BB15_181 Depth=1
.Ltmp296:
	leaq	8(%rsp), %rdi
	leaq	48(%rsp), %rsi
	movq	%rbx, %rdx
	callq	_ZStplIcSt11char_traitsIcESaIcEENSt7__cxx1112basic_stringIT_T0_T1_EEOS8_S9_@PLT
.Ltmp297:
# %bb.336:                              #   in Loop: Header=BB15_181 Depth=1
	movq	16(%rsp), %r8
	movq	(%rsp), %rcx                    # 8-byte Reload
	movq	8(%rcx), %rsi
	movabsq	$9223372036854775807, %rax      # imm = 0x7FFFFFFFFFFFFFFF
	subq	%rsi, %rax
	cmpq	%r8, %rax
	jb	.LBB15_553
# %bb.337:                              # %_ZNKSt7__cxx1112basic_stringIcSt11char_traitsIcESaIcEE15_M_check_lengthEmmPKc.exit.i.i.i323
                                        #   in Loop: Header=BB15_181 Depth=1
	movq	(%rcx), %rdi
	movl	$15, %eax
	cmpq	40(%rsp), %rdi                  # 8-byte Folded Reload
	je	.LBB15_339
# %bb.338:                              # %_ZNKSt7__cxx1112basic_stringIcSt11char_traitsIcESaIcEE15_M_check_lengthEmmPKc.exit.i.i.i323
                                        #   in Loop: Header=BB15_181 Depth=1
	movq	40(%rsp), %rax                  # 8-byte Reload
	movq	(%rax), %rax
.LBB15_339:                             # %_ZNKSt7__cxx1112basic_stringIcSt11char_traitsIcESaIcEE15_M_check_lengthEmmPKc.exit.i.i.i323
                                        #   in Loop: Header=BB15_181 Depth=1
	movq	8(%rsp), %rcx
	leaq	(%rsi,%r8), %rbx
	cmpq	%rax, %rbx
	jbe	.LBB15_341
# %bb.340:                              #   in Loop: Header=BB15_181 Depth=1
.Ltmp299:
	movq	(%rsp), %rdi                    # 8-byte Reload
	xorl	%edx, %edx
	callq	_ZNSt7__cxx1112basic_stringIcSt11char_traitsIcESaIcEE9_M_mutateEmmPKcm@PLT
.Ltmp300:
	jmp	.LBB15_345
	.p2align	4, 0x90
.LBB15_341:                             #   in Loop: Header=BB15_181 Depth=1
	testq	%r8, %r8
	je	.LBB15_345
# %bb.342:                              #   in Loop: Header=BB15_181 Depth=1
	addq	%rsi, %rdi
	cmpq	$1, %r8
	jne	.LBB15_344
# %bb.343:                              #   in Loop: Header=BB15_181 Depth=1
	movzbl	(%rcx), %eax
	movb	%al, (%rdi)
	jmp	.LBB15_345
.LBB15_344:                             #   in Loop: Header=BB15_181 Depth=1
	movq	%rcx, %rsi
	movq	%r8, %rdx
	callq	memcpy@PLT
	.p2align	4, 0x90
.LBB15_345:                             #   in Loop: Header=BB15_181 Depth=1
	movq	(%rsp), %rax                    # 8-byte Reload
	movq	%rbx, 8(%rax)
	movq	(%rax), %rax
	movb	$0, (%rax,%rbx)
	movq	8(%rsp), %rdi
	leaq	24(%rsp), %rax
	cmpq	%rax, %rdi
	je	.LBB15_347
# %bb.346:                              # %_ZNKSt7__cxx1112basic_stringIcSt11char_traitsIcESaIcEE11_M_is_localEv.exit.i.i261
                                        #   in Loop: Header=BB15_181 Depth=1
	movq	24(%rsp), %rsi
	incq	%rsi
	callq	_ZdlPvm@PLT
.LBB15_347:                             # %_ZNSt7__cxx1112basic_stringIcSt11char_traitsIcESaIcEED2Ev.exit263
                                        #   in Loop: Header=BB15_181 Depth=1
	movq	208(%rsp), %rdi
	leaq	224(%rsp), %rax
	cmpq	%rax, %rdi
	je	.LBB15_349
# %bb.348:                              # %_ZNKSt7__cxx1112basic_stringIcSt11char_traitsIcESaIcEE11_M_is_localEv.exit.i.i264
                                        #   in Loop: Header=BB15_181 Depth=1
	movq	224(%rsp), %rsi
	incq	%rsi
	callq	_ZdlPvm@PLT
.LBB15_349:                             # %_ZNSt7__cxx1112basic_stringIcSt11char_traitsIcESaIcEED2Ev.exit266
                                        #   in Loop: Header=BB15_181 Depth=1
	movq	48(%rsp), %rdi
	leaq	64(%rsp), %rax
	cmpq	%rax, %rdi
	je	.LBB15_351
# %bb.350:                              # %_ZNKSt7__cxx1112basic_stringIcSt11char_traitsIcESaIcEE11_M_is_localEv.exit.i.i267
                                        #   in Loop: Header=BB15_181 Depth=1
	movq	64(%rsp), %rsi
	incq	%rsi
	callq	_ZdlPvm@PLT
.LBB15_351:                             # %_ZNSt7__cxx1112basic_stringIcSt11char_traitsIcESaIcEED2Ev.exit269
                                        #   in Loop: Header=BB15_181 Depth=1
	movq	80(%rsp), %rdi
	leaq	96(%rsp), %rax
	cmpq	%rax, %rdi
	je	.LBB15_353
# %bb.352:                              # %_ZNKSt7__cxx1112basic_stringIcSt11char_traitsIcESaIcEE11_M_is_localEv.exit.i.i270
                                        #   in Loop: Header=BB15_181 Depth=1
	movq	96(%rsp), %rsi
	incq	%rsi
	callq	_ZdlPvm@PLT
.LBB15_353:                             # %_ZNSt7__cxx1112basic_stringIcSt11char_traitsIcESaIcEED2Ev.exit272
                                        #   in Loop: Header=BB15_181 Depth=1
	movq	112(%rsp), %rdi
	leaq	128(%rsp), %rax
	cmpq	%rax, %rdi
	je	.LBB15_356
# %bb.354:                              # %_ZNKSt7__cxx1112basic_stringIcSt11char_traitsIcESaIcEE11_M_is_localEv.exit.i.i273
                                        #   in Loop: Header=BB15_181 Depth=1
	movq	128(%rsp), %rsi
.LBB15_355:                             #   in Loop: Header=BB15_181 Depth=1
	incq	%rsi
	callq	_ZdlPvm@PLT
.LBB15_356:                             #   in Loop: Header=BB15_181 Depth=1
.Ltmp333:
	leaq	264(%rsp), %rdi
	callq	_ZNKR8pybind116handle7dec_refEv
.Ltmp334:
# %bb.357:                              # %_ZN8pybind116objectD2Ev.exit386
                                        #   in Loop: Header=BB15_181 Depth=1
	movq	144(%rsp), %rcx                 # 8-byte Reload
	incq	%rcx
	movq	%rcx, 144(%rsp)                 # 8-byte Spill
	cmpq	184(%rsp), %rcx                 # 8-byte Folded Reload
	jne	.LBB15_181
	jmp	.LBB15_379
.LBB15_358:                             #   in Loop: Header=BB15_181 Depth=1
	movq	%r14, %rsi
	movq	%r13, %rdx
	callq	memcpy@PLT
	leaq	128(%rsp), %rax
	cmpq	%rax, %r14
	jne	.LBB15_313
	jmp	.LBB15_314
.LBB15_359:                             #   in Loop: Header=BB15_181 Depth=1
.Ltmp313:
	movl	$29, %r8d
	leaq	112(%rsp), %rdi
	movq	%r14, %rsi
	xorl	%edx, %edx
	leaq	.L.str.20(%rip), %rcx
	movq	%r13, %r9
	callq	_ZNSt7__cxx1112basic_stringIcSt11char_traitsIcESaIcEE15_M_replace_coldEPcmPKcmm@PLT
.Ltmp314:
	jmp	.LBB15_265
.LBB15_360:                             #   in Loop: Header=BB15_181 Depth=1
.Ltmp282:
	movl	$30, %r8d
	leaq	112(%rsp), %rdi
	movq	%r14, %rsi
	xorl	%edx, %edx
	leaq	.L.str.22(%rip), %rcx
	movq	%r13, %r9
	callq	_ZNSt7__cxx1112basic_stringIcSt11char_traitsIcESaIcEE15_M_replace_coldEPcmPKcmm@PLT
.Ltmp283:
	jmp	.LBB15_321
.LBB15_361:
	leaq	35(%r15), %rdi
	movq	%r15, %rsi
	movq	%r12, %rdx
	callq	memmove@PLT
.LBB15_362:                             # %_ZNSt7__cxx1112basic_stringIcSt11char_traitsIcESaIcEE7_S_moveEPcPKcm.exit.i
	movups	.L.str.15+16(%rip), %xmm0
	movups	%xmm0, 16(%r15)
	movups	.L.str.15(%rip), %xmm0
	movups	%xmm0, (%r15)
	movl	$540682591, 31(%r15)            # imm = 0x203A295F
.LBB15_363:                             # %.noexc168
	movq	%rbx, 56(%rsp)
	movb	$0, (%r15,%rbx)
	leaq	24(%rsp), %r15
	movq	%r15, 8(%rsp)
	movq	48(%rsp), %rcx
	cmpq	%r14, %rcx
	je	.LBB15_365
# %bb.364:                              # %_ZNKSt7__cxx1112basic_stringIcSt11char_traitsIcESaIcEE11_M_is_localEv.exit.i.i166
	movq	%rcx, 8(%rsp)
	movq	56(%rsp), %r12
	movq	64(%rsp), %rax
	movq	%rax, 24(%rsp)
	jmp	.LBB15_366
.LBB15_365:
	movq	56(%rsp), %r12
	leaq	1(%r12), %rdx
	movq	%r15, %rdi
	movq	%r14, %rsi
	callq	memcpy@PLT
	movq	%r15, %rcx
.LBB15_366:
	movq	%r12, 16(%rsp)
	movq	%r14, 48(%rsp)
	movq	$0, 56(%rsp)
	movb	$0, 64(%rsp)
	movq	(%rsp), %rdx                    # 8-byte Reload
	movq	8(%rdx), %rsi
	movabsq	$9223372036854775807, %rax      # imm = 0x7FFFFFFFFFFFFFFF
	subq	%rsi, %rax
	cmpq	%r12, %rax
	jb	.LBB15_580
# %bb.367:                              # %_ZNKSt7__cxx1112basic_stringIcSt11char_traitsIcESaIcEE15_M_check_lengthEmmPKc.exit.i.i.i
	leaq	(%rsi,%r12), %rbx
	movq	(%rdx), %rdi
	movl	$15, %eax
	cmpq	40(%rsp), %rdi                  # 8-byte Folded Reload
	je	.LBB15_369
# %bb.368:                              # %_ZNKSt7__cxx1112basic_stringIcSt11char_traitsIcESaIcEE15_M_check_lengthEmmPKc.exit.i.i.i
	movq	40(%rsp), %rax                  # 8-byte Reload
	movq	(%rax), %rax
.LBB15_369:                             # %_ZNKSt7__cxx1112basic_stringIcSt11char_traitsIcESaIcEE15_M_check_lengthEmmPKc.exit.i.i.i
	cmpq	%rax, %rbx
	jbe	.LBB15_371
# %bb.370:
.Ltmp365:
	movq	(%rsp), %rdi                    # 8-byte Reload
	xorl	%edx, %edx
	movq	%r12, %r8
	callq	_ZNSt7__cxx1112basic_stringIcSt11char_traitsIcESaIcEE9_M_mutateEmmPKcm@PLT
.Ltmp366:
	jmp	.LBB15_375
.LBB15_371:
	testq	%r12, %r12
	je	.LBB15_375
# %bb.372:
	addq	%rsi, %rdi
	cmpq	$1, %r12
	jne	.LBB15_374
# %bb.373:
	movzbl	(%rcx), %eax
	movb	%al, (%rdi)
	jmp	.LBB15_375
.LBB15_374:
	movq	%rcx, %rsi
	movq	%r12, %rdx
	callq	memcpy@PLT
.LBB15_375:
	movq	(%rsp), %rax                    # 8-byte Reload
	movq	%rbx, 8(%rax)
	movq	(%rax), %rax
	movb	$0, (%rax,%rbx)
	movq	8(%rsp), %rdi
	cmpq	%r15, %rdi
	je	.LBB15_377
# %bb.376:                              # %_ZNKSt7__cxx1112basic_stringIcSt11char_traitsIcESaIcEE11_M_is_localEv.exit.i.i171
	movq	24(%rsp), %rsi
	incq	%rsi
	callq	_ZdlPvm@PLT
.LBB15_377:                             # %_ZNSt7__cxx1112basic_stringIcSt11char_traitsIcESaIcEED2Ev.exit173
	movq	48(%rsp), %rdi
	cmpq	%r14, %rdi
	je	.LBB15_379
# %bb.378:                              # %_ZNKSt7__cxx1112basic_stringIcSt11char_traitsIcESaIcEE11_M_is_localEv.exit.i.i174
	movq	64(%rsp), %rsi
	incq	%rsi
	callq	_ZdlPvm@PLT
.LBB15_379:                             # %.loopexit
.Ltmp384:
	leaq	200(%rsp), %rdi
	callq	_ZNKR8pybind116handle7dec_refEv
.Ltmp385:
# %bb.380:                              # %_ZN8pybind116objectD2Ev.exit388
.Ltmp387:
	leaq	272(%rsp), %rdi
	callq	_ZNKR8pybind116handle7dec_refEv
.Ltmp388:
# %bb.381:                              # %_ZN8pybind116objectD2Ev.exit389
	movq	(%rsp), %rbx                    # 8-byte Reload
	cmpq	$0, 8(%rbx)
	je	.LBB15_382
.LBB15_18:                              # %_ZNSt7__cxx1112basic_stringIcSt11char_traitsIcESaIcEEaSEPKc.exit395
	movq	240(%rsp), %rax                 # 8-byte Reload
	movq	16(%rax), %rax
	testq	%rax, %rax
	je	.LBB15_397
	.p2align	4, 0x90
.LBB15_388:                             # %.preheader550
                                        # =>This Inner Loop Header: Depth=1
	movq	%rax, %rcx
	movq	16(%rax), %rax
	testq	%rax, %rax
	jne	.LBB15_388
# %bb.389:
	movq	24(%rcx), %r12
	testq	%r12, %r12
	je	.LBB15_392
# %bb.390:
	movl	(%r12), %eax
	incl	%eax
	je	.LBB15_392
# %bb.391:
	movl	%eax, (%r12)
.LBB15_392:                             # %_ZL10Py_XINCREFP7_object.exit
	movq	(%rsp), %rcx                    # 8-byte Reload
	movq	8(%rcx), %rsi
	movabsq	$9223372036854775807, %rax      # imm = 0x7FFFFFFFFFFFFFFF
	addq	$-6, %rax
	cmpq	%rax, %rsi
	jg	.LBB15_562
# %bb.393:                              # %_ZNKSt7__cxx1112basic_stringIcSt11char_traitsIcESaIcEE15_M_check_lengthEmmPKc.exit.i.i397
	leaq	6(%rsi), %rbx
	movq	(%rcx), %rax
	movl	$15, %ecx
	cmpq	40(%rsp), %rax                  # 8-byte Folded Reload
	je	.LBB15_395
# %bb.394:                              # %_ZNKSt7__cxx1112basic_stringIcSt11char_traitsIcESaIcEE15_M_check_lengthEmmPKc.exit.i.i397
	movq	40(%rsp), %rcx                  # 8-byte Reload
	movq	(%rcx), %rcx
.LBB15_395:                             # %_ZNKSt7__cxx1112basic_stringIcSt11char_traitsIcESaIcEE15_M_check_lengthEmmPKc.exit.i.i397
	cmpq	%rcx, %rbx
	jbe	.LBB15_404
# %bb.396:
.Ltmp397:
	leaq	.L.str.25(%rip), %rcx
	movl	$6, %r8d
	movq	(%rsp), %r14                    # 8-byte Reload
	movq	%r14, %rdi
	xorl	%edx, %edx
	callq	_ZNSt7__cxx1112basic_stringIcSt11char_traitsIcESaIcEE9_M_mutateEmmPKcm@PLT
.Ltmp398:
	jmp	.LBB15_405
.LBB15_397:                             # %.thread
	cmpq	$0, 160(%rsp)
	je	.LBB15_516
# %bb.398:                              # %.thread115
	movq	(%rsp), %rcx                    # 8-byte Reload
	movq	(%rcx), %rax
	movq	8(%rcx), %r14
	leaq	1(%r14), %rbx
	movl	$15, %ecx
	cmpq	40(%rsp), %rax                  # 8-byte Folded Reload
	je	.LBB15_400
# %bb.399:                              # %.thread115
	movq	40(%rsp), %rcx                  # 8-byte Reload
	movq	(%rcx), %rcx
.LBB15_400:                             # %.thread115
	cmpq	%rcx, %rbx
	jbe	.LBB15_403
# %bb.401:
.Ltmp453:
	movl	$1, %r8d
	movq	(%rsp), %r15                    # 8-byte Reload
	movq	%r15, %rdi
	movq	%r14, %rsi
	xorl	%edx, %edx
	xorl	%ecx, %ecx
	callq	_ZNSt7__cxx1112basic_stringIcSt11char_traitsIcESaIcEE9_M_mutateEmmPKcm@PLT
.Ltmp454:
# %bb.402:                              # %.noexc493
	movq	(%r15), %rax
.LBB15_403:                             # %_ZNSt7__cxx1112basic_stringIcSt11char_traitsIcESaIcEEpLEc.exit494
	movb	$10, (%rax,%r14)
	movq	(%rsp), %rax                    # 8-byte Reload
	movq	%rbx, 8(%rax)
	movq	(%rax), %rax
	movb	$0, 1(%rax,%r14)
	movq	160(%rsp), %r8
	jmp	.LBB15_504
.LBB15_404:
	movw	$2618, 4(%rax,%rsi)             # imm = 0xA3A
	movl	$1950419466, (%rax,%rsi)        # imm = 0x74410A0A
	movq	(%rsp), %r14                    # 8-byte Reload
.LBB15_405:                             # %_ZNSt7__cxx1112basic_stringIcSt11char_traitsIcESaIcEEpLEPKc.exit
	movq	%rbx, 8(%r14)
	movq	(%r14), %rax
	movb	$0, (%rax,%rbx)
	testq	%r12, %r12
	je	.LBB15_503
# %bb.406:                              # %.lr.ph755
	leaq	24(%rsp), %rbp
	movabsq	$9223372036854775807, %rax      # imm = 0x7FFFFFFFFFFFFFFF
	decq	%rax
	movq	%rax, 184(%rsp)                 # 8-byte Spill
	jmp	.LBB15_408
	.p2align	4, 0x90
.LBB15_407:                             # %_ZL9Py_DECREFP7_object.exit122
                                        #   in Loop: Header=BB15_408 Depth=1
	movq	%r15, %r12
	testq	%r15, %r15
	je	.LBB15_503
.LBB15_408:                             # =>This Loop Header: Depth=1
                                        #     Child Loop BB15_438 Depth 2
                                        #     Child Loop BB15_454 Depth 2
.Ltmp399:
	movq	%r12, %rdi
	callq	PyFrame_GetCode@PLT
.Ltmp400:
# %bb.409:                              #   in Loop: Header=BB15_408 Depth=1
.Ltmp402:
	movq	%rax, %rbx
	movq	%r12, 144(%rsp)                 # 8-byte Spill
	movq	%r12, %rdi
	callq	PyFrame_GetLineNumber@PLT
.Ltmp403:
# %bb.410:                              #   in Loop: Header=BB15_408 Depth=1
	movl	%eax, %r12d
	movq	(%rsp), %rcx                    # 8-byte Reload
	movq	8(%rcx), %rsi
	movq	%rsi, %rax
	andq	$-2, %rax
	cmpq	184(%rsp), %rax                 # 8-byte Folded Reload
	je	.LBB15_534
# %bb.411:                              # %_ZNKSt7__cxx1112basic_stringIcSt11char_traitsIcESaIcEE15_M_check_lengthEmmPKc.exit.i.i405
                                        #   in Loop: Header=BB15_408 Depth=1
	movq	(%rcx), %rax
	movl	$15, %ecx
	cmpq	40(%rsp), %rax                  # 8-byte Folded Reload
	je	.LBB15_413
# %bb.412:                              # %_ZNKSt7__cxx1112basic_stringIcSt11char_traitsIcESaIcEE15_M_check_lengthEmmPKc.exit.i.i405
                                        #   in Loop: Header=BB15_408 Depth=1
	movq	40(%rsp), %rcx                  # 8-byte Reload
	movq	(%rcx), %rcx
.LBB15_413:                             # %_ZNKSt7__cxx1112basic_stringIcSt11char_traitsIcESaIcEE15_M_check_lengthEmmPKc.exit.i.i405
                                        #   in Loop: Header=BB15_408 Depth=1
	leaq	2(%rsi), %r14
	cmpq	%rcx, %r14
	jbe	.LBB15_415
# %bb.414:                              #   in Loop: Header=BB15_408 Depth=1
.Ltmp404:
	movl	$2, %r8d
	movq	(%rsp), %rdi                    # 8-byte Reload
	xorl	%edx, %edx
	leaq	.L.str.26(%rip), %rcx
	callq	_ZNSt7__cxx1112basic_stringIcSt11char_traitsIcESaIcEE9_M_mutateEmmPKcm@PLT
.Ltmp405:
	jmp	.LBB15_416
	.p2align	4, 0x90
.LBB15_415:                             #   in Loop: Header=BB15_408 Depth=1
	movw	$8224, (%rax,%rsi)              # imm = 0x2020
.LBB15_416:                             #   in Loop: Header=BB15_408 Depth=1
	movq	(%rsp), %rax                    # 8-byte Reload
	movq	%r14, 8(%rax)
	movq	(%rax), %rax
	movb	$0, (%rax,%r14)
	movq	112(%rbx), %rax
	movq	%rax, 80(%rsp)
	movq	%rbp, 8(%rsp)
	movq	$0, 16(%rsp)
	movb	$0, 24(%rsp)
.Ltmp406:
	leaq	8(%rsp), %rdi
	leaq	80(%rsp), %rsi
	callq	_ZN8pybind116detail9load_typeINSt7__cxx1112basic_stringIcSt11char_traitsIcESaIcEEEvEERNS0_11type_casterIT_T0_EESC_RKNS_6handleE
.Ltmp407:
# %bb.417:                              # %_ZN8pybind116detail9load_typeINSt7__cxx1112basic_stringIcSt11char_traitsIcESaIcEEEEENS0_11type_casterINS0_14intrinsic_typeIT_E4typeEvEERKNS_6handleE.exit.i.i
                                        #   in Loop: Header=BB15_408 Depth=1
	leaq	64(%rsp), %rdi
	movq	%rdi, 48(%rsp)
	movq	8(%rsp), %rcx
	cmpq	%rbp, %rcx
	je	.LBB15_419
# %bb.418:                              # %_ZNKSt7__cxx1112basic_stringIcSt11char_traitsIcESaIcEE11_M_is_localEv.exit.i.i.i
                                        #   in Loop: Header=BB15_408 Depth=1
	movq	%rcx, 48(%rsp)
	movq	16(%rsp), %r13
	movq	24(%rsp), %rax
	movq	%rax, 64(%rsp)
	jmp	.LBB15_420
	.p2align	4, 0x90
.LBB15_419:                             #   in Loop: Header=BB15_408 Depth=1
	movq	16(%rsp), %r13
	leaq	1(%r13), %rdx
	movq	%rbp, %rsi
	movq	%rdi, %r14
	callq	memcpy@PLT
	movq	%r14, %rcx
.LBB15_420:                             #   in Loop: Header=BB15_408 Depth=1
	movq	%r13, 56(%rsp)
	movq	(%rsp), %rdx                    # 8-byte Reload
	movq	8(%rdx), %rsi
	movabsq	$9223372036854775807, %rax      # imm = 0x7FFFFFFFFFFFFFFF
	subq	%rsi, %rax
	cmpq	%r13, %rax
	jb	.LBB15_538
# %bb.421:                              # %_ZNKSt7__cxx1112basic_stringIcSt11char_traitsIcESaIcEE15_M_check_lengthEmmPKc.exit.i.i.i414
                                        #   in Loop: Header=BB15_408 Depth=1
	movq	(%rdx), %rdi
	movl	$15, %eax
	cmpq	40(%rsp), %rdi                  # 8-byte Folded Reload
	je	.LBB15_423
# %bb.422:                              # %_ZNKSt7__cxx1112basic_stringIcSt11char_traitsIcESaIcEE15_M_check_lengthEmmPKc.exit.i.i.i414
                                        #   in Loop: Header=BB15_408 Depth=1
	movq	40(%rsp), %rax                  # 8-byte Reload
	movq	(%rax), %rax
.LBB15_423:                             # %_ZNKSt7__cxx1112basic_stringIcSt11char_traitsIcESaIcEE15_M_check_lengthEmmPKc.exit.i.i.i414
                                        #   in Loop: Header=BB15_408 Depth=1
	leaq	(%rsi,%r13), %r14
	cmpq	%rax, %r14
	jbe	.LBB15_425
# %bb.424:                              #   in Loop: Header=BB15_408 Depth=1
.Ltmp409:
	movq	(%rsp), %rdi                    # 8-byte Reload
	xorl	%edx, %edx
	movq	%r13, %r8
	callq	_ZNSt7__cxx1112basic_stringIcSt11char_traitsIcESaIcEE9_M_mutateEmmPKcm@PLT
.Ltmp410:
	jmp	.LBB15_429
	.p2align	4, 0x90
.LBB15_425:                             #   in Loop: Header=BB15_408 Depth=1
	testq	%r13, %r13
	je	.LBB15_429
# %bb.426:                              #   in Loop: Header=BB15_408 Depth=1
	addq	%rsi, %rdi
	cmpq	$1, %r13
	jne	.LBB15_428
# %bb.427:                              #   in Loop: Header=BB15_408 Depth=1
	movzbl	(%rcx), %eax
	movb	%al, (%rdi)
	jmp	.LBB15_429
.LBB15_428:                             #   in Loop: Header=BB15_408 Depth=1
	movq	%rcx, %rsi
	movq	%r13, %rdx
	callq	memcpy@PLT
	.p2align	4, 0x90
.LBB15_429:                             #   in Loop: Header=BB15_408 Depth=1
	movq	(%rsp), %rax                    # 8-byte Reload
	movq	%r14, 8(%rax)
	movq	(%rax), %rax
	movb	$0, (%rax,%r14)
	movq	48(%rsp), %rdi
	leaq	64(%rsp), %rax
	cmpq	%rax, %rdi
	je	.LBB15_431
# %bb.430:                              # %_ZNKSt7__cxx1112basic_stringIcSt11char_traitsIcESaIcEE11_M_is_localEv.exit.i.i422
                                        #   in Loop: Header=BB15_408 Depth=1
	movq	64(%rsp), %rsi
	incq	%rsi
	callq	_ZdlPvm@PLT
.LBB15_431:                             # %_ZNSt7__cxx1112basic_stringIcSt11char_traitsIcESaIcEED2Ev.exit424
                                        #   in Loop: Header=BB15_408 Depth=1
	movq	(%rsp), %rcx                    # 8-byte Reload
	movq	(%rcx), %rax
	movq	8(%rcx), %r13
	movl	$15, %ecx
	cmpq	40(%rsp), %rax                  # 8-byte Folded Reload
	je	.LBB15_433
# %bb.432:                              # %_ZNSt7__cxx1112basic_stringIcSt11char_traitsIcESaIcEED2Ev.exit424
                                        #   in Loop: Header=BB15_408 Depth=1
	movq	40(%rsp), %rcx                  # 8-byte Reload
	movq	(%rcx), %rcx
.LBB15_433:                             # %_ZNSt7__cxx1112basic_stringIcSt11char_traitsIcESaIcEED2Ev.exit424
                                        #   in Loop: Header=BB15_408 Depth=1
	leaq	1(%r13), %r14
	cmpq	%rcx, %r14
	jbe	.LBB15_436
# %bb.434:                              #   in Loop: Header=BB15_408 Depth=1
.Ltmp412:
	movl	$1, %r8d
	movq	(%rsp), %rdi                    # 8-byte Reload
	movq	%r13, %rsi
	xorl	%edx, %edx
	xorl	%ecx, %ecx
	callq	_ZNSt7__cxx1112basic_stringIcSt11char_traitsIcESaIcEE9_M_mutateEmmPKcm@PLT
.Ltmp413:
# %bb.435:                              # %.noexc427
                                        #   in Loop: Header=BB15_408 Depth=1
	movq	(%rsp), %rax                    # 8-byte Reload
	movq	(%rax), %rax
.LBB15_436:                             #   in Loop: Header=BB15_408 Depth=1
	movb	$40, (%rax,%r13)
	movq	(%rsp), %rax                    # 8-byte Reload
	movq	%r14, 8(%rax)
	movq	(%rax), %rax
	movb	$0, 1(%rax,%r13)
	movl	%r12d, %ebp
	negl	%ebp
	cmovsl	%r12d, %ebp
	movl	$1, %r14d
	cmpl	$10, %ebp
	jb	.LBB15_445
# %bb.437:                              # %.lr.ph.i.i429.preheader
                                        #   in Loop: Header=BB15_408 Depth=1
	movl	$4, %r14d
	movl	%ebp, %eax
	.p2align	4, 0x90
.LBB15_438:                             # %.lr.ph.i.i429
                                        #   Parent Loop BB15_408 Depth=1
                                        # =>  This Inner Loop Header: Depth=2
	cmpl	$99, %eax
	jbe	.LBB15_443
# %bb.439:                              #   in Loop: Header=BB15_438 Depth=2
	cmpl	$999, %eax                      # imm = 0x3E7
	jbe	.LBB15_444
# %bb.440:                              #   in Loop: Header=BB15_438 Depth=2
	cmpl	$10000, %eax                    # imm = 0x2710
	jb	.LBB15_445
# %bb.441:                              #   in Loop: Header=BB15_438 Depth=2
	movl	%eax, %ecx
	movl	$3518437209, %edx               # imm = 0xD1B71759
	imulq	%rdx, %rcx
	shrq	$45, %rcx
	addl	$4, %r14d
	cmpl	$99999, %eax                    # imm = 0x1869F
	movl	%ecx, %eax
	ja	.LBB15_438
# %bb.442:                              # %_ZNSt8__detail14__to_chars_lenIjEEjT_i.exit.i.loopexit
                                        #   in Loop: Header=BB15_408 Depth=1
	addl	$-3, %r14d
	jmp	.LBB15_445
.LBB15_443:                             #   in Loop: Header=BB15_408 Depth=1
	addl	$-2, %r14d
	jmp	.LBB15_445
.LBB15_444:                             #   in Loop: Header=BB15_408 Depth=1
	decl	%r14d
	.p2align	4, 0x90
.LBB15_445:                             # %_ZNSt8__detail14__to_chars_lenIjEEjT_i.exit.i
                                        #   in Loop: Header=BB15_408 Depth=1
	shrl	$31, %r12d
	leal	(%r14,%r12), %r13d
	leaq	24(%rsp), %r15
	movq	%r15, 8(%rsp)
	cmpl	$16, %r13d
	jb	.LBB15_448
# %bb.446:                              #   in Loop: Header=BB15_408 Depth=1
	leaq	1(%r13), %rdi
.Ltmp414:
	callq	_Znwm@PLT
.Ltmp415:
# %bb.447:                              # %.noexc.i438
                                        #   in Loop: Header=BB15_408 Depth=1
	movq	%rax, %r15
	movq	%rax, 8(%rsp)
	movq	%r13, 24(%rsp)
	jmp	.LBB15_451
	.p2align	4, 0x90
.LBB15_448:                             #   in Loop: Header=BB15_408 Depth=1
	testq	%r13, %r13
	je	.LBB15_452
# %bb.449:                              #   in Loop: Header=BB15_408 Depth=1
	cmpl	$1, %r13d
	jne	.LBB15_451
# %bb.450:                              #   in Loop: Header=BB15_408 Depth=1
	movb	$45, 24(%rsp)
	jmp	.LBB15_452
	.p2align	4, 0x90
.LBB15_451:                             #   in Loop: Header=BB15_408 Depth=1
	movq	%r15, %rdi
	movl	$45, %esi
	movq	%r13, %rdx
	callq	memset@PLT
.LBB15_452:                             #   in Loop: Header=BB15_408 Depth=1
	movq	%r13, 16(%rsp)
	movb	$0, (%r15,%r13)
	movl	%r12d, %eax
	addq	8(%rsp), %rax
	cmpl	$100, %ebp
	jb	.LBB15_457
# %bb.453:                              # %.lr.ph.preheader.i.i435
                                        #   in Loop: Header=BB15_408 Depth=1
	addl	$-2, %r14d
	leaq	.L__const._ZNSt8__detail18__to_chars_10_implIjEEvPcjT_.__digits(%rip), %r8
	.p2align	4, 0x90
.LBB15_454:                             # %.lr.ph.i11.i
                                        #   Parent Loop BB15_408 Depth=1
                                        # =>  This Inner Loop Header: Depth=2
	leal	1(%r14), %edx
	movl	%ebp, %ecx
	imulq	$1374389535, %rcx, %rcx         # imm = 0x51EB851F
	shrq	$37, %rcx
	imull	$100, %ecx, %esi
	movl	%ebp, %edi
	subl	%esi, %edi
	movzbl	(%r8,%rdi,2), %esi
	movzbl	1(%r8,%rdi,2), %edi
	movb	%dil, (%rax,%rdx)
	movl	%r14d, %edx
	movb	%sil, (%rax,%rdx)
	addl	$-2, %r14d
	cmpl	$9999, %ebp                     # imm = 0x270F
	movl	%ecx, %ebp
	ja	.LBB15_454
# %bb.455:                              # %._crit_edge.i.i432
                                        #   in Loop: Header=BB15_408 Depth=1
	cmpl	$10, %ecx
	jb	.LBB15_458
.LBB15_456:                             #   in Loop: Header=BB15_408 Depth=1
	movl	%ecx, %ecx
	leaq	(%rcx,%rcx), %rdx
	movl	%edx, %edx
	movzbl	1(%rdx,%r8), %edx
	movb	%dl, 1(%rax)
	movzbl	(%r8,%rcx,2), %ecx
	jmp	.LBB15_459
	.p2align	4, 0x90
.LBB15_457:                             #   in Loop: Header=BB15_408 Depth=1
	movl	%ebp, %ecx
	leaq	.L__const._ZNSt8__detail18__to_chars_10_implIjEEvPcjT_.__digits(%rip), %r8
	cmpl	$10, %ecx
	jae	.LBB15_456
.LBB15_458:                             #   in Loop: Header=BB15_408 Depth=1
	orb	$48, %cl
.LBB15_459:                             # %_ZNSt7__cxx119to_stringEi.exit
                                        #   in Loop: Header=BB15_408 Depth=1
	leaq	24(%rsp), %rbp
	movb	%cl, (%rax)
	movq	16(%rsp), %r8
	movq	(%rsp), %rcx                    # 8-byte Reload
	movq	8(%rcx), %rsi
	movabsq	$9223372036854775807, %rax      # imm = 0x7FFFFFFFFFFFFFFF
	subq	%rsi, %rax
	cmpq	%r8, %rax
	jb	.LBB15_540
# %bb.460:                              # %_ZNKSt7__cxx1112basic_stringIcSt11char_traitsIcESaIcEE15_M_check_lengthEmmPKc.exit.i.i.i439
                                        #   in Loop: Header=BB15_408 Depth=1
	movq	(%rcx), %rdi
	movl	$15, %eax
	cmpq	40(%rsp), %rdi                  # 8-byte Folded Reload
	je	.LBB15_462
# %bb.461:                              # %_ZNKSt7__cxx1112basic_stringIcSt11char_traitsIcESaIcEE15_M_check_lengthEmmPKc.exit.i.i.i439
                                        #   in Loop: Header=BB15_408 Depth=1
	movq	40(%rsp), %rax                  # 8-byte Reload
	movq	(%rax), %rax
.LBB15_462:                             # %_ZNKSt7__cxx1112basic_stringIcSt11char_traitsIcESaIcEE15_M_check_lengthEmmPKc.exit.i.i.i439
                                        #   in Loop: Header=BB15_408 Depth=1
	movq	8(%rsp), %rcx
	leaq	(%rsi,%r8), %r14
	cmpq	%rax, %r14
	jbe	.LBB15_464
# %bb.463:                              #   in Loop: Header=BB15_408 Depth=1
.Ltmp417:
	movq	(%rsp), %rdi                    # 8-byte Reload
	xorl	%edx, %edx
	callq	_ZNSt7__cxx1112basic_stringIcSt11char_traitsIcESaIcEE9_M_mutateEmmPKcm@PLT
.Ltmp418:
	jmp	.LBB15_468
	.p2align	4, 0x90
.LBB15_464:                             #   in Loop: Header=BB15_408 Depth=1
	testq	%r8, %r8
	je	.LBB15_468
# %bb.465:                              #   in Loop: Header=BB15_408 Depth=1
	addq	%rsi, %rdi
	cmpq	$1, %r8
	jne	.LBB15_467
# %bb.466:                              #   in Loop: Header=BB15_408 Depth=1
	movzbl	(%rcx), %eax
	movb	%al, (%rdi)
	jmp	.LBB15_468
.LBB15_467:                             #   in Loop: Header=BB15_408 Depth=1
	movq	%rcx, %rsi
	movq	%r8, %rdx
	callq	memcpy@PLT
	.p2align	4, 0x90
.LBB15_468:                             #   in Loop: Header=BB15_408 Depth=1
	movq	(%rsp), %rax                    # 8-byte Reload
	movq	%r14, 8(%rax)
	movq	(%rax), %rax
	movb	$0, (%rax,%r14)
	movq	8(%rsp), %rdi
	cmpq	%rbp, %rdi
	je	.LBB15_470
# %bb.469:                              # %_ZNKSt7__cxx1112basic_stringIcSt11char_traitsIcESaIcEE11_M_is_localEv.exit.i.i447
                                        #   in Loop: Header=BB15_408 Depth=1
	movq	24(%rsp), %rsi
	incq	%rsi
	callq	_ZdlPvm@PLT
.LBB15_470:                             # %_ZNSt7__cxx1112basic_stringIcSt11char_traitsIcESaIcEED2Ev.exit449
                                        #   in Loop: Header=BB15_408 Depth=1
	movq	(%rsp), %rcx                    # 8-byte Reload
	movq	8(%rcx), %rsi
	movabsq	$9223372036854775807, %rax      # imm = 0x7FFFFFFFFFFFFFFF
	addq	$-3, %rax
	cmpq	%rax, %rsi
	jg	.LBB15_534
# %bb.471:                              # %_ZNKSt7__cxx1112basic_stringIcSt11char_traitsIcESaIcEE15_M_check_lengthEmmPKc.exit.i.i450
                                        #   in Loop: Header=BB15_408 Depth=1
	movq	(%rcx), %rax
	movl	$15, %ecx
	cmpq	40(%rsp), %rax                  # 8-byte Folded Reload
	je	.LBB15_473
# %bb.472:                              # %_ZNKSt7__cxx1112basic_stringIcSt11char_traitsIcESaIcEE15_M_check_lengthEmmPKc.exit.i.i450
                                        #   in Loop: Header=BB15_408 Depth=1
	movq	40(%rsp), %rcx                  # 8-byte Reload
	movq	(%rcx), %rcx
.LBB15_473:                             # %_ZNKSt7__cxx1112basic_stringIcSt11char_traitsIcESaIcEE15_M_check_lengthEmmPKc.exit.i.i450
                                        #   in Loop: Header=BB15_408 Depth=1
	leaq	3(%rsi), %r14
	cmpq	%rcx, %r14
	jbe	.LBB15_475
# %bb.474:                              #   in Loop: Header=BB15_408 Depth=1
.Ltmp420:
	movl	$3, %r8d
	movq	(%rsp), %rdi                    # 8-byte Reload
	xorl	%edx, %edx
	leaq	.L.str.27(%rip), %rcx
	callq	_ZNSt7__cxx1112basic_stringIcSt11char_traitsIcESaIcEE9_M_mutateEmmPKcm@PLT
.Ltmp421:
	jmp	.LBB15_476
	.p2align	4, 0x90
.LBB15_475:                             #   in Loop: Header=BB15_408 Depth=1
	movb	$32, 2(%rax,%rsi)
	movw	$14889, (%rax,%rsi)             # imm = 0x3A29
.LBB15_476:                             #   in Loop: Header=BB15_408 Depth=1
	movq	(%rsp), %rax                    # 8-byte Reload
	movq	%r14, 8(%rax)
	movq	(%rax), %rax
	movb	$0, (%rax,%r14)
	movq	120(%rbx), %rax
	movq	%rax, 80(%rsp)
	leaq	24(%rsp), %r14
	movq	%r14, 8(%rsp)
	movq	$0, 16(%rsp)
	movb	$0, 24(%rsp)
.Ltmp422:
	leaq	8(%rsp), %rdi
	leaq	80(%rsp), %rsi
	callq	_ZN8pybind116detail9load_typeINSt7__cxx1112basic_stringIcSt11char_traitsIcESaIcEEEvEERNS0_11type_casterIT_T0_EESC_RKNS_6handleE
.Ltmp423:
# %bb.477:                              # %_ZN8pybind116detail9load_typeINSt7__cxx1112basic_stringIcSt11char_traitsIcESaIcEEEEENS0_11type_casterINS0_14intrinsic_typeIT_E4typeEvEERKNS_6handleE.exit.i.i459
                                        #   in Loop: Header=BB15_408 Depth=1
	leaq	64(%rsp), %rdi
	movq	%rdi, 48(%rsp)
	movq	8(%rsp), %rcx
	cmpq	%r14, %rcx
	je	.LBB15_479
# %bb.478:                              # %_ZNKSt7__cxx1112basic_stringIcSt11char_traitsIcESaIcEE11_M_is_localEv.exit.i.i.i460
                                        #   in Loop: Header=BB15_408 Depth=1
	movq	%rcx, 48(%rsp)
	movq	16(%rsp), %r12
	movq	24(%rsp), %rax
	movq	%rax, 64(%rsp)
	jmp	.LBB15_480
	.p2align	4, 0x90
.LBB15_479:                             #   in Loop: Header=BB15_408 Depth=1
	movq	%r14, %rsi
	movq	16(%rsp), %r12
	leaq	1(%r12), %rdx
	movq	%rdi, %r14
	callq	memcpy@PLT
	movq	%r14, %rcx
.LBB15_480:                             #   in Loop: Header=BB15_408 Depth=1
	movq	%r12, 56(%rsp)
	movq	(%rsp), %rdx                    # 8-byte Reload
	movq	8(%rdx), %rsi
	movabsq	$9223372036854775807, %rax      # imm = 0x7FFFFFFFFFFFFFFF
	subq	%rsi, %rax
	cmpq	%r12, %rax
	jb	.LBB15_542
# %bb.481:                              # %_ZNKSt7__cxx1112basic_stringIcSt11char_traitsIcESaIcEE15_M_check_lengthEmmPKc.exit.i.i.i467
                                        #   in Loop: Header=BB15_408 Depth=1
	movq	(%rdx), %rdi
	movl	$15, %eax
	cmpq	40(%rsp), %rdi                  # 8-byte Folded Reload
	je	.LBB15_483
# %bb.482:                              # %_ZNKSt7__cxx1112basic_stringIcSt11char_traitsIcESaIcEE15_M_check_lengthEmmPKc.exit.i.i.i467
                                        #   in Loop: Header=BB15_408 Depth=1
	movq	40(%rsp), %rax                  # 8-byte Reload
	movq	(%rax), %rax
.LBB15_483:                             # %_ZNKSt7__cxx1112basic_stringIcSt11char_traitsIcESaIcEE15_M_check_lengthEmmPKc.exit.i.i.i467
                                        #   in Loop: Header=BB15_408 Depth=1
	leaq	(%rsi,%r12), %r14
	cmpq	%rax, %r14
	jbe	.LBB15_485
# %bb.484:                              #   in Loop: Header=BB15_408 Depth=1
.Ltmp425:
	movq	(%rsp), %rdi                    # 8-byte Reload
	xorl	%edx, %edx
	movq	%r12, %r8
	callq	_ZNSt7__cxx1112basic_stringIcSt11char_traitsIcESaIcEE9_M_mutateEmmPKcm@PLT
.Ltmp426:
	jmp	.LBB15_489
	.p2align	4, 0x90
.LBB15_485:                             #   in Loop: Header=BB15_408 Depth=1
	testq	%r12, %r12
	je	.LBB15_489
# %bb.486:                              #   in Loop: Header=BB15_408 Depth=1
	addq	%rsi, %rdi
	cmpq	$1, %r12
	jne	.LBB15_488
# %bb.487:                              #   in Loop: Header=BB15_408 Depth=1
	movzbl	(%rcx), %eax
	movb	%al, (%rdi)
	jmp	.LBB15_489
.LBB15_488:                             #   in Loop: Header=BB15_408 Depth=1
	movq	%rcx, %rsi
	movq	%r12, %rdx
	callq	memcpy@PLT
	.p2align	4, 0x90
.LBB15_489:                             #   in Loop: Header=BB15_408 Depth=1
	movq	(%rsp), %rax                    # 8-byte Reload
	movq	%r14, 8(%rax)
	movq	(%rax), %rax
	movb	$0, (%rax,%r14)
	movq	48(%rsp), %rdi
	leaq	64(%rsp), %rax
	cmpq	%rax, %rdi
	je	.LBB15_491
# %bb.490:                              # %_ZNKSt7__cxx1112basic_stringIcSt11char_traitsIcESaIcEE11_M_is_localEv.exit.i.i475
                                        #   in Loop: Header=BB15_408 Depth=1
	movq	64(%rsp), %rsi
	incq	%rsi
	callq	_ZdlPvm@PLT
.LBB15_491:                             # %_ZNSt7__cxx1112basic_stringIcSt11char_traitsIcESaIcEED2Ev.exit477
                                        #   in Loop: Header=BB15_408 Depth=1
	movq	(%rsp), %rcx                    # 8-byte Reload
	movq	(%rcx), %rax
	movq	8(%rcx), %r12
	movl	$15, %ecx
	cmpq	40(%rsp), %rax                  # 8-byte Folded Reload
	je	.LBB15_493
# %bb.492:                              # %_ZNSt7__cxx1112basic_stringIcSt11char_traitsIcESaIcEED2Ev.exit477
                                        #   in Loop: Header=BB15_408 Depth=1
	movq	40(%rsp), %rcx                  # 8-byte Reload
	movq	(%rcx), %rcx
.LBB15_493:                             # %_ZNSt7__cxx1112basic_stringIcSt11char_traitsIcESaIcEED2Ev.exit477
                                        #   in Loop: Header=BB15_408 Depth=1
	leaq	1(%r12), %r14
	cmpq	%rcx, %r14
	jbe	.LBB15_496
# %bb.494:                              #   in Loop: Header=BB15_408 Depth=1
.Ltmp428:
	movl	$1, %r8d
	movq	(%rsp), %rdi                    # 8-byte Reload
	movq	%r12, %rsi
	xorl	%edx, %edx
	xorl	%ecx, %ecx
	callq	_ZNSt7__cxx1112basic_stringIcSt11char_traitsIcESaIcEE9_M_mutateEmmPKcm@PLT
.Ltmp429:
# %bb.495:                              # %.noexc480
                                        #   in Loop: Header=BB15_408 Depth=1
	movq	(%rsp), %rax                    # 8-byte Reload
	movq	(%rax), %rax
.LBB15_496:                             #   in Loop: Header=BB15_408 Depth=1
	movb	$10, (%rax,%r12)
	movq	(%rsp), %rax                    # 8-byte Reload
	movq	%r14, 8(%rax)
	movq	(%rax), %rax
	movb	$0, 1(%rax,%r12)
	movq	(%rbx), %rax
	testl	%eax, %eax
	js	.LBB15_499
# %bb.497:                              #   in Loop: Header=BB15_408 Depth=1
	decq	%rax
	movq	%rax, (%rbx)
	jne	.LBB15_499
# %bb.498:                              #   in Loop: Header=BB15_408 Depth=1
.Ltmp430:
	movq	%rbx, %rdi
	callq	_Py_Dealloc@PLT
.Ltmp431:
	.p2align	4, 0x90
.LBB15_499:                             # %_ZL9Py_DECREFP7_object.exit
                                        #   in Loop: Header=BB15_408 Depth=1
.Ltmp433:
	movq	144(%rsp), %r14                 # 8-byte Reload
	movq	%r14, %rdi
	callq	PyFrame_GetBack@PLT
.Ltmp434:
# %bb.500:                              #   in Loop: Header=BB15_408 Depth=1
	movq	%rax, %r15
	movq	(%r14), %rax
	testl	%eax, %eax
	js	.LBB15_407
# %bb.501:                              #   in Loop: Header=BB15_408 Depth=1
	decq	%rax
	movq	%rax, (%r14)
	jne	.LBB15_407
# %bb.502:                              #   in Loop: Header=BB15_408 Depth=1
.Ltmp435:
	movq	%r14, %rdi
	callq	_Py_Dealloc@PLT
.Ltmp436:
	jmp	.LBB15_407
.LBB15_503:                             # %.preheader._crit_edge
	movq	160(%rsp), %r8
	testq	%r8, %r8
	je	.LBB15_516
.LBB15_504:
	movq	152(%rsp), %rcx
.Ltmp456:
	leaq	.L.str.28(%rip), %rsi
	leaq	8(%rsp), %rdi
	leaq	48(%rsp), %r9
	movl	$39, %edx
	callq	_ZSt12__str_concatINSt7__cxx1112basic_stringIcSt11char_traitsIcESaIcEEEET_PKNS6_10value_typeENS6_9size_typeES9_SA_RKNS6_14allocator_typeE@PLT
.Ltmp457:
# %bb.505:
	movq	16(%rsp), %r8
	movq	(%rsp), %rax                    # 8-byte Reload
	movq	8(%rax), %rsi
	movabsq	$9223372036854775807, %rcx      # imm = 0x7FFFFFFFFFFFFFFF
	subq	%rsi, %rcx
	cmpq	%r8, %rcx
	jb	.LBB15_564
# %bb.506:                              # %_ZNKSt7__cxx1112basic_stringIcSt11char_traitsIcESaIcEE15_M_check_lengthEmmPKc.exit.i.i.i496
	leaq	(%rsi,%r8), %rbx
	movq	(%rax), %rdi
	movl	$15, %eax
	cmpq	40(%rsp), %rdi                  # 8-byte Folded Reload
	je	.LBB15_508
# %bb.507:                              # %_ZNKSt7__cxx1112basic_stringIcSt11char_traitsIcESaIcEE15_M_check_lengthEmmPKc.exit.i.i.i496
	movq	40(%rsp), %rax                  # 8-byte Reload
	movq	(%rax), %rax
.LBB15_508:                             # %_ZNKSt7__cxx1112basic_stringIcSt11char_traitsIcESaIcEE15_M_check_lengthEmmPKc.exit.i.i.i496
	movq	8(%rsp), %rcx
	cmpq	%rax, %rbx
	jbe	.LBB15_510
# %bb.509:
.Ltmp459:
	movq	(%rsp), %rdi                    # 8-byte Reload
	xorl	%edx, %edx
	callq	_ZNSt7__cxx1112basic_stringIcSt11char_traitsIcESaIcEE9_M_mutateEmmPKcm@PLT
.Ltmp460:
	jmp	.LBB15_514
.LBB15_510:
	testq	%r8, %r8
	je	.LBB15_514
# %bb.511:
	addq	%rsi, %rdi
	cmpq	$1, %r8
	jne	.LBB15_513
# %bb.512:
	movzbl	(%rcx), %eax
	movb	%al, (%rdi)
	jmp	.LBB15_514
.LBB15_513:
	movq	%rcx, %rsi
	movq	%r8, %rdx
	callq	memcpy@PLT
.LBB15_514:
	movq	(%rsp), %rax                    # 8-byte Reload
	movq	%rbx, 8(%rax)
	movq	(%rax), %rax
	movb	$0, (%rax,%rbx)
	movq	8(%rsp), %rdi
	leaq	24(%rsp), %rax
	cmpq	%rax, %rdi
	je	.LBB15_516
# %bb.515:                              # %_ZNKSt7__cxx1112basic_stringIcSt11char_traitsIcESaIcEE11_M_is_localEv.exit.i.i504
	movq	24(%rsp), %rsi
	incq	%rsi
	callq	_ZdlPvm@PLT
.LBB15_516:
	movq	152(%rsp), %rdi
	leaq	168(%rsp), %rax
	cmpq	%rax, %rdi
	je	.LBB15_518
# %bb.517:                              # %_ZNKSt7__cxx1112basic_stringIcSt11char_traitsIcESaIcEE11_M_is_localEv.exit.i.i510
	movq	168(%rsp), %rsi
	incq	%rsi
	callq	_ZdlPvm@PLT
.LBB15_518:                             # %_ZNSt7__cxx1112basic_stringIcSt11char_traitsIcESaIcEED2Ev.exit512
	movq	(%rsp), %rax                    # 8-byte Reload
	addq	$280, %rsp                      # imm = 0x118
	.cfi_def_cfa_offset 56
	popq	%rbx
	.cfi_def_cfa_offset 48
	popq	%r12
	.cfi_def_cfa_offset 40
	popq	%r13
	.cfi_def_cfa_offset 32
	popq	%r14
	.cfi_def_cfa_offset 24
	popq	%r15
	.cfi_def_cfa_offset 16
	popq	%rbp
	.cfi_def_cfa_offset 8
	retq
.LBB15_519:                             # %.noexc9.i365
	.cfi_def_cfa_offset 336
.Ltmp272:
	callq	_ZSt17__throw_bad_allocv@PLT
.Ltmp273:
# %bb.520:                              # %.noexc369
.LBB15_521:
.Ltmp339:
	callq	_ZSt17__throw_bad_allocv@PLT
.Ltmp340:
# %bb.522:                              # %.noexc907
.LBB15_523:
.Ltmp305:
	callq	_ZSt17__throw_bad_allocv@PLT
.Ltmp306:
# %bb.524:                              # %.noexc920
.LBB15_525:
.Ltmp392:
	leaq	.L.str.24(%rip), %rcx
	movl	$15, %r8d
	movq	(%rsp), %rbx                    # 8-byte Reload
	movq	%rbx, %rdi
	xorl	%edx, %edx
	xorl	%r9d, %r9d
	callq	_ZNSt7__cxx1112basic_stringIcSt11char_traitsIcESaIcEE15_M_replace_coldEPcmPKcmm@PLT
.Ltmp393:
	jmp	.LBB15_387
.LBB15_526:
.Ltmp353:
	callq	_ZSt17__throw_bad_allocv@PLT
.Ltmp354:
# %bb.527:                              # %.noexc894
.LBB15_528:
.Ltmp370:
	callq	_ZSt17__throw_bad_allocv@PLT
.Ltmp371:
# %bb.529:                              # %.noexc882
.LBB15_530:                             # %.noexc9.i
.Ltmp207:
	callq	_ZSt17__throw_bad_allocv@PLT
.Ltmp208:
# %bb.531:                              # %.noexc152
.LBB15_532:
.Ltmp247:
	leaq	.L.str.16(%rip), %rcx
	leaq	80(%rsp), %rdi
	movl	$16, %r8d
	movq	%r14, %rsi
	xorl	%edx, %edx
	movq	%r12, %r9
	callq	_ZNSt7__cxx1112basic_stringIcSt11char_traitsIcESaIcEE15_M_replace_coldEPcmPKcmm@PLT
.Ltmp248:
	jmp	.LBB15_152
.LBB15_533:
	movq	%rsi, %rdi
	jmp	.LBB15_71
.LBB15_534:                             # %.invoke
.Ltmp447:
	leaq	.L.str.40(%rip), %rdi
	callq	_ZSt20__throw_length_errorPKc@PLT
.Ltmp448:
# %bb.535:                              # %.cont
.LBB15_536:
.Ltmp361:
	leaq	.L.str.15(%rip), %rcx
	leaq	48(%rsp), %rdi
	movl	$35, %r8d
	movq	%r15, %rsi
	xorl	%edx, %edx
	movq	%r12, %r9
	callq	_ZNSt7__cxx1112basic_stringIcSt11char_traitsIcESaIcEE15_M_replace_coldEPcmPKcmm@PLT
.Ltmp362:
# %bb.537:                              # %..noexc168_crit_edge
	movq	48(%rsp), %r15
	jmp	.LBB15_363
.LBB15_538:
.Ltmp444:
	leaq	.L.str.40(%rip), %rdi
	callq	_ZSt20__throw_length_errorPKc@PLT
.Ltmp445:
# %bb.539:                              # %.noexc419
.LBB15_540:
.Ltmp441:
	leaq	.L.str.40(%rip), %rdi
	callq	_ZSt20__throw_length_errorPKc@PLT
.Ltmp442:
# %bb.541:                              # %.noexc444
.LBB15_542:
.Ltmp438:
	leaq	.L.str.40(%rip), %rdi
	callq	_ZSt20__throw_length_errorPKc@PLT
.Ltmp439:
# %bb.543:                              # %.noexc472
.LBB15_544:
	leaq	.L.str.18(%rip), %rdi
	leaq	.L.str.19(%rip), %rsi
	leaq	.L__PRETTY_FUNCTION__._ZNK8pybind116detail25error_fetch_and_normalize22format_value_and_traceB5cxx11Ev(%rip), %rcx
	movl	$626, %edx                      # imm = 0x272
	callq	__assert_fail@PLT
.LBB15_545:
.Ltmp276:
	leaq	.L.str.34(%rip), %rdi
	callq	_ZSt19__throw_logic_errorPKc@PLT
.Ltmp277:
# %bb.546:                              # %.noexc367
.LBB15_547:
.Ltmp269:
	leaq	.L.str.40(%rip), %rdi
	callq	_ZSt20__throw_length_errorPKc@PLT
.Ltmp270:
# %bb.548:                              # %.noexc377
.LBB15_549:
.Ltmp336:
	leaq	.L.str.40(%rip), %rdi
	callq	_ZSt20__throw_length_errorPKc@PLT
.Ltmp337:
# %bb.550:                              # %.noexc258
.LBB15_551:
.Ltmp318:
	leaq	.L.str.40(%rip), %rdi
	callq	_ZSt20__throw_length_errorPKc@PLT
.Ltmp319:
# %bb.552:                              # %.noexc250
.LBB15_553:
.Ltmp302:
	leaq	.L.str.40(%rip), %rdi
	callq	_ZSt20__throw_length_errorPKc@PLT
.Ltmp303:
# %bb.554:                              # %.noexc328
.LBB15_555:                             # %.noexc.i366
.Ltmp274:
	leaq	.L.str.9(%rip), %rdi
	callq	_ZSt20__throw_length_errorPKc@PLT
.Ltmp275:
# %bb.556:                              # %.noexc368
.LBB15_557:
	leaq	.L.str.9(%rip), %rax
	movq	%rax, 192(%rsp)                 # 8-byte Spill
.LBB15_558:                             # %.invoke1013
.Ltmp341:
	movq	192(%rsp), %rdi                 # 8-byte Reload
	callq	_ZSt20__throw_length_errorPKc@PLT
.Ltmp342:
# %bb.559:                              # %.cont1014
.LBB15_560:
.Ltmp287:
	leaq	.L.str.40(%rip), %rdi
	callq	_ZSt20__throw_length_errorPKc@PLT
.Ltmp288:
# %bb.561:                              # %.noexc320
.LBB15_562:
.Ltmp450:
	leaq	.L.str.40(%rip), %rdi
	callq	_ZSt20__throw_length_errorPKc@PLT
.Ltmp451:
# %bb.563:                              # %.noexc403
.LBB15_564:
.Ltmp461:
	leaq	.L.str.40(%rip), %rdi
	callq	_ZSt20__throw_length_errorPKc@PLT
.Ltmp462:
# %bb.565:                              # %.noexc501
.LBB15_566:
	leaq	.L.str.9(%rip), %rax
	movq	%rax, 192(%rsp)                 # 8-byte Spill
.LBB15_567:                             # %.invoke1015
.Ltmp307:
	movq	192(%rsp), %rdi                 # 8-byte Reload
	callq	_ZSt20__throw_length_errorPKc@PLT
.Ltmp308:
# %bb.568:                              # %.cont1016
.LBB15_569:
	leaq	.L.str.8(%rip), %rdi
	jmp	.LBB15_575
.LBB15_570:
.Ltmp350:
	leaq	.L.str.40(%rip), %rdi
	callq	_ZSt20__throw_length_errorPKc@PLT
.Ltmp351:
# %bb.571:                              # %.noexc193
.LBB15_572:
.Ltmp347:
	leaq	.L.str.40(%rip), %rdi
	callq	_ZSt20__throw_length_errorPKc@PLT
.Ltmp348:
# %bb.573:                              # %.noexc200
.LBB15_574:
	leaq	.L.str.9(%rip), %rdi
.LBB15_575:                             # %.invoke1011
.Ltmp355:
	callq	_ZSt20__throw_length_errorPKc@PLT
.Ltmp356:
# %bb.576:                              # %.cont1012
.LBB15_577:
.Ltmp211:
	leaq	.L.str.34(%rip), %rdi
	callq	_ZSt19__throw_logic_errorPKc@PLT
.Ltmp212:
# %bb.578:                              # %.noexc150
.LBB15_579:
	leaq	.L.str.8(%rip), %rdi
	jmp	.LBB15_583
.LBB15_580:
.Ltmp367:
	leaq	.L.str.40(%rip), %rdi
	callq	_ZSt20__throw_length_errorPKc@PLT
.Ltmp368:
# %bb.581:                              # %.noexc169
.LBB15_582:
	leaq	.L.str.9(%rip), %rdi
.LBB15_583:                             # %.invoke1009
.Ltmp372:
	callq	_ZSt20__throw_length_errorPKc@PLT
.Ltmp373:
# %bb.584:                              # %.cont1010
.LBB15_585:                             # %.noexc.i
.Ltmp209:
	leaq	.L.str.9(%rip), %rdi
	callq	_ZSt20__throw_length_errorPKc@PLT
.Ltmp210:
# %bb.586:                              # %.noexc151
.LBB15_587:
.Ltmp246:
	jmp	.LBB15_653
.LBB15_588:
.Ltmp216:
	jmp	.LBB15_676
.LBB15_589:
.Ltmp455:
	jmp	.LBB15_674
.LBB15_590:
.Ltmp360:
	jmp	.LBB15_653
.LBB15_591:
.Ltmp225:
	jmp	.LBB15_676
.LBB15_592:
.Ltmp222:
	jmp	.LBB15_676
.LBB15_593:
.Ltmp369:
	movq	%rax, %rbx
	movq	8(%rsp), %rdi
	cmpq	%r15, %rdi
	je	.LBB15_679
# %bb.594:                              # %_ZNKSt7__cxx1112basic_stringIcSt11char_traitsIcESaIcEE11_M_is_localEv.exit.i.i177
	movq	24(%rsp), %rsi
	incq	%rsi
	callq	_ZdlPvm@PLT
	jmp	.LBB15_679
.LBB15_595:
.Ltmp377:
	jmp	.LBB15_653
.LBB15_596:
.Ltmp237:
	jmp	.LBB15_618
.LBB15_597:
.Ltmp234:
	jmp	.LBB15_618
.LBB15_598:
.Ltmp281:
	jmp	.LBB15_690
.LBB15_599:
.Ltmp219:
	jmp	.LBB15_676
.LBB15_600:
.Ltmp349:
	movq	%rax, %rbx
	movq	8(%rsp), %rdi
	cmpq	%r12, %rdi
	jne	.LBB15_603
# %bb.601:                              # %_ZNSt7__cxx1112basic_stringIcSt11char_traitsIcESaIcEED2Ev.exit214
	movq	48(%rsp), %rdi
	cmpq	%r14, %rdi
	jne	.LBB15_605
.LBB15_602:                             # %_ZNSt7__cxx1112basic_stringIcSt11char_traitsIcESaIcEED2Ev.exit217
	movq	80(%rsp), %rdi
	cmpq	144(%rsp), %rdi                 # 8-byte Folded Reload
	jne	.LBB15_682
	jmp	.LBB15_692
.LBB15_603:                             # %_ZNKSt7__cxx1112basic_stringIcSt11char_traitsIcESaIcEE11_M_is_localEv.exit.i.i212
	movq	24(%rsp), %rsi
	incq	%rsi
	callq	_ZdlPvm@PLT
	movq	48(%rsp), %rdi
	cmpq	%r14, %rdi
	je	.LBB15_602
	jmp	.LBB15_605
.LBB15_604:
.Ltmp352:
	movq	%rax, %rbx
	movq	48(%rsp), %rdi
	cmpq	%r14, %rdi
	je	.LBB15_602
.LBB15_605:                             # %_ZNKSt7__cxx1112basic_stringIcSt11char_traitsIcESaIcEE11_M_is_localEv.exit.i.i215
	movq	64(%rsp), %rsi
	incq	%rsi
	callq	_ZdlPvm@PLT
	movq	80(%rsp), %rdi
	cmpq	144(%rsp), %rdi                 # 8-byte Folded Reload
	jne	.LBB15_682
	jmp	.LBB15_692
.LBB15_606:
.Ltmp231:
	movq	%rax, %rdi
	callq	__clang_call_terminate
.LBB15_607:
.Ltmp243:
	jmp	.LBB15_653
.LBB15_608:
.Ltmp202:
	jmp	.LBB15_618
.LBB15_609:
.Ltmp312:
	jmp	.LBB15_690
.LBB15_610:
.Ltmp396:
	jmp	.LBB15_674
.LBB15_611:                             # %.loopexit561
.Ltmp292:
	jmp	.LBB15_623
.LBB15_612:                             # %.loopexit566
.Ltmp301:
	jmp	.LBB15_634
.LBB15_613:                             # %.loopexit941
.Ltmp286:
	jmp	.LBB15_686
.LBB15_614:
.Ltmp389:
	movq	%rax, %rdi
	callq	__clang_call_terminate
.LBB15_615:
.Ltmp386:
	movq	%rax, %rdi
	callq	__clang_call_terminate
.LBB15_616:
.Ltmp458:
	jmp	.LBB15_674
.LBB15_617:
.Ltmp240:
.LBB15_618:
	movq	%rax, %rbx
	jmp	.LBB15_693
.LBB15_619:
.Ltmp199:
	jmp	.LBB15_674
.LBB15_620:                             # %.loopexit.split-lp562
.Ltmp289:
	jmp	.LBB15_623
.LBB15_621:                             # %.loopexit576
.Ltmp332:
	jmp	.LBB15_634
.LBB15_622:                             # %.loopexit571
.Ltmp323:
	jmp	.LBB15_623
.LBB15_624:                             # %.loopexit945
.Ltmp317:
	jmp	.LBB15_686
.LBB15_625:
.Ltmp463:
	jmp	.LBB15_665
.LBB15_626:
.Ltmp452:
	jmp	.LBB15_674
.LBB15_627:                             # %.loopexit551
.Ltmp265:
	jmp	.LBB15_690
.LBB15_628:                             # %.loopexit556
.Ltmp268:
	jmp	.LBB15_648
.LBB15_629:                             # %.loopexit.split-lp567
.Ltmp304:
	jmp	.LBB15_634
.LBB15_630:                             # %.loopexit.split-lp572
.Ltmp320:
.LBB15_623:                             # %.loopexit571
	movq	%rax, %rbx
	movq	80(%rsp), %rdi
	leaq	96(%rsp), %rax
	cmpq	%rax, %rdi
	je	.LBB15_638
	jmp	.LBB15_646
.LBB15_631:
.Ltmp298:
	jmp	.LBB15_641
.LBB15_632:
.Ltmp295:
	jmp	.LBB15_644
.LBB15_633:                             # %.loopexit.split-lp577
.Ltmp338:
.LBB15_634:
	movq	%rax, %rbx
	movq	8(%rsp), %rdi
	leaq	24(%rsp), %rax
	cmpq	%rax, %rdi
	jne	.LBB15_639
# %bb.635:                              # %_ZNSt7__cxx1112basic_stringIcSt11char_traitsIcESaIcEED2Ev.exit278
	movq	208(%rsp), %rdi
	leaq	224(%rsp), %rax
	cmpq	%rax, %rdi
	jne	.LBB15_642
.LBB15_636:                             # %_ZNSt7__cxx1112basic_stringIcSt11char_traitsIcESaIcEED2Ev.exit281
	movq	48(%rsp), %rdi
	leaq	64(%rsp), %rax
	cmpq	%rax, %rdi
	jne	.LBB15_645
.LBB15_637:                             # %_ZNSt7__cxx1112basic_stringIcSt11char_traitsIcESaIcEED2Ev.exit284
	movq	80(%rsp), %rdi
	leaq	96(%rsp), %rax
	cmpq	%rax, %rdi
	jne	.LBB15_646
.LBB15_638:                             # %_ZNSt7__cxx1112basic_stringIcSt11char_traitsIcESaIcEED2Ev.exit287
	movq	112(%rsp), %rdi
	leaq	128(%rsp), %rax
	cmpq	%rax, %rdi
	jne	.LBB15_687
	jmp	.LBB15_691
.LBB15_639:                             # %_ZNKSt7__cxx1112basic_stringIcSt11char_traitsIcESaIcEE11_M_is_localEv.exit.i.i276
	movq	24(%rsp), %rsi
	incq	%rsi
	callq	_ZdlPvm@PLT
	movq	208(%rsp), %rdi
	leaq	224(%rsp), %rax
	cmpq	%rax, %rdi
	je	.LBB15_636
	jmp	.LBB15_642
.LBB15_640:
.Ltmp329:
.LBB15_641:
	movq	%rax, %rbx
	movq	208(%rsp), %rdi
	leaq	224(%rsp), %rax
	cmpq	%rax, %rdi
	je	.LBB15_636
.LBB15_642:                             # %_ZNKSt7__cxx1112basic_stringIcSt11char_traitsIcESaIcEE11_M_is_localEv.exit.i.i279
	movq	224(%rsp), %rsi
	incq	%rsi
	callq	_ZdlPvm@PLT
	movq	48(%rsp), %rdi
	leaq	64(%rsp), %rax
	cmpq	%rax, %rdi
	je	.LBB15_637
.LBB15_645:                             # %_ZNKSt7__cxx1112basic_stringIcSt11char_traitsIcESaIcEE11_M_is_localEv.exit.i.i282
	movq	64(%rsp), %rsi
	incq	%rsi
	callq	_ZdlPvm@PLT
	movq	80(%rsp), %rdi
	leaq	96(%rsp), %rax
	cmpq	%rax, %rdi
	je	.LBB15_638
.LBB15_646:                             # %_ZNKSt7__cxx1112basic_stringIcSt11char_traitsIcESaIcEE11_M_is_localEv.exit.i.i285
	movq	96(%rsp), %rsi
	incq	%rsi
	callq	_ZdlPvm@PLT
	movq	112(%rsp), %rdi
	leaq	128(%rsp), %rax
	cmpq	%rax, %rdi
	jne	.LBB15_687
	jmp	.LBB15_691
.LBB15_643:
.Ltmp326:
.LBB15_644:
	movq	%rax, %rbx
	movq	48(%rsp), %rdi
	leaq	64(%rsp), %rax
	cmpq	%rax, %rdi
	je	.LBB15_637
	jmp	.LBB15_645
.LBB15_647:                             # %.loopexit.split-lp557
.Ltmp271:
.LBB15_648:
	movq	%rax, %rbx
	movq	8(%rsp), %rdi
	leaq	24(%rsp), %rax
	cmpq	%rax, %rdi
	je	.LBB15_691
# %bb.649:                              # %_ZNKSt7__cxx1112basic_stringIcSt11char_traitsIcESaIcEE11_M_is_localEv.exit.i.i383
	movq	24(%rsp), %rsi
	jmp	.LBB15_688
.LBB15_650:
.Ltmp262:
	jmp	.LBB15_690
.LBB15_651:
.Ltmp335:
	movq	%rax, %rdi
	callq	__clang_call_terminate
.LBB15_652:
.Ltmp257:
.LBB15_653:
	movq	%rax, %rbx
	jmp	.LBB15_692
.LBB15_654:                             # %.loopexit535
.Ltmp411:
	jmp	.LBB15_668
.LBB15_655:                             # %.loopexit540
.Ltmp419:
	jmp	.LBB15_665
.LBB15_656:
.Ltmp416:
	movq	%rax, %rdi
	callq	__clang_call_terminate
.LBB15_657:                             # %.loopexit545
.Ltmp427:
	jmp	.LBB15_668
.LBB15_658:
.Ltmp401:
	jmp	.LBB15_674
.LBB15_659:
.Ltmp408:
	movq	%rax, %rbx
	movq	8(%rsp), %rdi
	cmpq	%rbp, %rdi
	je	.LBB15_694
	jmp	.LBB15_660
.LBB15_661:
.Ltmp424:
	movq	%rax, %rbx
	movq	8(%rsp), %rdi
	cmpq	%r14, %rdi
	jne	.LBB15_660
	jmp	.LBB15_694
.LBB15_663:                             # %.loopexit.split-lp546
.Ltmp440:
	jmp	.LBB15_668
.LBB15_664:                             # %.loopexit.split-lp541
.Ltmp443:
.LBB15_665:
	movq	%rax, %rbx
	movq	8(%rsp), %rdi
	leaq	24(%rsp), %rax
	cmpq	%rax, %rdi
	je	.LBB15_694
.LBB15_660:                             # %_ZNKSt7__cxx1112basic_stringIcSt11char_traitsIcESaIcEE11_M_is_localEv.exit.i.i.i519
	movq	24(%rsp), %rsi
	jmp	.LBB15_670
.LBB15_667:                             # %.loopexit.split-lp536
.Ltmp446:
.LBB15_668:
	movq	%rax, %rbx
	movq	48(%rsp), %rdi
	leaq	64(%rsp), %rax
	cmpq	%rax, %rdi
	je	.LBB15_694
# %bb.669:                              # %_ZNKSt7__cxx1112basic_stringIcSt11char_traitsIcESaIcEE11_M_is_localEv.exit.i.i482
	movq	64(%rsp), %rsi
.LBB15_670:                             # %.body
	incq	%rsi
	callq	_ZdlPvm@PLT
	jmp	.LBB15_694
.LBB15_671:
.Ltmp437:
	jmp	.LBB15_674
.LBB15_672:                             # %.loopexit.split-lp
.Ltmp449:
	jmp	.LBB15_674
.LBB15_673:                             # %.loopexit534
.Ltmp432:
.LBB15_674:
	movq	%rax, %rbx
	jmp	.LBB15_694
.LBB15_675:
.Ltmp213:
.LBB15_676:
	movq	%rax, %rbx
.Ltmp226:
	leaq	48(%rsp), %rdi
	callq	_ZNKR8pybind116handle7dec_refEv
.Ltmp227:
	jmp	.LBB15_693
.LBB15_677:
.Ltmp228:
	movq	%rax, %rdi
	callq	__clang_call_terminate
.LBB15_678:
.Ltmp374:
	movq	%rax, %rbx
.LBB15_679:                             # %_ZNSt7__cxx1112basic_stringIcSt11char_traitsIcESaIcEED2Ev.exit179
	movq	48(%rsp), %rdi
	leaq	64(%rsp), %rax
	cmpq	%rax, %rdi
	je	.LBB15_692
# %bb.680:                              # %_ZNKSt7__cxx1112basic_stringIcSt11char_traitsIcESaIcEE11_M_is_localEv.exit.i.i180
	movq	64(%rsp), %rsi
	jmp	.LBB15_683
.LBB15_681:
.Ltmp357:
	movq	%rax, %rbx
	movq	80(%rsp), %rdi
	cmpq	144(%rsp), %rdi                 # 8-byte Folded Reload
	je	.LBB15_692
.LBB15_682:                             # %_ZNKSt7__cxx1112basic_stringIcSt11char_traitsIcESaIcEE11_M_is_localEv.exit.i.i218
	movq	96(%rsp), %rsi
.LBB15_683:
	incq	%rsi
	callq	_ZdlPvm@PLT
	jmp	.LBB15_692
.LBB15_684:                             # %.loopexit.split-lp942
.Ltmp309:
	jmp	.LBB15_686
.LBB15_685:                             # %.loopexit.split-lp946
.Ltmp343:
.LBB15_686:                             # %.loopexit.split-lp946
	movq	%rax, %rbx
	movq	112(%rsp), %rdi
	leaq	128(%rsp), %rax
	cmpq	%rax, %rdi
	je	.LBB15_691
.LBB15_687:                             # %_ZNKSt7__cxx1112basic_stringIcSt11char_traitsIcESaIcEE11_M_is_localEv.exit.i.i288
	movq	128(%rsp), %rsi
.LBB15_688:
	incq	%rsi
	callq	_ZdlPvm@PLT
	jmp	.LBB15_691
.LBB15_689:                             # %.loopexit.split-lp552
.Ltmp278:
.LBB15_690:
	movq	%rax, %rbx
.LBB15_691:
.Ltmp344:
	leaq	264(%rsp), %rdi
	callq	_ZNKR8pybind116handle7dec_refEv
.Ltmp345:
.LBB15_692:
.Ltmp378:
	leaq	200(%rsp), %rdi
	callq	_ZNKR8pybind116handle7dec_refEv
.Ltmp379:
.LBB15_693:
.Ltmp381:
	leaq	272(%rsp), %rdi
	callq	_ZNKR8pybind116handle7dec_refEv
.Ltmp382:
.LBB15_694:
	movq	152(%rsp), %rdi
	leaq	168(%rsp), %rax
	cmpq	%rax, %rdi
	je	.LBB15_696
# %bb.695:                              # %_ZNKSt7__cxx1112basic_stringIcSt11char_traitsIcESaIcEE11_M_is_localEv.exit.i.i513
	movq	168(%rsp), %rsi
	incq	%rsi
	callq	_ZdlPvm@PLT
.LBB15_696:                             # %_ZNSt7__cxx1112basic_stringIcSt11char_traitsIcESaIcEED2Ev.exit515
	movq	(%rsp), %rax                    # 8-byte Reload
	movq	(%rax), %rdi
	movq	40(%rsp), %rax                  # 8-byte Reload
	cmpq	%rax, %rdi
	je	.LBB15_698
# %bb.697:                              # %_ZNKSt7__cxx1112basic_stringIcSt11char_traitsIcESaIcEE11_M_is_localEv.exit.i.i516
	movq	(%rax), %rsi
	incq	%rsi
	callq	_ZdlPvm@PLT
.LBB15_698:                             # %_ZNSt7__cxx1112basic_stringIcSt11char_traitsIcESaIcEED2Ev.exit518
	movq	%rbx, %rdi
	callq	_Unwind_Resume@PLT
.LBB15_699:
.Ltmp383:
	movq	%rax, %rdi
	callq	__clang_call_terminate
.LBB15_700:
.Ltmp380:
	movq	%rax, %rdi
	callq	__clang_call_terminate
.LBB15_701:
.Ltmp346:
	movq	%rax, %rdi
	callq	__clang_call_terminate
.Lfunc_end15:
	.size	_ZNK8pybind116detail25error_fetch_and_normalize22format_value_and_traceB5cxx11Ev, .Lfunc_end15-_ZNK8pybind116detail25error_fetch_and_normalize22format_value_and_traceB5cxx11Ev
	.cfi_endproc
	.section	.gcc_except_table._ZNK8pybind116detail25error_fetch_and_normalize22format_value_and_traceB5cxx11Ev,"aG",@progbits,_ZNK8pybind116detail25error_fetch_and_normalize22format_value_and_traceB5cxx11Ev,comdat
	.p2align	2, 0x0
GCC_except_table15:
.Lexception8:
	.byte	255                             # @LPStart Encoding = omit
	.byte	155                             # @TType Encoding = indirect pcrel sdata4
	.uleb128 .Lttbase5-.Lttbaseref5
.Lttbaseref5:
	.byte	1                               # Call site Encoding = uleb128
	.uleb128 .Lcst_end8-.Lcst_begin8
.Lcst_begin8:
	.uleb128 .Ltmp197-.Lfunc_begin8         # >> Call Site 1 <<
	.uleb128 .Ltmp198-.Ltmp197              #   Call between .Ltmp197 and .Ltmp198
	.uleb128 .Ltmp199-.Lfunc_begin8         #     jumps to .Ltmp199
	.byte	0                               #   On action: cleanup
	.uleb128 .Ltmp200-.Lfunc_begin8         # >> Call Site 2 <<
	.uleb128 .Ltmp201-.Ltmp200              #   Call between .Ltmp200 and .Ltmp201
	.uleb128 .Ltmp202-.Lfunc_begin8         #     jumps to .Ltmp202
	.byte	0                               #   On action: cleanup
	.uleb128 .Ltmp203-.Lfunc_begin8         # >> Call Site 3 <<
	.uleb128 .Ltmp204-.Ltmp203              #   Call between .Ltmp203 and .Ltmp204
	.uleb128 .Ltmp219-.Lfunc_begin8         #     jumps to .Ltmp219
	.byte	0                               #   On action: cleanup
	.uleb128 .Ltmp205-.Lfunc_begin8         # >> Call Site 4 <<
	.uleb128 .Ltmp206-.Ltmp205              #   Call between .Ltmp205 and .Ltmp206
	.uleb128 .Ltmp213-.Lfunc_begin8         #     jumps to .Ltmp213
	.byte	0                               #   On action: cleanup
	.uleb128 .Ltmp390-.Lfunc_begin8         # >> Call Site 5 <<
	.uleb128 .Ltmp395-.Ltmp390              #   Call between .Ltmp390 and .Ltmp395
	.uleb128 .Ltmp396-.Lfunc_begin8         #     jumps to .Ltmp396
	.byte	0                               #   On action: cleanup
	.uleb128 .Ltmp232-.Lfunc_begin8         # >> Call Site 6 <<
	.uleb128 .Ltmp233-.Ltmp232              #   Call between .Ltmp232 and .Ltmp233
	.uleb128 .Ltmp234-.Lfunc_begin8         #     jumps to .Ltmp234
	.byte	0                               #   On action: cleanup
	.uleb128 .Ltmp220-.Lfunc_begin8         # >> Call Site 7 <<
	.uleb128 .Ltmp221-.Ltmp220              #   Call between .Ltmp220 and .Ltmp221
	.uleb128 .Ltmp222-.Lfunc_begin8         #     jumps to .Ltmp222
	.byte	0                               #   On action: cleanup
	.uleb128 .Ltmp214-.Lfunc_begin8         # >> Call Site 8 <<
	.uleb128 .Ltmp215-.Ltmp214              #   Call between .Ltmp214 and .Ltmp215
	.uleb128 .Ltmp216-.Lfunc_begin8         #     jumps to .Ltmp216
	.byte	0                               #   On action: cleanup
	.uleb128 .Ltmp215-.Lfunc_begin8         # >> Call Site 9 <<
	.uleb128 .Ltmp235-.Ltmp215              #   Call between .Ltmp215 and .Ltmp235
	.byte	0                               #     has no landing pad
	.byte	0                               #   On action: cleanup
	.uleb128 .Ltmp235-.Lfunc_begin8         # >> Call Site 10 <<
	.uleb128 .Ltmp236-.Ltmp235              #   Call between .Ltmp235 and .Ltmp236
	.uleb128 .Ltmp237-.Lfunc_begin8         #     jumps to .Ltmp237
	.byte	0                               #   On action: cleanup
	.uleb128 .Ltmp236-.Lfunc_begin8         # >> Call Site 11 <<
	.uleb128 .Ltmp223-.Ltmp236              #   Call between .Ltmp236 and .Ltmp223
	.byte	0                               #     has no landing pad
	.byte	0                               #   On action: cleanup
	.uleb128 .Ltmp223-.Lfunc_begin8         # >> Call Site 12 <<
	.uleb128 .Ltmp224-.Ltmp223              #   Call between .Ltmp223 and .Ltmp224
	.uleb128 .Ltmp225-.Lfunc_begin8         #     jumps to .Ltmp225
	.byte	0                               #   On action: cleanup
	.uleb128 .Ltmp224-.Lfunc_begin8         # >> Call Site 13 <<
	.uleb128 .Ltmp217-.Ltmp224              #   Call between .Ltmp224 and .Ltmp217
	.byte	0                               #     has no landing pad
	.byte	0                               #   On action: cleanup
	.uleb128 .Ltmp217-.Lfunc_begin8         # >> Call Site 14 <<
	.uleb128 .Ltmp218-.Ltmp217              #   Call between .Ltmp217 and .Ltmp218
	.uleb128 .Ltmp219-.Lfunc_begin8         #     jumps to .Ltmp219
	.byte	0                               #   On action: cleanup
	.uleb128 .Ltmp229-.Lfunc_begin8         # >> Call Site 15 <<
	.uleb128 .Ltmp230-.Ltmp229              #   Call between .Ltmp229 and .Ltmp230
	.uleb128 .Ltmp231-.Lfunc_begin8         #     jumps to .Ltmp231
	.byte	1                               #   On action: 1
	.uleb128 .Ltmp238-.Lfunc_begin8         # >> Call Site 16 <<
	.uleb128 .Ltmp239-.Ltmp238              #   Call between .Ltmp238 and .Ltmp239
	.uleb128 .Ltmp240-.Lfunc_begin8         #     jumps to .Ltmp240
	.byte	0                               #   On action: cleanup
	.uleb128 .Ltmp241-.Lfunc_begin8         # >> Call Site 17 <<
	.uleb128 .Ltmp242-.Ltmp241              #   Call between .Ltmp241 and .Ltmp242
	.uleb128 .Ltmp243-.Lfunc_begin8         #     jumps to .Ltmp243
	.byte	0                               #   On action: cleanup
	.uleb128 .Ltmp375-.Lfunc_begin8         # >> Call Site 18 <<
	.uleb128 .Ltmp376-.Ltmp375              #   Call between .Ltmp375 and .Ltmp376
	.uleb128 .Ltmp377-.Lfunc_begin8         #     jumps to .Ltmp377
	.byte	0                               #   On action: cleanup
	.uleb128 .Ltmp358-.Lfunc_begin8         # >> Call Site 19 <<
	.uleb128 .Ltmp359-.Ltmp358              #   Call between .Ltmp358 and .Ltmp359
	.uleb128 .Ltmp360-.Lfunc_begin8         #     jumps to .Ltmp360
	.byte	0                               #   On action: cleanup
	.uleb128 .Ltmp363-.Lfunc_begin8         # >> Call Site 20 <<
	.uleb128 .Ltmp364-.Ltmp363              #   Call between .Ltmp363 and .Ltmp364
	.uleb128 .Ltmp374-.Lfunc_begin8         #     jumps to .Ltmp374
	.byte	0                               #   On action: cleanup
	.uleb128 .Ltmp244-.Lfunc_begin8         # >> Call Site 21 <<
	.uleb128 .Ltmp245-.Ltmp244              #   Call between .Ltmp244 and .Ltmp245
	.uleb128 .Ltmp246-.Lfunc_begin8         #     jumps to .Ltmp246
	.byte	0                               #   On action: cleanup
	.uleb128 .Ltmp245-.Lfunc_begin8         # >> Call Site 22 <<
	.uleb128 .Ltmp249-.Ltmp245              #   Call between .Ltmp245 and .Ltmp249
	.byte	0                               #     has no landing pad
	.byte	0                               #   On action: cleanup
	.uleb128 .Ltmp249-.Lfunc_begin8         # >> Call Site 23 <<
	.uleb128 .Ltmp250-.Ltmp249              #   Call between .Ltmp249 and .Ltmp250
	.uleb128 .Ltmp357-.Lfunc_begin8         #     jumps to .Ltmp357
	.byte	0                               #   On action: cleanup
	.uleb128 .Ltmp250-.Lfunc_begin8         # >> Call Site 24 <<
	.uleb128 .Ltmp251-.Ltmp250              #   Call between .Ltmp250 and .Ltmp251
	.byte	0                               #     has no landing pad
	.byte	0                               #   On action: cleanup
	.uleb128 .Ltmp251-.Lfunc_begin8         # >> Call Site 25 <<
	.uleb128 .Ltmp252-.Ltmp251              #   Call between .Ltmp251 and .Ltmp252
	.uleb128 .Ltmp352-.Lfunc_begin8         #     jumps to .Ltmp352
	.byte	0                               #   On action: cleanup
	.uleb128 .Ltmp252-.Lfunc_begin8         # >> Call Site 26 <<
	.uleb128 .Ltmp253-.Ltmp252              #   Call between .Ltmp252 and .Ltmp253
	.byte	0                               #     has no landing pad
	.byte	0                               #   On action: cleanup
	.uleb128 .Ltmp253-.Lfunc_begin8         # >> Call Site 27 <<
	.uleb128 .Ltmp254-.Ltmp253              #   Call between .Ltmp253 and .Ltmp254
	.uleb128 .Ltmp349-.Lfunc_begin8         #     jumps to .Ltmp349
	.byte	0                               #   On action: cleanup
	.uleb128 .Ltmp254-.Lfunc_begin8         # >> Call Site 28 <<
	.uleb128 .Ltmp255-.Ltmp254              #   Call between .Ltmp254 and .Ltmp255
	.byte	0                               #     has no landing pad
	.byte	0                               #   On action: cleanup
	.uleb128 .Ltmp255-.Lfunc_begin8         # >> Call Site 29 <<
	.uleb128 .Ltmp256-.Ltmp255              #   Call between .Ltmp255 and .Ltmp256
	.uleb128 .Ltmp257-.Lfunc_begin8         #     jumps to .Ltmp257
	.byte	0                               #   On action: cleanup
	.uleb128 .Ltmp258-.Lfunc_begin8         # >> Call Site 30 <<
	.uleb128 .Ltmp261-.Ltmp258              #   Call between .Ltmp258 and .Ltmp261
	.uleb128 .Ltmp262-.Lfunc_begin8         #     jumps to .Ltmp262
	.byte	0                               #   On action: cleanup
	.uleb128 .Ltmp263-.Lfunc_begin8         # >> Call Site 31 <<
	.uleb128 .Ltmp264-.Ltmp263              #   Call between .Ltmp263 and .Ltmp264
	.uleb128 .Ltmp265-.Lfunc_begin8         #     jumps to .Ltmp265
	.byte	0                               #   On action: cleanup
	.uleb128 .Ltmp264-.Lfunc_begin8         # >> Call Site 32 <<
	.uleb128 .Ltmp266-.Ltmp264              #   Call between .Ltmp264 and .Ltmp266
	.byte	0                               #     has no landing pad
	.byte	0                               #   On action: cleanup
	.uleb128 .Ltmp266-.Lfunc_begin8         # >> Call Site 33 <<
	.uleb128 .Ltmp267-.Ltmp266              #   Call between .Ltmp266 and .Ltmp267
	.uleb128 .Ltmp268-.Lfunc_begin8         #     jumps to .Ltmp268
	.byte	0                               #   On action: cleanup
	.uleb128 .Ltmp267-.Lfunc_begin8         # >> Call Site 34 <<
	.uleb128 .Ltmp310-.Ltmp267              #   Call between .Ltmp267 and .Ltmp310
	.byte	0                               #     has no landing pad
	.byte	0                               #   On action: cleanup
	.uleb128 .Ltmp310-.Lfunc_begin8         # >> Call Site 35 <<
	.uleb128 .Ltmp311-.Ltmp310              #   Call between .Ltmp310 and .Ltmp311
	.uleb128 .Ltmp312-.Lfunc_begin8         #     jumps to .Ltmp312
	.byte	0                               #   On action: cleanup
	.uleb128 .Ltmp311-.Lfunc_begin8         # >> Call Site 36 <<
	.uleb128 .Ltmp315-.Ltmp311              #   Call between .Ltmp311 and .Ltmp315
	.byte	0                               #     has no landing pad
	.byte	0                               #   On action: cleanup
	.uleb128 .Ltmp315-.Lfunc_begin8         # >> Call Site 37 <<
	.uleb128 .Ltmp316-.Ltmp315              #   Call between .Ltmp315 and .Ltmp316
	.uleb128 .Ltmp317-.Lfunc_begin8         #     jumps to .Ltmp317
	.byte	0                               #   On action: cleanup
	.uleb128 .Ltmp316-.Lfunc_begin8         # >> Call Site 38 <<
	.uleb128 .Ltmp321-.Ltmp316              #   Call between .Ltmp316 and .Ltmp321
	.byte	0                               #     has no landing pad
	.byte	0                               #   On action: cleanup
	.uleb128 .Ltmp321-.Lfunc_begin8         # >> Call Site 39 <<
	.uleb128 .Ltmp322-.Ltmp321              #   Call between .Ltmp321 and .Ltmp322
	.uleb128 .Ltmp323-.Lfunc_begin8         #     jumps to .Ltmp323
	.byte	0                               #   On action: cleanup
	.uleb128 .Ltmp322-.Lfunc_begin8         # >> Call Site 40 <<
	.uleb128 .Ltmp324-.Ltmp322              #   Call between .Ltmp322 and .Ltmp324
	.byte	0                               #     has no landing pad
	.byte	0                               #   On action: cleanup
	.uleb128 .Ltmp324-.Lfunc_begin8         # >> Call Site 41 <<
	.uleb128 .Ltmp325-.Ltmp324              #   Call between .Ltmp324 and .Ltmp325
	.uleb128 .Ltmp326-.Lfunc_begin8         #     jumps to .Ltmp326
	.byte	0                               #   On action: cleanup
	.uleb128 .Ltmp327-.Lfunc_begin8         # >> Call Site 42 <<
	.uleb128 .Ltmp328-.Ltmp327              #   Call between .Ltmp327 and .Ltmp328
	.uleb128 .Ltmp329-.Lfunc_begin8         #     jumps to .Ltmp329
	.byte	0                               #   On action: cleanup
	.uleb128 .Ltmp330-.Lfunc_begin8         # >> Call Site 43 <<
	.uleb128 .Ltmp331-.Ltmp330              #   Call between .Ltmp330 and .Ltmp331
	.uleb128 .Ltmp332-.Lfunc_begin8         #     jumps to .Ltmp332
	.byte	0                               #   On action: cleanup
	.uleb128 .Ltmp331-.Lfunc_begin8         # >> Call Site 44 <<
	.uleb128 .Ltmp279-.Ltmp331              #   Call between .Ltmp331 and .Ltmp279
	.byte	0                               #     has no landing pad
	.byte	0                               #   On action: cleanup
	.uleb128 .Ltmp279-.Lfunc_begin8         # >> Call Site 45 <<
	.uleb128 .Ltmp280-.Ltmp279              #   Call between .Ltmp279 and .Ltmp280
	.uleb128 .Ltmp281-.Lfunc_begin8         #     jumps to .Ltmp281
	.byte	0                               #   On action: cleanup
	.uleb128 .Ltmp280-.Lfunc_begin8         # >> Call Site 46 <<
	.uleb128 .Ltmp284-.Ltmp280              #   Call between .Ltmp280 and .Ltmp284
	.byte	0                               #     has no landing pad
	.byte	0                               #   On action: cleanup
	.uleb128 .Ltmp284-.Lfunc_begin8         # >> Call Site 47 <<
	.uleb128 .Ltmp285-.Ltmp284              #   Call between .Ltmp284 and .Ltmp285
	.uleb128 .Ltmp286-.Lfunc_begin8         #     jumps to .Ltmp286
	.byte	0                               #   On action: cleanup
	.uleb128 .Ltmp285-.Lfunc_begin8         # >> Call Site 48 <<
	.uleb128 .Ltmp290-.Ltmp285              #   Call between .Ltmp285 and .Ltmp290
	.byte	0                               #     has no landing pad
	.byte	0                               #   On action: cleanup
	.uleb128 .Ltmp290-.Lfunc_begin8         # >> Call Site 49 <<
	.uleb128 .Ltmp291-.Ltmp290              #   Call between .Ltmp290 and .Ltmp291
	.uleb128 .Ltmp292-.Lfunc_begin8         #     jumps to .Ltmp292
	.byte	0                               #   On action: cleanup
	.uleb128 .Ltmp291-.Lfunc_begin8         # >> Call Site 50 <<
	.uleb128 .Ltmp293-.Ltmp291              #   Call between .Ltmp291 and .Ltmp293
	.byte	0                               #     has no landing pad
	.byte	0                               #   On action: cleanup
	.uleb128 .Ltmp293-.Lfunc_begin8         # >> Call Site 51 <<
	.uleb128 .Ltmp294-.Ltmp293              #   Call between .Ltmp293 and .Ltmp294
	.uleb128 .Ltmp295-.Lfunc_begin8         #     jumps to .Ltmp295
	.byte	0                               #   On action: cleanup
	.uleb128 .Ltmp296-.Lfunc_begin8         # >> Call Site 52 <<
	.uleb128 .Ltmp297-.Ltmp296              #   Call between .Ltmp296 and .Ltmp297
	.uleb128 .Ltmp298-.Lfunc_begin8         #     jumps to .Ltmp298
	.byte	0                               #   On action: cleanup
	.uleb128 .Ltmp299-.Lfunc_begin8         # >> Call Site 53 <<
	.uleb128 .Ltmp300-.Ltmp299              #   Call between .Ltmp299 and .Ltmp300
	.uleb128 .Ltmp301-.Lfunc_begin8         #     jumps to .Ltmp301
	.byte	0                               #   On action: cleanup
	.uleb128 .Ltmp300-.Lfunc_begin8         # >> Call Site 54 <<
	.uleb128 .Ltmp333-.Ltmp300              #   Call between .Ltmp300 and .Ltmp333
	.byte	0                               #     has no landing pad
	.byte	0                               #   On action: cleanup
	.uleb128 .Ltmp333-.Lfunc_begin8         # >> Call Site 55 <<
	.uleb128 .Ltmp334-.Ltmp333              #   Call between .Ltmp333 and .Ltmp334
	.uleb128 .Ltmp335-.Lfunc_begin8         #     jumps to .Ltmp335
	.byte	1                               #   On action: 1
	.uleb128 .Ltmp334-.Lfunc_begin8         # >> Call Site 56 <<
	.uleb128 .Ltmp313-.Ltmp334              #   Call between .Ltmp334 and .Ltmp313
	.byte	0                               #     has no landing pad
	.byte	0                               #   On action: cleanup
	.uleb128 .Ltmp313-.Lfunc_begin8         # >> Call Site 57 <<
	.uleb128 .Ltmp314-.Ltmp313              #   Call between .Ltmp313 and .Ltmp314
	.uleb128 .Ltmp317-.Lfunc_begin8         #     jumps to .Ltmp317
	.byte	0                               #   On action: cleanup
	.uleb128 .Ltmp282-.Lfunc_begin8         # >> Call Site 58 <<
	.uleb128 .Ltmp283-.Ltmp282              #   Call between .Ltmp282 and .Ltmp283
	.uleb128 .Ltmp286-.Lfunc_begin8         #     jumps to .Ltmp286
	.byte	0                               #   On action: cleanup
	.uleb128 .Ltmp283-.Lfunc_begin8         # >> Call Site 59 <<
	.uleb128 .Ltmp365-.Ltmp283              #   Call between .Ltmp283 and .Ltmp365
	.byte	0                               #     has no landing pad
	.byte	0                               #   On action: cleanup
	.uleb128 .Ltmp365-.Lfunc_begin8         # >> Call Site 60 <<
	.uleb128 .Ltmp366-.Ltmp365              #   Call between .Ltmp365 and .Ltmp366
	.uleb128 .Ltmp369-.Lfunc_begin8         #     jumps to .Ltmp369
	.byte	0                               #   On action: cleanup
	.uleb128 .Ltmp366-.Lfunc_begin8         # >> Call Site 61 <<
	.uleb128 .Ltmp384-.Ltmp366              #   Call between .Ltmp366 and .Ltmp384
	.byte	0                               #     has no landing pad
	.byte	0                               #   On action: cleanup
	.uleb128 .Ltmp384-.Lfunc_begin8         # >> Call Site 62 <<
	.uleb128 .Ltmp385-.Ltmp384              #   Call between .Ltmp384 and .Ltmp385
	.uleb128 .Ltmp386-.Lfunc_begin8         #     jumps to .Ltmp386
	.byte	1                               #   On action: 1
	.uleb128 .Ltmp387-.Lfunc_begin8         # >> Call Site 63 <<
	.uleb128 .Ltmp388-.Ltmp387              #   Call between .Ltmp387 and .Ltmp388
	.uleb128 .Ltmp389-.Lfunc_begin8         #     jumps to .Ltmp389
	.byte	1                               #   On action: 1
	.uleb128 .Ltmp397-.Lfunc_begin8         # >> Call Site 64 <<
	.uleb128 .Ltmp398-.Ltmp397              #   Call between .Ltmp397 and .Ltmp398
	.uleb128 .Ltmp452-.Lfunc_begin8         #     jumps to .Ltmp452
	.byte	0                               #   On action: cleanup
	.uleb128 .Ltmp453-.Lfunc_begin8         # >> Call Site 65 <<
	.uleb128 .Ltmp454-.Ltmp453              #   Call between .Ltmp453 and .Ltmp454
	.uleb128 .Ltmp455-.Lfunc_begin8         #     jumps to .Ltmp455
	.byte	0                               #   On action: cleanup
	.uleb128 .Ltmp399-.Lfunc_begin8         # >> Call Site 66 <<
	.uleb128 .Ltmp400-.Ltmp399              #   Call between .Ltmp399 and .Ltmp400
	.uleb128 .Ltmp401-.Lfunc_begin8         #     jumps to .Ltmp401
	.byte	0                               #   On action: cleanup
	.uleb128 .Ltmp402-.Lfunc_begin8         # >> Call Site 67 <<
	.uleb128 .Ltmp405-.Ltmp402              #   Call between .Ltmp402 and .Ltmp405
	.uleb128 .Ltmp432-.Lfunc_begin8         #     jumps to .Ltmp432
	.byte	0                               #   On action: cleanup
	.uleb128 .Ltmp406-.Lfunc_begin8         # >> Call Site 68 <<
	.uleb128 .Ltmp407-.Ltmp406              #   Call between .Ltmp406 and .Ltmp407
	.uleb128 .Ltmp408-.Lfunc_begin8         #     jumps to .Ltmp408
	.byte	0                               #   On action: cleanup
	.uleb128 .Ltmp407-.Lfunc_begin8         # >> Call Site 69 <<
	.uleb128 .Ltmp409-.Ltmp407              #   Call between .Ltmp407 and .Ltmp409
	.byte	0                               #     has no landing pad
	.byte	0                               #   On action: cleanup
	.uleb128 .Ltmp409-.Lfunc_begin8         # >> Call Site 70 <<
	.uleb128 .Ltmp410-.Ltmp409              #   Call between .Ltmp409 and .Ltmp410
	.uleb128 .Ltmp411-.Lfunc_begin8         #     jumps to .Ltmp411
	.byte	0                               #   On action: cleanup
	.uleb128 .Ltmp410-.Lfunc_begin8         # >> Call Site 71 <<
	.uleb128 .Ltmp412-.Ltmp410              #   Call between .Ltmp410 and .Ltmp412
	.byte	0                               #     has no landing pad
	.byte	0                               #   On action: cleanup
	.uleb128 .Ltmp412-.Lfunc_begin8         # >> Call Site 72 <<
	.uleb128 .Ltmp413-.Ltmp412              #   Call between .Ltmp412 and .Ltmp413
	.uleb128 .Ltmp432-.Lfunc_begin8         #     jumps to .Ltmp432
	.byte	0                               #   On action: cleanup
	.uleb128 .Ltmp414-.Lfunc_begin8         # >> Call Site 73 <<
	.uleb128 .Ltmp415-.Ltmp414              #   Call between .Ltmp414 and .Ltmp415
	.uleb128 .Ltmp416-.Lfunc_begin8         #     jumps to .Ltmp416
	.byte	1                               #   On action: 1
	.uleb128 .Ltmp415-.Lfunc_begin8         # >> Call Site 74 <<
	.uleb128 .Ltmp417-.Ltmp415              #   Call between .Ltmp415 and .Ltmp417
	.byte	0                               #     has no landing pad
	.byte	0                               #   On action: cleanup
	.uleb128 .Ltmp417-.Lfunc_begin8         # >> Call Site 75 <<
	.uleb128 .Ltmp418-.Ltmp417              #   Call between .Ltmp417 and .Ltmp418
	.uleb128 .Ltmp419-.Lfunc_begin8         #     jumps to .Ltmp419
	.byte	0                               #   On action: cleanup
	.uleb128 .Ltmp418-.Lfunc_begin8         # >> Call Site 76 <<
	.uleb128 .Ltmp420-.Ltmp418              #   Call between .Ltmp418 and .Ltmp420
	.byte	0                               #     has no landing pad
	.byte	0                               #   On action: cleanup
	.uleb128 .Ltmp420-.Lfunc_begin8         # >> Call Site 77 <<
	.uleb128 .Ltmp421-.Ltmp420              #   Call between .Ltmp420 and .Ltmp421
	.uleb128 .Ltmp432-.Lfunc_begin8         #     jumps to .Ltmp432
	.byte	0                               #   On action: cleanup
	.uleb128 .Ltmp422-.Lfunc_begin8         # >> Call Site 78 <<
	.uleb128 .Ltmp423-.Ltmp422              #   Call between .Ltmp422 and .Ltmp423
	.uleb128 .Ltmp424-.Lfunc_begin8         #     jumps to .Ltmp424
	.byte	0                               #   On action: cleanup
	.uleb128 .Ltmp423-.Lfunc_begin8         # >> Call Site 79 <<
	.uleb128 .Ltmp425-.Ltmp423              #   Call between .Ltmp423 and .Ltmp425
	.byte	0                               #     has no landing pad
	.byte	0                               #   On action: cleanup
	.uleb128 .Ltmp425-.Lfunc_begin8         # >> Call Site 80 <<
	.uleb128 .Ltmp426-.Ltmp425              #   Call between .Ltmp425 and .Ltmp426
	.uleb128 .Ltmp427-.Lfunc_begin8         #     jumps to .Ltmp427
	.byte	0                               #   On action: cleanup
	.uleb128 .Ltmp426-.Lfunc_begin8         # >> Call Site 81 <<
	.uleb128 .Ltmp428-.Ltmp426              #   Call between .Ltmp426 and .Ltmp428
	.byte	0                               #     has no landing pad
	.byte	0                               #   On action: cleanup
	.uleb128 .Ltmp428-.Lfunc_begin8         # >> Call Site 82 <<
	.uleb128 .Ltmp431-.Ltmp428              #   Call between .Ltmp428 and .Ltmp431
	.uleb128 .Ltmp432-.Lfunc_begin8         #     jumps to .Ltmp432
	.byte	0                               #   On action: cleanup
	.uleb128 .Ltmp433-.Lfunc_begin8         # >> Call Site 83 <<
	.uleb128 .Ltmp436-.Ltmp433              #   Call between .Ltmp433 and .Ltmp436
	.uleb128 .Ltmp437-.Lfunc_begin8         #     jumps to .Ltmp437
	.byte	0                               #   On action: cleanup
	.uleb128 .Ltmp456-.Lfunc_begin8         # >> Call Site 84 <<
	.uleb128 .Ltmp457-.Ltmp456              #   Call between .Ltmp456 and .Ltmp457
	.uleb128 .Ltmp458-.Lfunc_begin8         #     jumps to .Ltmp458
	.byte	0                               #   On action: cleanup
	.uleb128 .Ltmp459-.Lfunc_begin8         # >> Call Site 85 <<
	.uleb128 .Ltmp460-.Ltmp459              #   Call between .Ltmp459 and .Ltmp460
	.uleb128 .Ltmp463-.Lfunc_begin8         #     jumps to .Ltmp463
	.byte	0                               #   On action: cleanup
	.uleb128 .Ltmp460-.Lfunc_begin8         # >> Call Site 86 <<
	.uleb128 .Ltmp272-.Ltmp460              #   Call between .Ltmp460 and .Ltmp272
	.byte	0                               #     has no landing pad
	.byte	0                               #   On action: cleanup
	.uleb128 .Ltmp272-.Lfunc_begin8         # >> Call Site 87 <<
	.uleb128 .Ltmp273-.Ltmp272              #   Call between .Ltmp272 and .Ltmp273
	.uleb128 .Ltmp278-.Lfunc_begin8         #     jumps to .Ltmp278
	.byte	0                               #   On action: cleanup
	.uleb128 .Ltmp339-.Lfunc_begin8         # >> Call Site 88 <<
	.uleb128 .Ltmp340-.Ltmp339              #   Call between .Ltmp339 and .Ltmp340
	.uleb128 .Ltmp343-.Lfunc_begin8         #     jumps to .Ltmp343
	.byte	0                               #   On action: cleanup
	.uleb128 .Ltmp305-.Lfunc_begin8         # >> Call Site 89 <<
	.uleb128 .Ltmp306-.Ltmp305              #   Call between .Ltmp305 and .Ltmp306
	.uleb128 .Ltmp309-.Lfunc_begin8         #     jumps to .Ltmp309
	.byte	0                               #   On action: cleanup
	.uleb128 .Ltmp392-.Lfunc_begin8         # >> Call Site 90 <<
	.uleb128 .Ltmp393-.Ltmp392              #   Call between .Ltmp392 and .Ltmp393
	.uleb128 .Ltmp396-.Lfunc_begin8         #     jumps to .Ltmp396
	.byte	0                               #   On action: cleanup
	.uleb128 .Ltmp353-.Lfunc_begin8         # >> Call Site 91 <<
	.uleb128 .Ltmp354-.Ltmp353              #   Call between .Ltmp353 and .Ltmp354
	.uleb128 .Ltmp357-.Lfunc_begin8         #     jumps to .Ltmp357
	.byte	0                               #   On action: cleanup
	.uleb128 .Ltmp370-.Lfunc_begin8         # >> Call Site 92 <<
	.uleb128 .Ltmp371-.Ltmp370              #   Call between .Ltmp370 and .Ltmp371
	.uleb128 .Ltmp374-.Lfunc_begin8         #     jumps to .Ltmp374
	.byte	0                               #   On action: cleanup
	.uleb128 .Ltmp207-.Lfunc_begin8         # >> Call Site 93 <<
	.uleb128 .Ltmp208-.Ltmp207              #   Call between .Ltmp207 and .Ltmp208
	.uleb128 .Ltmp213-.Lfunc_begin8         #     jumps to .Ltmp213
	.byte	0                               #   On action: cleanup
	.uleb128 .Ltmp247-.Lfunc_begin8         # >> Call Site 94 <<
	.uleb128 .Ltmp248-.Ltmp247              #   Call between .Ltmp247 and .Ltmp248
	.uleb128 .Ltmp357-.Lfunc_begin8         #     jumps to .Ltmp357
	.byte	0                               #   On action: cleanup
	.uleb128 .Ltmp447-.Lfunc_begin8         # >> Call Site 95 <<
	.uleb128 .Ltmp448-.Ltmp447              #   Call between .Ltmp447 and .Ltmp448
	.uleb128 .Ltmp449-.Lfunc_begin8         #     jumps to .Ltmp449
	.byte	0                               #   On action: cleanup
	.uleb128 .Ltmp361-.Lfunc_begin8         # >> Call Site 96 <<
	.uleb128 .Ltmp362-.Ltmp361              #   Call between .Ltmp361 and .Ltmp362
	.uleb128 .Ltmp374-.Lfunc_begin8         #     jumps to .Ltmp374
	.byte	0                               #   On action: cleanup
	.uleb128 .Ltmp444-.Lfunc_begin8         # >> Call Site 97 <<
	.uleb128 .Ltmp445-.Ltmp444              #   Call between .Ltmp444 and .Ltmp445
	.uleb128 .Ltmp446-.Lfunc_begin8         #     jumps to .Ltmp446
	.byte	0                               #   On action: cleanup
	.uleb128 .Ltmp441-.Lfunc_begin8         # >> Call Site 98 <<
	.uleb128 .Ltmp442-.Ltmp441              #   Call between .Ltmp441 and .Ltmp442
	.uleb128 .Ltmp443-.Lfunc_begin8         #     jumps to .Ltmp443
	.byte	0                               #   On action: cleanup
	.uleb128 .Ltmp438-.Lfunc_begin8         # >> Call Site 99 <<
	.uleb128 .Ltmp439-.Ltmp438              #   Call between .Ltmp438 and .Ltmp439
	.uleb128 .Ltmp440-.Lfunc_begin8         #     jumps to .Ltmp440
	.byte	0                               #   On action: cleanup
	.uleb128 .Ltmp276-.Lfunc_begin8         # >> Call Site 100 <<
	.uleb128 .Ltmp277-.Ltmp276              #   Call between .Ltmp276 and .Ltmp277
	.uleb128 .Ltmp278-.Lfunc_begin8         #     jumps to .Ltmp278
	.byte	0                               #   On action: cleanup
	.uleb128 .Ltmp269-.Lfunc_begin8         # >> Call Site 101 <<
	.uleb128 .Ltmp270-.Ltmp269              #   Call between .Ltmp269 and .Ltmp270
	.uleb128 .Ltmp271-.Lfunc_begin8         #     jumps to .Ltmp271
	.byte	0                               #   On action: cleanup
	.uleb128 .Ltmp336-.Lfunc_begin8         # >> Call Site 102 <<
	.uleb128 .Ltmp337-.Ltmp336              #   Call between .Ltmp336 and .Ltmp337
	.uleb128 .Ltmp338-.Lfunc_begin8         #     jumps to .Ltmp338
	.byte	0                               #   On action: cleanup
	.uleb128 .Ltmp318-.Lfunc_begin8         # >> Call Site 103 <<
	.uleb128 .Ltmp319-.Ltmp318              #   Call between .Ltmp318 and .Ltmp319
	.uleb128 .Ltmp320-.Lfunc_begin8         #     jumps to .Ltmp320
	.byte	0                               #   On action: cleanup
	.uleb128 .Ltmp302-.Lfunc_begin8         # >> Call Site 104 <<
	.uleb128 .Ltmp303-.Ltmp302              #   Call between .Ltmp302 and .Ltmp303
	.uleb128 .Ltmp304-.Lfunc_begin8         #     jumps to .Ltmp304
	.byte	0                               #   On action: cleanup
	.uleb128 .Ltmp274-.Lfunc_begin8         # >> Call Site 105 <<
	.uleb128 .Ltmp275-.Ltmp274              #   Call between .Ltmp274 and .Ltmp275
	.uleb128 .Ltmp278-.Lfunc_begin8         #     jumps to .Ltmp278
	.byte	0                               #   On action: cleanup
	.uleb128 .Ltmp341-.Lfunc_begin8         # >> Call Site 106 <<
	.uleb128 .Ltmp342-.Ltmp341              #   Call between .Ltmp341 and .Ltmp342
	.uleb128 .Ltmp343-.Lfunc_begin8         #     jumps to .Ltmp343
	.byte	0                               #   On action: cleanup
	.uleb128 .Ltmp287-.Lfunc_begin8         # >> Call Site 107 <<
	.uleb128 .Ltmp288-.Ltmp287              #   Call between .Ltmp287 and .Ltmp288
	.uleb128 .Ltmp289-.Lfunc_begin8         #     jumps to .Ltmp289
	.byte	0                               #   On action: cleanup
	.uleb128 .Ltmp450-.Lfunc_begin8         # >> Call Site 108 <<
	.uleb128 .Ltmp451-.Ltmp450              #   Call between .Ltmp450 and .Ltmp451
	.uleb128 .Ltmp452-.Lfunc_begin8         #     jumps to .Ltmp452
	.byte	0                               #   On action: cleanup
	.uleb128 .Ltmp461-.Lfunc_begin8         # >> Call Site 109 <<
	.uleb128 .Ltmp462-.Ltmp461              #   Call between .Ltmp461 and .Ltmp462
	.uleb128 .Ltmp463-.Lfunc_begin8         #     jumps to .Ltmp463
	.byte	0                               #   On action: cleanup
	.uleb128 .Ltmp307-.Lfunc_begin8         # >> Call Site 110 <<
	.uleb128 .Ltmp308-.Ltmp307              #   Call between .Ltmp307 and .Ltmp308
	.uleb128 .Ltmp309-.Lfunc_begin8         #     jumps to .Ltmp309
	.byte	0                               #   On action: cleanup
	.uleb128 .Ltmp350-.Lfunc_begin8         # >> Call Site 111 <<
	.uleb128 .Ltmp351-.Ltmp350              #   Call between .Ltmp350 and .Ltmp351
	.uleb128 .Ltmp352-.Lfunc_begin8         #     jumps to .Ltmp352
	.byte	0                               #   On action: cleanup
	.uleb128 .Ltmp347-.Lfunc_begin8         # >> Call Site 112 <<
	.uleb128 .Ltmp348-.Ltmp347              #   Call between .Ltmp347 and .Ltmp348
	.uleb128 .Ltmp349-.Lfunc_begin8         #     jumps to .Ltmp349
	.byte	0                               #   On action: cleanup
	.uleb128 .Ltmp355-.Lfunc_begin8         # >> Call Site 113 <<
	.uleb128 .Ltmp356-.Ltmp355              #   Call between .Ltmp355 and .Ltmp356
	.uleb128 .Ltmp357-.Lfunc_begin8         #     jumps to .Ltmp357
	.byte	0                               #   On action: cleanup
	.uleb128 .Ltmp211-.Lfunc_begin8         # >> Call Site 114 <<
	.uleb128 .Ltmp212-.Ltmp211              #   Call between .Ltmp211 and .Ltmp212
	.uleb128 .Ltmp213-.Lfunc_begin8         #     jumps to .Ltmp213
	.byte	0                               #   On action: cleanup
	.uleb128 .Ltmp367-.Lfunc_begin8         # >> Call Site 115 <<
	.uleb128 .Ltmp368-.Ltmp367              #   Call between .Ltmp367 and .Ltmp368
	.uleb128 .Ltmp369-.Lfunc_begin8         #     jumps to .Ltmp369
	.byte	0                               #   On action: cleanup
	.uleb128 .Ltmp372-.Lfunc_begin8         # >> Call Site 116 <<
	.uleb128 .Ltmp373-.Ltmp372              #   Call between .Ltmp372 and .Ltmp373
	.uleb128 .Ltmp374-.Lfunc_begin8         #     jumps to .Ltmp374
	.byte	0                               #   On action: cleanup
	.uleb128 .Ltmp209-.Lfunc_begin8         # >> Call Site 117 <<
	.uleb128 .Ltmp210-.Ltmp209              #   Call between .Ltmp209 and .Ltmp210
	.uleb128 .Ltmp213-.Lfunc_begin8         #     jumps to .Ltmp213
	.byte	0                               #   On action: cleanup
	.uleb128 .Ltmp226-.Lfunc_begin8         # >> Call Site 118 <<
	.uleb128 .Ltmp227-.Ltmp226              #   Call between .Ltmp226 and .Ltmp227
	.uleb128 .Ltmp228-.Lfunc_begin8         #     jumps to .Ltmp228
	.byte	1                               #   On action: 1
	.uleb128 .Ltmp344-.Lfunc_begin8         # >> Call Site 119 <<
	.uleb128 .Ltmp345-.Ltmp344              #   Call between .Ltmp344 and .Ltmp345
	.uleb128 .Ltmp346-.Lfunc_begin8         #     jumps to .Ltmp346
	.byte	1                               #   On action: 1
	.uleb128 .Ltmp378-.Lfunc_begin8         # >> Call Site 120 <<
	.uleb128 .Ltmp379-.Ltmp378              #   Call between .Ltmp378 and .Ltmp379
	.uleb128 .Ltmp380-.Lfunc_begin8         #     jumps to .Ltmp380
	.byte	1                               #   On action: 1
	.uleb128 .Ltmp381-.Lfunc_begin8         # >> Call Site 121 <<
	.uleb128 .Ltmp382-.Ltmp381              #   Call between .Ltmp381 and .Ltmp382
	.uleb128 .Ltmp383-.Lfunc_begin8         #     jumps to .Ltmp383
	.byte	1                               #   On action: 1
	.uleb128 .Ltmp382-.Lfunc_begin8         # >> Call Site 122 <<
	.uleb128 .Lfunc_end15-.Ltmp382          #   Call between .Ltmp382 and .Lfunc_end15
	.byte	0                               #     has no landing pad
	.byte	0                               #   On action: cleanup
.Lcst_end8:
	.byte	1                               # >> Action Record 1 <<
                                        #   Catch TypeInfo 1
	.byte	0                               #   No further actions
	.p2align	2, 0x0
                                        # >> Catch TypeInfos <<
	.long	0                               # TypeInfo 1
.Lttbase5:
	.p2align	2, 0x0
                                        # -- End function
	.section	.text._ZNSt7__cxx1112basic_stringIcSt11char_traitsIcESaIcEED2Ev,"axG",@progbits,_ZNSt7__cxx1112basic_stringIcSt11char_traitsIcESaIcEED2Ev,comdat
	.weak	_ZNSt7__cxx1112basic_stringIcSt11char_traitsIcESaIcEED2Ev # -- Begin function _ZNSt7__cxx1112basic_stringIcSt11char_traitsIcESaIcEED2Ev
	.p2align	4, 0x90
	.type	_ZNSt7__cxx1112basic_stringIcSt11char_traitsIcESaIcEED2Ev,@function
_ZNSt7__cxx1112basic_stringIcSt11char_traitsIcESaIcEED2Ev: # @_ZNSt7__cxx1112basic_stringIcSt11char_traitsIcESaIcEED2Ev
	.cfi_startproc
# %bb.0:
	movq	%rdi, %rax
	movq	(%rdi), %rdi
	addq	$16, %rax
	cmpq	%rax, %rdi
	je	.LBB16_1
# %bb.2:                                # %_ZNKSt7__cxx1112basic_stringIcSt11char_traitsIcESaIcEE11_M_is_localEv.exit.i
	movq	(%rax), %rsi
	incq	%rsi
	jmp	_ZdlPvm@PLT                     # TAILCALL
.LBB16_1:                               # %_ZNSt7__cxx1112basic_stringIcSt11char_traitsIcESaIcEE10_M_disposeEv.exit
	retq
.Lfunc_end16:
	.size	_ZNSt7__cxx1112basic_stringIcSt11char_traitsIcESaIcEED2Ev, .Lfunc_end16-_ZNSt7__cxx1112basic_stringIcSt11char_traitsIcESaIcEED2Ev
	.cfi_endproc
                                        # -- End function
	.section	.text._ZNSt7__cxx1112basic_stringIcSt11char_traitsIcESaIcEE10_M_replaceEmmPKcm,"axG",@progbits,_ZNSt7__cxx1112basic_stringIcSt11char_traitsIcESaIcEE10_M_replaceEmmPKcm,comdat
	.weak	_ZNSt7__cxx1112basic_stringIcSt11char_traitsIcESaIcEE10_M_replaceEmmPKcm # -- Begin function _ZNSt7__cxx1112basic_stringIcSt11char_traitsIcESaIcEE10_M_replaceEmmPKcm
	.p2align	4, 0x90
	.type	_ZNSt7__cxx1112basic_stringIcSt11char_traitsIcESaIcEE10_M_replaceEmmPKcm,@function
_ZNSt7__cxx1112basic_stringIcSt11char_traitsIcESaIcEE10_M_replaceEmmPKcm: # @_ZNSt7__cxx1112basic_stringIcSt11char_traitsIcESaIcEE10_M_replaceEmmPKcm
	.cfi_startproc
# %bb.0:
	pushq	%r15
	.cfi_def_cfa_offset 16
	pushq	%r14
	.cfi_def_cfa_offset 24
	pushq	%r13
	.cfi_def_cfa_offset 32
	pushq	%r12
	.cfi_def_cfa_offset 40
	pushq	%rbx
	.cfi_def_cfa_offset 48
	.cfi_offset %rbx, -48
	.cfi_offset %r12, -40
	.cfi_offset %r13, -32
	.cfi_offset %r14, -24
	.cfi_offset %r15, -16
	movq	%rdi, %rbx
	movq	8(%rdi), %rax
	movq	%rdx, %rdi
	subq	%rax, %rdi
	movabsq	$9223372036854775807, %r9       # imm = 0x7FFFFFFFFFFFFFFF
	addq	%rdi, %r9
	cmpq	%r8, %r9
	jb	.LBB17_17
# %bb.1:                                # %_ZNKSt7__cxx1112basic_stringIcSt11char_traitsIcESaIcEE15_M_check_lengthEmmPKc.exit
	movq	%r8, %r15
	subq	%rdx, %r15
	addq	%rax, %r15
	movq	(%rbx), %rdi
	leaq	16(%rbx), %r10
	movl	$15, %r9d
	cmpq	%r10, %rdi
	je	.LBB17_3
# %bb.2:                                # %_ZNKSt7__cxx1112basic_stringIcSt11char_traitsIcESaIcEE15_M_check_lengthEmmPKc.exit
	movq	16(%rbx), %r9
.LBB17_3:                               # %_ZNKSt7__cxx1112basic_stringIcSt11char_traitsIcESaIcEE15_M_check_lengthEmmPKc.exit
	cmpq	%r9, %r15
	jbe	.LBB17_4
# %bb.15:
	movq	%rbx, %rdi
	callq	_ZNSt7__cxx1112basic_stringIcSt11char_traitsIcESaIcEE9_M_mutateEmmPKcm@PLT
	jmp	.LBB17_16
.LBB17_4:
	leaq	(%rdi,%rsi), %r14
	addq	%rdx, %rsi
	movq	%rax, %r9
	subq	%rsi, %r9
	cmpq	%rcx, %rdi
	seta	%r10b
	addq	%rax, %rdi
	cmpq	%rcx, %rdi
	setb	%dil
	orb	%r10b, %dil
	cmpb	$1, %dil
	jne	.LBB17_14
# %bb.5:
	cmpq	%rsi, %rax
	sete	%al
	cmpq	%rdx, %r8
	sete	%sil
	orb	%al, %sil
	jne	.LBB17_10
# %bb.6:
	testq	%r9, %r9
	je	.LBB17_10
# %bb.7:
	leaq	(%r14,%r8), %rdi
	addq	%r14, %rdx
	cmpq	$1, %r9
	jne	.LBB17_9
# %bb.8:
	movzbl	(%rdx), %eax
	movb	%al, (%rdi)
.LBB17_10:                              # %_ZNSt7__cxx1112basic_stringIcSt11char_traitsIcESaIcEE7_S_moveEPcPKcm.exit
	testq	%r8, %r8
	je	.LBB17_16
.LBB17_11:                              # %_ZNSt7__cxx1112basic_stringIcSt11char_traitsIcESaIcEE7_S_moveEPcPKcm.exit
	cmpq	$1, %r8
	jne	.LBB17_13
# %bb.12:
	movzbl	(%rcx), %eax
	movb	%al, (%r14)
	jmp	.LBB17_16
.LBB17_13:
	movq	%r14, %rdi
	movq	%rcx, %rsi
	movq	%r8, %rdx
	callq	memcpy@PLT
.LBB17_16:                              # %_ZNSt7__cxx1112basic_stringIcSt11char_traitsIcESaIcEE7_S_copyEPcPKcm.exit
	movq	%r15, 8(%rbx)
	movq	(%rbx), %rax
	movb	$0, (%rax,%r15)
	movq	%rbx, %rax
	popq	%rbx
	.cfi_def_cfa_offset 40
	popq	%r12
	.cfi_def_cfa_offset 32
	popq	%r13
	.cfi_def_cfa_offset 24
	popq	%r14
	.cfi_def_cfa_offset 16
	popq	%r15
	.cfi_def_cfa_offset 8
	retq
.LBB17_9:
	.cfi_def_cfa_offset 48
	movq	%rdx, %rsi
	movq	%r9, %rdx
	movq	%r8, %r12
	movq	%rcx, %r13
	callq	memmove@PLT
	movq	%r13, %rcx
	movq	%r12, %r8
	testq	%r8, %r8
	jne	.LBB17_11
	jmp	.LBB17_16
.LBB17_14:
	movq	%rbx, %rdi
	movq	%r14, %rsi
	callq	_ZNSt7__cxx1112basic_stringIcSt11char_traitsIcESaIcEE15_M_replace_coldEPcmPKcmm@PLT
	jmp	.LBB17_16
.LBB17_17:
	leaq	.L.str.8(%rip), %rdi
	callq	_ZSt20__throw_length_errorPKc@PLT
.Lfunc_end17:
	.size	_ZNSt7__cxx1112basic_stringIcSt11char_traitsIcESaIcEE10_M_replaceEmmPKcm, .Lfunc_end17-_ZNSt7__cxx1112basic_stringIcSt11char_traitsIcESaIcEE10_M_replaceEmmPKcm
	.cfi_endproc
                                        # -- End function
	.section	.text._ZNSt7__cxx1112basic_stringIcSt11char_traitsIcESaIcEE9_M_mutateEmmPKcm,"axG",@progbits,_ZNSt7__cxx1112basic_stringIcSt11char_traitsIcESaIcEE9_M_mutateEmmPKcm,comdat
	.weak	_ZNSt7__cxx1112basic_stringIcSt11char_traitsIcESaIcEE9_M_mutateEmmPKcm # -- Begin function _ZNSt7__cxx1112basic_stringIcSt11char_traitsIcESaIcEE9_M_mutateEmmPKcm
	.p2align	4, 0x90
	.type	_ZNSt7__cxx1112basic_stringIcSt11char_traitsIcESaIcEE9_M_mutateEmmPKcm,@function
_ZNSt7__cxx1112basic_stringIcSt11char_traitsIcESaIcEE9_M_mutateEmmPKcm: # @_ZNSt7__cxx1112basic_stringIcSt11char_traitsIcESaIcEE9_M_mutateEmmPKcm
	.cfi_startproc
# %bb.0:                                # %_ZNKSt7__cxx1112basic_stringIcSt11char_traitsIcESaIcEE8capacityEv.exit
	pushq	%rbp
	.cfi_def_cfa_offset 16
	pushq	%r15
	.cfi_def_cfa_offset 24
	pushq	%r14
	.cfi_def_cfa_offset 32
	pushq	%r13
	.cfi_def_cfa_offset 40
	pushq	%r12
	.cfi_def_cfa_offset 48
	pushq	%rbx
	.cfi_def_cfa_offset 56
	subq	$56, %rsp
	.cfi_def_cfa_offset 112
	.cfi_offset %rbx, -56
	.cfi_offset %r12, -48
	.cfi_offset %r13, -40
	.cfi_offset %r14, -32
	.cfi_offset %r15, -24
	.cfi_offset %rbp, -16
	movq	%rcx, 16(%rsp)                  # 8-byte Spill
	movq	(%rdi), %r15
	movq	8(%rdi), %r13
	movq	%r8, %rbp
	movq	%rdx, 32(%rsp)                  # 8-byte Spill
	subq	%rdx, %rbp
	leaq	16(%rdi), %rdx
	cmpq	%rdx, %r15
	movq	16(%rdi), %rcx
	movl	$15, %eax
	cmovneq	%rcx, %rax
	addq	%r13, %rbp
	js	.LBB18_21
# %bb.1:
	movq	%r8, %r14
	movq	%rsi, %r12
	movq	%rdi, %rbx
	cmpq	%rax, %rbp
	movq	%rcx, 40(%rsp)                  # 8-byte Spill
	movq	%rdx, 48(%rsp)                  # 8-byte Spill
	jbe	.LBB18_4
# %bb.2:
	addq	%rax, %rax
	cmpq	%rax, %rbp
	jae	.LBB18_4
# %bb.3:
	movabsq	$9223372036854775807, %rbp      # imm = 0x7FFFFFFFFFFFFFFF
	cmpq	%rbp, %rax
	cmovbq	%rax, %rbp
.LBB18_4:
	movq	%rbp, %rdi
	incq	%rdi
	js	.LBB18_22
# %bb.5:                                # %_ZNSt7__cxx1112basic_stringIcSt11char_traitsIcESaIcEE9_M_createERmm.exit
	callq	_Znwm@PLT
	movq	%rax, %rdx
	testq	%r12, %r12
	movq	%rax, 8(%rsp)                   # 8-byte Spill
	je	.LBB18_9
# %bb.6:                                # %_ZNSt7__cxx1112basic_stringIcSt11char_traitsIcESaIcEE9_M_createERmm.exit
	cmpq	$1, %r12
	jne	.LBB18_8
# %bb.7:
	movzbl	(%r15), %eax
	movb	%al, (%rdx)
	jmp	.LBB18_9
.LBB18_8:
	movq	%rdx, %rdi
	movq	%r15, %rsi
	movq	%r12, %rdx
	callq	memcpy@PLT
	movq	8(%rsp), %rdx                   # 8-byte Reload
.LBB18_9:                               # %_ZNSt7__cxx1112basic_stringIcSt11char_traitsIcESaIcEE7_S_copyEPcPKcm.exit
	movq	%r15, 24(%rsp)                  # 8-byte Spill
	movq	32(%rsp), %rax                  # 8-byte Reload
	leaq	(%rax,%r12), %r15
	cmpq	$0, 16(%rsp)                    # 8-byte Folded Reload
	sete	%al
	testq	%r14, %r14
	sete	%cl
	orb	%al, %cl
	jne	.LBB18_13
# %bb.10:
	leaq	(%rdx,%r12), %rdi
	cmpq	$1, %r14
	jne	.LBB18_12
# %bb.11:
	movq	16(%rsp), %rax                  # 8-byte Reload
	movzbl	(%rax), %eax
	movb	%al, (%rdi)
.LBB18_13:                              # %_ZNSt7__cxx1112basic_stringIcSt11char_traitsIcESaIcEE7_S_copyEPcPKcm.exit26
	cmpq	%r15, %r13
	je	.LBB18_18
.LBB18_14:
	subq	%r15, %r13
	je	.LBB18_18
# %bb.15:
	movq	%rdx, %rdi
	addq	%r12, %rdi
	addq	%r14, %rdi
	addq	24(%rsp), %r12                  # 8-byte Folded Reload
	addq	32(%rsp), %r12                  # 8-byte Folded Reload
	cmpq	$1, %r13
	jne	.LBB18_17
# %bb.16:
	movzbl	(%r12), %eax
	movb	%al, (%rdi)
	movq	24(%rsp), %rdi                  # 8-byte Reload
	cmpq	48(%rsp), %rdi                  # 8-byte Folded Reload
	jne	.LBB18_19
	jmp	.LBB18_20
.LBB18_12:
	movq	16(%rsp), %rsi                  # 8-byte Reload
	movq	%r14, %rdx
	callq	memcpy@PLT
	movq	8(%rsp), %rdx                   # 8-byte Reload
	cmpq	%r15, %r13
	jne	.LBB18_14
.LBB18_18:                              # %_ZNSt7__cxx1112basic_stringIcSt11char_traitsIcESaIcEE7_S_copyEPcPKcm.exit27
	movq	24(%rsp), %rdi                  # 8-byte Reload
	cmpq	48(%rsp), %rdi                  # 8-byte Folded Reload
	je	.LBB18_20
.LBB18_19:                              # %_ZNKSt7__cxx1112basic_stringIcSt11char_traitsIcESaIcEE11_M_is_localEv.exit.i
	movq	40(%rsp), %rsi                  # 8-byte Reload
	incq	%rsi
	callq	_ZdlPvm@PLT
	movq	8(%rsp), %rdx                   # 8-byte Reload
.LBB18_20:                              # %_ZNSt7__cxx1112basic_stringIcSt11char_traitsIcESaIcEE10_M_disposeEv.exit
	movq	%rdx, (%rbx)
	movq	%rbp, 16(%rbx)
	addq	$56, %rsp
	.cfi_def_cfa_offset 56
	popq	%rbx
	.cfi_def_cfa_offset 48
	popq	%r12
	.cfi_def_cfa_offset 40
	popq	%r13
	.cfi_def_cfa_offset 32
	popq	%r14
	.cfi_def_cfa_offset 24
	popq	%r15
	.cfi_def_cfa_offset 16
	popq	%rbp
	.cfi_def_cfa_offset 8
	retq
.LBB18_17:
	.cfi_def_cfa_offset 112
	movq	%r12, %rsi
	movq	%r13, %rdx
	callq	memcpy@PLT
	movq	8(%rsp), %rdx                   # 8-byte Reload
	movq	24(%rsp), %rdi                  # 8-byte Reload
	cmpq	48(%rsp), %rdi                  # 8-byte Folded Reload
	jne	.LBB18_19
	jmp	.LBB18_20
.LBB18_22:
	callq	_ZSt17__throw_bad_allocv@PLT
.LBB18_21:
	leaq	.L.str.9(%rip), %rdi
	callq	_ZSt20__throw_length_errorPKc@PLT
.Lfunc_end18:
	.size	_ZNSt7__cxx1112basic_stringIcSt11char_traitsIcESaIcEE9_M_mutateEmmPKcm, .Lfunc_end18-_ZNSt7__cxx1112basic_stringIcSt11char_traitsIcESaIcEE9_M_mutateEmmPKcm
	.cfi_endproc
                                        # -- End function
	.section	.text._ZN8pybind116detail12error_stringB5cxx11Ev,"axG",@progbits,_ZN8pybind116detail12error_stringB5cxx11Ev,comdat
	.hidden	_ZN8pybind116detail12error_stringB5cxx11Ev # -- Begin function _ZN8pybind116detail12error_stringB5cxx11Ev
	.weak	_ZN8pybind116detail12error_stringB5cxx11Ev
	.p2align	4, 0x90
	.type	_ZN8pybind116detail12error_stringB5cxx11Ev,@function
_ZN8pybind116detail12error_stringB5cxx11Ev: # @_ZN8pybind116detail12error_stringB5cxx11Ev
.Lfunc_begin9:
	.cfi_startproc
	.cfi_personality 155, DW.ref.__gxx_personality_v0
	.cfi_lsda 27, .Lexception9
# %bb.0:
	pushq	%r15
	.cfi_def_cfa_offset 16
	pushq	%r14
	.cfi_def_cfa_offset 24
	pushq	%r12
	.cfi_def_cfa_offset 32
	pushq	%rbx
	.cfi_def_cfa_offset 40
	subq	$72, %rsp
	.cfi_def_cfa_offset 112
	.cfi_offset %rbx, -40
	.cfi_offset %r12, -32
	.cfi_offset %r14, -24
	.cfi_offset %r15, -16
	movq	%rdi, %rbx
	leaq	.L.str.29(%rip), %rsi
	leaq	8(%rsp), %r14
	movq	%r14, %rdi
	callq	_ZN8pybind116detail25error_fetch_and_normalizeC2EPKc
.Ltmp464:
	movq	%r14, %rdi
	callq	_ZNK8pybind116detail25error_fetch_and_normalize12error_stringB5cxx11Ev
.Ltmp465:
# %bb.1:
	leaq	16(%rbx), %r12
	movq	%r12, (%rbx)
	movq	(%rax), %r15
	movq	8(%rax), %r14
	cmpq	$16, %r14
	jb	.LBB19_10
# %bb.2:
	testq	%r14, %r14
	js	.LBB19_3
# %bb.5:
	movq	%r14, %rdi
	incq	%rdi
	js	.LBB19_6
# %bb.8:                                # %_ZNSt7__cxx1112basic_stringIcSt11char_traitsIcESaIcEE9_M_createERmm.exit.i.i
.Ltmp466:
	callq	_Znwm@PLT
.Ltmp467:
# %bb.9:                                # %.noexc2
	movq	%rax, %r12
	movq	%rax, (%rbx)
	movq	%r14, 16(%rbx)
.LBB19_10:                              # %._crit_edge.i.i
	testq	%r14, %r14
	je	.LBB19_14
# %bb.11:                               # %._crit_edge.i.i
	cmpq	$1, %r14
	jne	.LBB19_13
# %bb.12:
	movzbl	(%r15), %eax
	movb	%al, (%r12)
	jmp	.LBB19_14
.LBB19_13:
	movq	%r12, %rdi
	movq	%r15, %rsi
	movq	%r14, %rdx
	callq	memcpy@PLT
.LBB19_14:
	movq	%r14, 8(%rbx)
	movb	$0, (%r12,%r14)
	movq	32(%rsp), %rdi
	leaq	48(%rsp), %rax
	cmpq	%rax, %rdi
	je	.LBB19_16
# %bb.15:                               # %_ZNKSt7__cxx1112basic_stringIcSt11char_traitsIcESaIcEE11_M_is_localEv.exit.i.i.i
	movq	48(%rsp), %rsi
	incq	%rsi
	callq	_ZdlPvm@PLT
.LBB19_16:                              # %_ZNSt7__cxx1112basic_stringIcSt11char_traitsIcESaIcEED2Ev.exit.i
	leaq	24(%rsp), %rdi
.Ltmp468:
	callq	_ZNKR8pybind116handle7dec_refEv
.Ltmp469:
# %bb.17:                               # %_ZN8pybind116objectD2Ev.exit.i
	leaq	16(%rsp), %rdi
.Ltmp471:
	callq	_ZNKR8pybind116handle7dec_refEv
.Ltmp472:
# %bb.18:                               # %_ZN8pybind116objectD2Ev.exit1.i
.Ltmp474:
	leaq	8(%rsp), %rdi
	callq	_ZNKR8pybind116handle7dec_refEv
.Ltmp475:
# %bb.19:                               # %_ZN8pybind116detail25error_fetch_and_normalizeD2Ev.exit
	movq	%rbx, %rax
	addq	$72, %rsp
	.cfi_def_cfa_offset 40
	popq	%rbx
	.cfi_def_cfa_offset 32
	popq	%r12
	.cfi_def_cfa_offset 24
	popq	%r14
	.cfi_def_cfa_offset 16
	popq	%r15
	.cfi_def_cfa_offset 8
	retq
.LBB19_6:                               # %.noexc6.i
	.cfi_def_cfa_offset 112
.Ltmp477:
	callq	_ZSt17__throw_bad_allocv@PLT
.Ltmp478:
# %bb.7:                                # %.noexc1
.LBB19_3:                               # %.noexc.i
.Ltmp479:
	leaq	.L.str.9(%rip), %rdi
	callq	_ZSt20__throw_length_errorPKc@PLT
.Ltmp480:
# %bb.4:                                # %.noexc
.LBB19_23:
.Ltmp476:
	movq	%rax, %rdi
	callq	__clang_call_terminate
.LBB19_22:
.Ltmp473:
	movq	%rax, %rdi
	callq	__clang_call_terminate
.LBB19_21:
.Ltmp470:
	movq	%rax, %rdi
	callq	__clang_call_terminate
.LBB19_20:
.Ltmp481:
	movq	%rax, %rbx
	leaq	8(%rsp), %rdi
	callq	_ZN8pybind116detail25error_fetch_and_normalizeD2Ev
	movq	%rbx, %rdi
	callq	_Unwind_Resume@PLT
.Lfunc_end19:
	.size	_ZN8pybind116detail12error_stringB5cxx11Ev, .Lfunc_end19-_ZN8pybind116detail12error_stringB5cxx11Ev
	.cfi_endproc
	.section	.gcc_except_table._ZN8pybind116detail12error_stringB5cxx11Ev,"aG",@progbits,_ZN8pybind116detail12error_stringB5cxx11Ev,comdat
	.p2align	2, 0x0
GCC_except_table19:
.Lexception9:
	.byte	255                             # @LPStart Encoding = omit
	.byte	155                             # @TType Encoding = indirect pcrel sdata4
	.uleb128 .Lttbase6-.Lttbaseref6
.Lttbaseref6:
	.byte	1                               # Call site Encoding = uleb128
	.uleb128 .Lcst_end9-.Lcst_begin9
.Lcst_begin9:
	.uleb128 .Lfunc_begin9-.Lfunc_begin9    # >> Call Site 1 <<
	.uleb128 .Ltmp464-.Lfunc_begin9         #   Call between .Lfunc_begin9 and .Ltmp464
	.byte	0                               #     has no landing pad
	.byte	0                               #   On action: cleanup
	.uleb128 .Ltmp464-.Lfunc_begin9         # >> Call Site 2 <<
	.uleb128 .Ltmp467-.Ltmp464              #   Call between .Ltmp464 and .Ltmp467
	.uleb128 .Ltmp481-.Lfunc_begin9         #     jumps to .Ltmp481
	.byte	0                               #   On action: cleanup
	.uleb128 .Ltmp467-.Lfunc_begin9         # >> Call Site 3 <<
	.uleb128 .Ltmp468-.Ltmp467              #   Call between .Ltmp467 and .Ltmp468
	.byte	0                               #     has no landing pad
	.byte	0                               #   On action: cleanup
	.uleb128 .Ltmp468-.Lfunc_begin9         # >> Call Site 4 <<
	.uleb128 .Ltmp469-.Ltmp468              #   Call between .Ltmp468 and .Ltmp469
	.uleb128 .Ltmp470-.Lfunc_begin9         #     jumps to .Ltmp470
	.byte	1                               #   On action: 1
	.uleb128 .Ltmp471-.Lfunc_begin9         # >> Call Site 5 <<
	.uleb128 .Ltmp472-.Ltmp471              #   Call between .Ltmp471 and .Ltmp472
	.uleb128 .Ltmp473-.Lfunc_begin9         #     jumps to .Ltmp473
	.byte	1                               #   On action: 1
	.uleb128 .Ltmp474-.Lfunc_begin9         # >> Call Site 6 <<
	.uleb128 .Ltmp475-.Ltmp474              #   Call between .Ltmp474 and .Ltmp475
	.uleb128 .Ltmp476-.Lfunc_begin9         #     jumps to .Ltmp476
	.byte	1                               #   On action: 1
	.uleb128 .Ltmp477-.Lfunc_begin9         # >> Call Site 7 <<
	.uleb128 .Ltmp480-.Ltmp477              #   Call between .Ltmp477 and .Ltmp480
	.uleb128 .Ltmp481-.Lfunc_begin9         #     jumps to .Ltmp481
	.byte	0                               #   On action: cleanup
	.uleb128 .Ltmp480-.Lfunc_begin9         # >> Call Site 8 <<
	.uleb128 .Lfunc_end19-.Ltmp480          #   Call between .Ltmp480 and .Lfunc_end19
	.byte	0                               #     has no landing pad
	.byte	0                               #   On action: cleanup
.Lcst_end9:
	.byte	1                               # >> Action Record 1 <<
                                        #   Catch TypeInfo 1
	.byte	0                               #   No further actions
	.p2align	2, 0x0
                                        # >> Catch TypeInfos <<
	.long	0                               # TypeInfo 1
.Lttbase6:
	.p2align	2, 0x0
                                        # -- End function
	.section	.text._ZStplIcSt11char_traitsIcESaIcEENSt7__cxx1112basic_stringIT_T0_T1_EEOS8_PKS5_,"axG",@progbits,_ZStplIcSt11char_traitsIcESaIcEENSt7__cxx1112basic_stringIT_T0_T1_EEOS8_PKS5_,comdat
	.weak	_ZStplIcSt11char_traitsIcESaIcEENSt7__cxx1112basic_stringIT_T0_T1_EEOS8_PKS5_ # -- Begin function _ZStplIcSt11char_traitsIcESaIcEENSt7__cxx1112basic_stringIT_T0_T1_EEOS8_PKS5_
	.p2align	4, 0x90
	.type	_ZStplIcSt11char_traitsIcESaIcEENSt7__cxx1112basic_stringIT_T0_T1_EEOS8_PKS5_,@function
_ZStplIcSt11char_traitsIcESaIcEENSt7__cxx1112basic_stringIT_T0_T1_EEOS8_PKS5_: # @_ZStplIcSt11char_traitsIcESaIcEENSt7__cxx1112basic_stringIT_T0_T1_EEOS8_PKS5_
	.cfi_startproc
# %bb.0:
	pushq	%r15
	.cfi_def_cfa_offset 16
	pushq	%r14
	.cfi_def_cfa_offset 24
	pushq	%r13
	.cfi_def_cfa_offset 32
	pushq	%r12
	.cfi_def_cfa_offset 40
	pushq	%rbx
	.cfi_def_cfa_offset 48
	.cfi_offset %rbx, -48
	.cfi_offset %r12, -40
	.cfi_offset %r13, -32
	.cfi_offset %r14, -24
	.cfi_offset %r15, -16
	movq	%rdx, %r12
	movq	%rsi, %r14
	movq	%rdi, %rbx
	movq	%rdx, %rdi
	callq	strlen@PLT
	movq	8(%r14), %rsi
	movabsq	$9223372036854775807, %rcx      # imm = 0x7FFFFFFFFFFFFFFF
	xorq	%rsi, %rcx
	cmpq	%rax, %rcx
	jb	.LBB20_13
# %bb.1:                                # %_ZNKSt7__cxx1112basic_stringIcSt11char_traitsIcESaIcEE15_M_check_lengthEmmPKc.exit.i
	leaq	(%rsi,%rax), %r13
	movq	(%r14), %rdi
	leaq	16(%r14), %r15
	movl	$15, %ecx
	cmpq	%r15, %rdi
	je	.LBB20_3
# %bb.2:                                # %_ZNKSt7__cxx1112basic_stringIcSt11char_traitsIcESaIcEE15_M_check_lengthEmmPKc.exit.i
	movq	16(%r14), %rcx
.LBB20_3:                               # %_ZNKSt7__cxx1112basic_stringIcSt11char_traitsIcESaIcEE15_M_check_lengthEmmPKc.exit.i
	cmpq	%rcx, %r13
	jbe	.LBB20_4
# %bb.8:
	movq	%r14, %rdi
	xorl	%edx, %edx
	movq	%r12, %rcx
	movq	%rax, %r8
	callq	_ZNSt7__cxx1112basic_stringIcSt11char_traitsIcESaIcEE9_M_mutateEmmPKcm@PLT
	jmp	.LBB20_9
.LBB20_4:
	testq	%rax, %rax
	je	.LBB20_9
# %bb.5:
	addq	%rsi, %rdi
	cmpq	$1, %rax
	jne	.LBB20_7
# %bb.6:
	movzbl	(%r12), %eax
	movb	%al, (%rdi)
	jmp	.LBB20_9
.LBB20_7:
	movq	%r12, %rsi
	movq	%rax, %rdx
	callq	memcpy@PLT
.LBB20_9:                               # %_ZNSt7__cxx1112basic_stringIcSt11char_traitsIcESaIcEE6appendEPKc.exit
	movq	%r13, 8(%r14)
	movq	(%r14), %rax
	movb	$0, (%rax,%r13)
	leaq	16(%rbx), %rdi
	movq	%rdi, (%rbx)
	movq	(%r14), %rax
	cmpq	%r15, %rax
	je	.LBB20_10
# %bb.11:                               # %_ZNKSt7__cxx1112basic_stringIcSt11char_traitsIcESaIcEE11_M_is_localEv.exit.i
	movq	%rax, (%rbx)
	movq	16(%r14), %rax
	movq	%rax, 16(%rbx)
	movq	8(%r14), %r12
	jmp	.LBB20_12
.LBB20_10:
	movq	8(%r14), %r12
	leaq	1(%r12), %rdx
	movq	%r15, %rsi
	callq	memcpy@PLT
.LBB20_12:                              # %_ZNSt7__cxx1112basic_stringIcSt11char_traitsIcESaIcEEC2EOS4_.exit
	movq	%r12, 8(%rbx)
	movq	%r15, (%r14)
	movq	$0, 8(%r14)
	movb	$0, 16(%r14)
	movq	%rbx, %rax
	popq	%rbx
	.cfi_def_cfa_offset 40
	popq	%r12
	.cfi_def_cfa_offset 32
	popq	%r13
	.cfi_def_cfa_offset 24
	popq	%r14
	.cfi_def_cfa_offset 16
	popq	%r15
	.cfi_def_cfa_offset 8
	retq
.LBB20_13:
	.cfi_def_cfa_offset 48
	leaq	.L.str.40(%rip), %rdi
	callq	_ZSt20__throw_length_errorPKc@PLT
.Lfunc_end20:
	.size	_ZStplIcSt11char_traitsIcESaIcEENSt7__cxx1112basic_stringIT_T0_T1_EEOS8_PKS5_, .Lfunc_end20-_ZStplIcSt11char_traitsIcESaIcEENSt7__cxx1112basic_stringIT_T0_T1_EEOS8_PKS5_
	.cfi_endproc
                                        # -- End function
	.section	.text._ZStplIcSt11char_traitsIcESaIcEENSt7__cxx1112basic_stringIT_T0_T1_EEOS8_S9_,"axG",@progbits,_ZStplIcSt11char_traitsIcESaIcEENSt7__cxx1112basic_stringIT_T0_T1_EEOS8_S9_,comdat
	.weak	_ZStplIcSt11char_traitsIcESaIcEENSt7__cxx1112basic_stringIT_T0_T1_EEOS8_S9_ # -- Begin function _ZStplIcSt11char_traitsIcESaIcEENSt7__cxx1112basic_stringIT_T0_T1_EEOS8_S9_
	.p2align	4, 0x90
	.type	_ZStplIcSt11char_traitsIcESaIcEENSt7__cxx1112basic_stringIT_T0_T1_EEOS8_S9_,@function
_ZStplIcSt11char_traitsIcESaIcEENSt7__cxx1112basic_stringIT_T0_T1_EEOS8_S9_: # @_ZStplIcSt11char_traitsIcESaIcEENSt7__cxx1112basic_stringIT_T0_T1_EEOS8_S9_
	.cfi_startproc
# %bb.0:                                # %_ZNKSt7__cxx1112basic_stringIcSt11char_traitsIcESaIcEE8capacityEv.exit
	pushq	%r15
	.cfi_def_cfa_offset 16
	pushq	%r14
	.cfi_def_cfa_offset 24
	pushq	%r13
	.cfi_def_cfa_offset 32
	pushq	%r12
	.cfi_def_cfa_offset 40
	pushq	%rbx
	.cfi_def_cfa_offset 48
	.cfi_offset %rbx, -48
	.cfi_offset %r12, -40
	.cfi_offset %r13, -32
	.cfi_offset %r14, -24
	.cfi_offset %r15, -16
	movq	%rsi, %r15
	movq	%rdi, %rbx
	movq	(%rsi), %rcx
	movq	8(%rsi), %rax
	movq	8(%rdx), %r8
	leaq	(%r8,%rax), %r12
	leaq	16(%rsi), %r14
	movl	$15, %esi
	cmpq	%r14, %rcx
	je	.LBB21_2
# %bb.1:                                # %_ZNKSt7__cxx1112basic_stringIcSt11char_traitsIcESaIcEE8capacityEv.exit
	movq	16(%r15), %rsi
.LBB21_2:                               # %_ZNKSt7__cxx1112basic_stringIcSt11char_traitsIcESaIcEE8capacityEv.exit
