	.text
	.file	"256_128_64_32_no_swizzle.cpp"
                                        # Start of file scope inline assembly
	.globl	_ZSt21ios_base_library_initv

                                        # End of file scope inline assembly
	.section	.text._ZNK8pybind1117error_already_set4whatEv,"axG",@progbits,_ZNK8pybind1117error_already_set4whatEv,comdat
	.hidden	_ZNK8pybind1117error_already_set4whatEv # -- Begin function _ZNK8pybind1117error_already_set4whatEv
	.weak	_ZNK8pybind1117error_already_set4whatEv
	.p2align	4, 0x90
	.type	_ZNK8pybind1117error_already_set4whatEv,@function
_ZNK8pybind1117error_already_set4whatEv: # @_ZNK8pybind1117error_already_set4whatEv
.Lfunc_begin0:
	.cfi_startproc
	.cfi_personality 155, DW.ref.__gxx_personality_v0
	.cfi_lsda 27, .Lexception0
# %bb.0:
	pushq	%rbx
	.cfi_def_cfa_offset 16
	subq	$48, %rsp
	.cfi_def_cfa_offset 64
	.cfi_offset %rbx, -16
	movq	%rdi, %rbx
.Ltmp0:
	leaq	32(%rsp), %rdi
	callq	_ZN8pybind1118gil_scoped_acquireC2Ev
.Ltmp1:
# %bb.1:
	leaq	16(%rsp), %rsi
	leaq	24(%rsp), %rdx
.Ltmp2:
	leaq	8(%rsp), %rdi
	callq	PyErr_Fetch@PLT
.Ltmp3:
# %bb.2:                                # %_ZN8pybind1111error_scopeC2Ev.exit
	movq	8(%rbx), %rdi
.Ltmp4:
	callq	_ZNK8pybind116detail25error_fetch_and_normalize12error_stringB5cxx11Ev
.Ltmp5:
# %bb.3:
	movq	(%rax), %rbx
	movq	8(%rsp), %rdi
	movq	16(%rsp), %rsi
	movq	24(%rsp), %rdx
.Ltmp7:
	callq	PyErr_Restore@PLT
.Ltmp8:
# %bb.4:                                # %_ZN8pybind1111error_scopeD2Ev.exit
	leaq	32(%rsp), %rdi
	callq	_ZN8pybind1118gil_scoped_acquireD2Ev
	movq	%rbx, %rax
	addq	$48, %rsp
	.cfi_def_cfa_offset 16
	popq	%rbx
	.cfi_def_cfa_offset 8
	retq
.LBB0_6:
	.cfi_def_cfa_offset 64
.Ltmp9:
	movq	%rax, %rdi
	callq	__clang_call_terminate
.LBB0_5:
.Ltmp6:
	movq	%rax, %rdi
	callq	__clang_call_terminate
.Lfunc_end0:
	.size	_ZNK8pybind1117error_already_set4whatEv, .Lfunc_end0-_ZNK8pybind1117error_already_set4whatEv
	.cfi_endproc
	.section	.gcc_except_table._ZNK8pybind1117error_already_set4whatEv,"aG",@progbits,_ZNK8pybind1117error_already_set4whatEv,comdat
	.p2align	2, 0x0
GCC_except_table0:
.Lexception0:
	.byte	255                             # @LPStart Encoding = omit
	.byte	155                             # @TType Encoding = indirect pcrel sdata4
	.uleb128 .Lttbase0-.Lttbaseref0
.Lttbaseref0:
	.byte	1                               # Call site Encoding = uleb128
	.uleb128 .Lcst_end0-.Lcst_begin0
.Lcst_begin0:
	.uleb128 .Ltmp0-.Lfunc_begin0           # >> Call Site 1 <<
	.uleb128 .Ltmp5-.Ltmp0                  #   Call between .Ltmp0 and .Ltmp5
	.uleb128 .Ltmp6-.Lfunc_begin0           #     jumps to .Ltmp6
	.byte	1                               #   On action: 1
	.uleb128 .Ltmp7-.Lfunc_begin0           # >> Call Site 2 <<
	.uleb128 .Ltmp8-.Ltmp7                  #   Call between .Ltmp7 and .Ltmp8
	.uleb128 .Ltmp9-.Lfunc_begin0           #     jumps to .Ltmp9
	.byte	1                               #   On action: 1
.Lcst_end0:
	.byte	1                               # >> Action Record 1 <<
                                        #   Catch TypeInfo 1
	.byte	0                               #   No further actions
	.p2align	2, 0x0
                                        # >> Catch TypeInfos <<
	.long	0                               # TypeInfo 1
.Lttbase0:
	.p2align	2, 0x0
                                        # -- End function
	.section	.text._ZN8pybind1118gil_scoped_acquireC2Ev,"axG",@progbits,_ZN8pybind1118gil_scoped_acquireC2Ev,comdat
	.hidden	_ZN8pybind1118gil_scoped_acquireC2Ev # -- Begin function _ZN8pybind1118gil_scoped_acquireC2Ev
	.weak	_ZN8pybind1118gil_scoped_acquireC2Ev
	.p2align	4, 0x90
	.type	_ZN8pybind1118gil_scoped_acquireC2Ev,@function
_ZN8pybind1118gil_scoped_acquireC2Ev:   # @_ZN8pybind1118gil_scoped_acquireC2Ev
	.cfi_startproc
# %bb.0:
	pushq	%r15
	.cfi_def_cfa_offset 16
	pushq	%r14
	.cfi_def_cfa_offset 24
	pushq	%rbx
	.cfi_def_cfa_offset 32
	.cfi_offset %rbx, -32
	.cfi_offset %r14, -24
	.cfi_offset %r15, -16
	movq	%rdi, %rbx
	movq	$0, (%rdi)
	movw	$257, 8(%rdi)                   # imm = 0x101
	callq	_ZN8pybind116detail13get_internalsEv
	movq	%rax, %r15
	leaq	432(%rax), %r14
	movq	%r14, %rdi
	callq	PyThread_tss_get@PLT
	movq	%rax, (%rbx)
	testq	%rax, %rax
	jne	.LBB1_4
# %bb.1:
	callq	PyGILState_GetThisThreadState@PLT
	movq	%rax, (%rbx)
	testq	%rax, %rax
	je	.LBB1_2
.LBB1_4:                                # %.thread
	callq	_PyThreadState_UncheckedGet@PLT
	movq	(%rbx), %rdi
	cmpq	%rdi, %rax
	setne	8(%rbx)
	je	.LBB1_7
.LBB1_6:                                # %._crit_edge
	callq	PyEval_AcquireThread@PLT
	movq	(%rbx), %rdi
.LBB1_7:
	incl	120(%rdi)
	popq	%rbx
	.cfi_def_cfa_offset 24
	popq	%r14
	.cfi_def_cfa_offset 16
	popq	%r15
	.cfi_def_cfa_offset 8
	retq
.LBB1_2:
	.cfi_def_cfa_offset 32
	movq	448(%r15), %rdi
	callq	PyThreadState_New@PLT
	movq	%rax, (%rbx)
	testq	%rax, %rax
	je	.LBB1_3
# %bb.5:
	movl	$0, 120(%rax)
	movq	%r14, %rdi
	movq	%rax, %rsi
	callq	PyThread_tss_set@PLT
	movq	(%rbx), %rdi
	testb	$1, 8(%rbx)
	jne	.LBB1_6
	jmp	.LBB1_7
.LBB1_3:
	leaq	.L.str.4(%rip), %rdi
	callq	_ZN8pybind1113pybind11_failEPKc
.Lfunc_end1:
	.size	_ZN8pybind1118gil_scoped_acquireC2Ev, .Lfunc_end1-_ZN8pybind1118gil_scoped_acquireC2Ev
	.cfi_endproc
                                        # -- End function
	.section	.text.__clang_call_terminate,"axG",@progbits,__clang_call_terminate,comdat
	.hidden	__clang_call_terminate          # -- Begin function __clang_call_terminate
	.weak	__clang_call_terminate
	.p2align	4, 0x90
	.type	__clang_call_terminate,@function
__clang_call_terminate:                 # @__clang_call_terminate
	.cfi_startproc
# %bb.0:
	pushq	%rax
	.cfi_def_cfa_offset 16
	callq	__cxa_begin_catch@PLT
	callq	_ZSt9terminatev@PLT
.Lfunc_end2:
	.size	__clang_call_terminate, .Lfunc_end2-__clang_call_terminate
	.cfi_endproc
                                        # -- End function
	.section	.text._ZNK8pybind116detail25error_fetch_and_normalize12error_stringB5cxx11Ev,"axG",@progbits,_ZNK8pybind116detail25error_fetch_and_normalize12error_stringB5cxx11Ev,comdat
	.hidden	_ZNK8pybind116detail25error_fetch_and_normalize12error_stringB5cxx11Ev # -- Begin function _ZNK8pybind116detail25error_fetch_and_normalize12error_stringB5cxx11Ev
	.weak	_ZNK8pybind116detail25error_fetch_and_normalize12error_stringB5cxx11Ev
	.p2align	4, 0x90
	.type	_ZNK8pybind116detail25error_fetch_and_normalize12error_stringB5cxx11Ev,@function
_ZNK8pybind116detail25error_fetch_and_normalize12error_stringB5cxx11Ev: # @_ZNK8pybind116detail25error_fetch_and_normalize12error_stringB5cxx11Ev
.Lfunc_begin1:
	.cfi_startproc
	.cfi_personality 155, DW.ref.__gxx_personality_v0
	.cfi_lsda 27, .Lexception1
# %bb.0:
	pushq	%rbp
	.cfi_def_cfa_offset 16
	pushq	%r15
	.cfi_def_cfa_offset 24
	pushq	%r14
	.cfi_def_cfa_offset 32
	pushq	%r13
	.cfi_def_cfa_offset 40
	pushq	%r12
	.cfi_def_cfa_offset 48
	pushq	%rbx
	.cfi_def_cfa_offset 56
	subq	$72, %rsp
	.cfi_def_cfa_offset 128
	.cfi_offset %rbx, -56
	.cfi_offset %r12, -48
	.cfi_offset %r13, -40
	.cfi_offset %r14, -32
	.cfi_offset %r15, -24
	.cfi_offset %rbp, -16
	movq	%rdi, %rbx
	cmpb	$0, 56(%rdi)
	jne	.LBB3_39
# %bb.1:
	leaq	8(%rsp), %rdi
	movq	%rbx, %rsi
	callq	_ZNK8pybind116detail25error_fetch_and_normalize22format_value_and_traceB5cxx11Ev
	movq	16(%rsp), %r12
	movq	%r12, %rax
	shrq	%rax
	movabsq	$4611686018427387903, %rcx      # imm = 0x3FFFFFFFFFFFFFFF
	cmpq	%rcx, %rax
	je	.LBB3_44
# %bb.2:                                # %_ZNKSt7__cxx1112basic_stringIcSt11char_traitsIcESaIcEE15_M_check_lengthEmmPKc.exit.i
	leaq	2(%r12), %r14
	movq	8(%rsp), %r15
	leaq	24(%rsp), %rax
	cmpq	%rax, %r15
	je	.LBB3_13
# %bb.3:                                # %_ZNKSt7__cxx1112basic_stringIcSt11char_traitsIcESaIcEE8capacityEv.exit.i.thread
	movq	24(%rsp), %r13
	movq	%r13, %rax
	cmpq	%r13, %r14
	jbe	.LBB3_16
# %bb.4:                                # %_ZNKSt7__cxx1112basic_stringIcSt11char_traitsIcESaIcEE8capacityEv.exit.i19
	cmpq	$-3, %r12
	jle	.LBB3_15
.LBB3_5:
	addq	%rax, %rax
	movabsq	$9223372036854775807, %rbp      # imm = 0x7FFFFFFFFFFFFFFF
	cmpq	%rbp, %rax
	cmovbq	%rax, %rbp
	cmpq	%rax, %r14
	cmovaeq	%r14, %rbp
	movq	%rbp, %rdi
	incq	%rdi
	js	.LBB3_42
# %bb.6:                                # %_ZNSt7__cxx1112basic_stringIcSt11char_traitsIcESaIcEE9_M_createERmm.exit.i
.Ltmp12:
	callq	_Znwm@PLT
.Ltmp13:
# %bb.7:                                # %.noexc24
	movq	%rax, %rcx
	movw	$8250, (%rax)                   # imm = 0x203A
	testq	%r12, %r12
	je	.LBB3_10
# %bb.8:
	movq	%rcx, %rdi
	addq	$2, %rdi
	cmpq	$1, %r12
	jne	.LBB3_40
# %bb.9:
	movzbl	(%r15), %eax
	movb	%al, (%rdi)
.LBB3_10:                               # %_ZNSt7__cxx1112basic_stringIcSt11char_traitsIcESaIcEE7_S_copyEPcPKcm.exit27.i
	leaq	24(%rsp), %rax
	cmpq	%rax, %r15
	je	.LBB3_12
.LBB3_11:                               # %_ZNKSt7__cxx1112basic_stringIcSt11char_traitsIcESaIcEE11_M_is_localEv.exit.i.i20
	incq	%r13
	movq	%r15, %rdi
	movq	%r13, %rsi
	movq	%rcx, %r15
	callq	_ZdlPvm@PLT
	movq	%r15, %rcx
.LBB3_12:                               # %.noexc18
	movq	%rcx, 8(%rsp)
	movq	%rbp, 24(%rsp)
	jmp	.LBB3_22
.LBB3_13:                               # %_ZNKSt7__cxx1112basic_stringIcSt11char_traitsIcESaIcEE8capacityEv.exit.i
	cmpq	$15, %r14
	jbe	.LBB3_16
# %bb.14:
	movl	$15, %eax
	movq	24(%rsp), %r13
	cmpq	$-3, %r12
	jg	.LBB3_5
.LBB3_15:
	leaq	.L.str.10(%rip), %rdi
	jmp	.LBB3_45
.LBB3_16:
	leaq	.L.str.7(%rip), %rax
	cmpq	%rax, %r15
	seta	%cl
	leaq	(%r15,%r12), %rdx
	cmpq	%rax, %rdx
	setb	%al
	orb	%cl, %al
	cmpb	$1, %al
	jne	.LBB3_41
# %bb.17:
	testq	%r12, %r12
	je	.LBB3_21
# %bb.18:
	cmpq	$1, %r12
	jne	.LBB3_20
# %bb.19:
	movzbl	(%r15), %eax
	movb	%al, 2(%r15)
	jmp	.LBB3_21
.LBB3_20:
	leaq	2(%r15), %rdi
	movq	%r15, %rsi
	movq	%r12, %rdx
	callq	memmove@PLT
.LBB3_21:                               # %_ZNSt7__cxx1112basic_stringIcSt11char_traitsIcESaIcEE7_S_moveEPcPKcm.exit.i
	movw	$8250, (%r15)                   # imm = 0x203A
.LBB3_22:                               # %.noexc
	movabsq	$9223372036854775806, %r13      # imm = 0x7FFFFFFFFFFFFFFE
	movq	%r14, 16(%rsp)
	movq	8(%rsp), %rax
	movb	$0, (%rax,%r14)
	leaq	56(%rsp), %r15
	movq	%r15, 40(%rsp)
	movq	8(%rsp), %rcx
	leaq	24(%rsp), %r14
	cmpq	%r14, %rcx
	je	.LBB3_24
# %bb.23:                               # %_ZNKSt7__cxx1112basic_stringIcSt11char_traitsIcESaIcEE11_M_is_localEv.exit.i.i
	movq	%rcx, 40(%rsp)
	movq	16(%rsp), %r12
	movq	24(%rsp), %rax
	movq	%rax, 56(%rsp)
	jmp	.LBB3_25
.LBB3_24:
	movq	16(%rsp), %r12
	leaq	1(%r12), %rdx
	movq	%r15, %rdi
	movq	%r14, %rsi
	callq	memcpy@PLT
	movq	%r15, %rcx
.LBB3_25:
	movq	%r12, 48(%rsp)
	movq	%r14, 8(%rsp)
	movq	$0, 16(%rsp)
	movb	$0, 24(%rsp)
	movq	32(%rbx), %rsi
	subq	%rsi, %r13
	incq	%r13
	cmpq	%r12, %r13
	jb	.LBB3_47
# %bb.26:                               # %_ZNKSt7__cxx1112basic_stringIcSt11char_traitsIcESaIcEE15_M_check_lengthEmmPKc.exit.i.i.i
	leaq	(%rsi,%r12), %r14
	movq	24(%rbx), %rdi
	leaq	40(%rbx), %rdx
	movl	$15, %eax
	cmpq	%rdx, %rdi
	je	.LBB3_28
# %bb.27:                               # %_ZNKSt7__cxx1112basic_stringIcSt11char_traitsIcESaIcEE15_M_check_lengthEmmPKc.exit.i.i.i
	movq	40(%rbx), %rax
.LBB3_28:                               # %_ZNKSt7__cxx1112basic_stringIcSt11char_traitsIcESaIcEE15_M_check_lengthEmmPKc.exit.i.i.i
	cmpq	%rax, %r14
	jbe	.LBB3_30
# %bb.29:
.Ltmp14:
	leaq	24(%rbx), %rdi
	xorl	%edx, %edx
	movq	%r12, %r8
	callq	_ZNSt7__cxx1112basic_stringIcSt11char_traitsIcESaIcEE9_M_mutateEmmPKcm@PLT
.Ltmp15:
	jmp	.LBB3_34
.LBB3_30:
	testq	%r12, %r12
	je	.LBB3_34
# %bb.31:
	addq	%rsi, %rdi
	cmpq	$1, %r12
	jne	.LBB3_33
# %bb.32:
	movzbl	(%rcx), %eax
	movb	%al, (%rdi)
	jmp	.LBB3_34
.LBB3_33:
	movq	%rcx, %rsi
	movq	%r12, %rdx
	callq	memcpy@PLT
.LBB3_34:
	movq	%r14, 32(%rbx)
	movq	24(%rbx), %rax
	movb	$0, (%rax,%r14)
	movq	40(%rsp), %rdi
	cmpq	%r15, %rdi
	je	.LBB3_36
# %bb.35:                               # %_ZNKSt7__cxx1112basic_stringIcSt11char_traitsIcESaIcEE11_M_is_localEv.exit.i.i6
	movq	56(%rsp), %rsi
	incq	%rsi
	callq	_ZdlPvm@PLT
.LBB3_36:                               # %_ZNSt7__cxx1112basic_stringIcSt11char_traitsIcESaIcEED2Ev.exit
	movq	8(%rsp), %rdi
	leaq	24(%rsp), %rax
	cmpq	%rax, %rdi
	je	.LBB3_38
# %bb.37:                               # %_ZNKSt7__cxx1112basic_stringIcSt11char_traitsIcESaIcEE11_M_is_localEv.exit.i.i7
	movq	24(%rsp), %rsi
	incq	%rsi
	callq	_ZdlPvm@PLT
.LBB3_38:                               # %_ZNSt7__cxx1112basic_stringIcSt11char_traitsIcESaIcEED2Ev.exit9
	movb	$1, 56(%rbx)
.LBB3_39:
	addq	$24, %rbx
	movq	%rbx, %rax
	addq	$72, %rsp
	.cfi_def_cfa_offset 56
	popq	%rbx
	.cfi_def_cfa_offset 48
	popq	%r12
	.cfi_def_cfa_offset 40
	popq	%r13
	.cfi_def_cfa_offset 32
	popq	%r14
	.cfi_def_cfa_offset 24
	popq	%r15
	.cfi_def_cfa_offset 16
	popq	%rbp
	.cfi_def_cfa_offset 8
	retq
.LBB3_40:
	.cfi_def_cfa_offset 128
	movq	%r15, %rsi
	movq	%r12, %rdx
	movq	%rcx, %r12
	callq	memcpy@PLT
	movq	%r12, %rcx
	leaq	24(%rsp), %rax
	cmpq	%rax, %r15
	jne	.LBB3_11
	jmp	.LBB3_12
.LBB3_41:
.Ltmp10:
	leaq	.L.str.7(%rip), %rcx
	leaq	8(%rsp), %rdi
	movl	$2, %r8d
	movq	%r15, %rsi
	xorl	%edx, %edx
	movq	%r12, %r9
	callq	_ZNSt7__cxx1112basic_stringIcSt11char_traitsIcESaIcEE15_M_replace_coldEPcmPKcmm@PLT
.Ltmp11:
	jmp	.LBB3_22
.LBB3_42:
.Ltmp19:
	callq	_ZSt17__throw_bad_allocv@PLT
.Ltmp20:
# %bb.43:                               # %.noexc23
.LBB3_44:
	leaq	.L.str.9(%rip), %rdi
.LBB3_45:                               # %.invoke
.Ltmp21:
	callq	_ZSt20__throw_length_errorPKc@PLT
.Ltmp22:
# %bb.46:                               # %.cont
.LBB3_47:
.Ltmp16:
	leaq	.L.str.41(%rip), %rdi
	callq	_ZSt20__throw_length_errorPKc@PLT
.Ltmp17:
# %bb.48:                               # %.noexc4
.LBB3_49:
.Ltmp18:
	movq	%rax, %rbx
	movq	40(%rsp), %rdi
	cmpq	%r15, %rdi
	jne	.LBB3_52
# %bb.50:                               # %_ZNSt7__cxx1112basic_stringIcSt11char_traitsIcESaIcEED2Ev.exit12
	movq	8(%rsp), %rdi
	leaq	24(%rsp), %rax
	cmpq	%rax, %rdi
	jne	.LBB3_54
.LBB3_51:                               # %_ZNSt7__cxx1112basic_stringIcSt11char_traitsIcESaIcEED2Ev.exit15
	movq	%rbx, %rdi
	callq	_Unwind_Resume@PLT
.LBB3_52:                               # %_ZNKSt7__cxx1112basic_stringIcSt11char_traitsIcESaIcEE11_M_is_localEv.exit.i.i10
	movq	56(%rsp), %rsi
	incq	%rsi
	callq	_ZdlPvm@PLT
	movq	8(%rsp), %rdi
	leaq	24(%rsp), %rax
	cmpq	%rax, %rdi
	je	.LBB3_51
	jmp	.LBB3_54
.LBB3_53:
.Ltmp23:
	movq	%rax, %rbx
	movq	8(%rsp), %rdi
	leaq	24(%rsp), %rax
	cmpq	%rax, %rdi
	je	.LBB3_51
.LBB3_54:                               # %_ZNKSt7__cxx1112basic_stringIcSt11char_traitsIcESaIcEE11_M_is_localEv.exit.i.i13
	movq	24(%rsp), %rsi
	incq	%rsi
	callq	_ZdlPvm@PLT
	movq	%rbx, %rdi
	callq	_Unwind_Resume@PLT
.Lfunc_end3:
	.size	_ZNK8pybind116detail25error_fetch_and_normalize12error_stringB5cxx11Ev, .Lfunc_end3-_ZNK8pybind116detail25error_fetch_and_normalize12error_stringB5cxx11Ev
	.cfi_endproc
	.section	.gcc_except_table._ZNK8pybind116detail25error_fetch_and_normalize12error_stringB5cxx11Ev,"aG",@progbits,_ZNK8pybind116detail25error_fetch_and_normalize12error_stringB5cxx11Ev,comdat
	.p2align	2, 0x0
GCC_except_table3:
.Lexception1:
	.byte	255                             # @LPStart Encoding = omit
	.byte	255                             # @TType Encoding = omit
	.byte	1                               # Call site Encoding = uleb128
	.uleb128 .Lcst_end1-.Lcst_begin1
.Lcst_begin1:
	.uleb128 .Lfunc_begin1-.Lfunc_begin1    # >> Call Site 1 <<
	.uleb128 .Ltmp12-.Lfunc_begin1          #   Call between .Lfunc_begin1 and .Ltmp12
	.byte	0                               #     has no landing pad
	.byte	0                               #   On action: cleanup
	.uleb128 .Ltmp12-.Lfunc_begin1          # >> Call Site 2 <<
	.uleb128 .Ltmp13-.Ltmp12                #   Call between .Ltmp12 and .Ltmp13
	.uleb128 .Ltmp23-.Lfunc_begin1          #     jumps to .Ltmp23
	.byte	0                               #   On action: cleanup
	.uleb128 .Ltmp13-.Lfunc_begin1          # >> Call Site 3 <<
	.uleb128 .Ltmp14-.Ltmp13                #   Call between .Ltmp13 and .Ltmp14
	.byte	0                               #     has no landing pad
	.byte	0                               #   On action: cleanup
	.uleb128 .Ltmp14-.Lfunc_begin1          # >> Call Site 4 <<
	.uleb128 .Ltmp15-.Ltmp14                #   Call between .Ltmp14 and .Ltmp15
	.uleb128 .Ltmp18-.Lfunc_begin1          #     jumps to .Ltmp18
	.byte	0                               #   On action: cleanup
	.uleb128 .Ltmp15-.Lfunc_begin1          # >> Call Site 5 <<
	.uleb128 .Ltmp10-.Ltmp15                #   Call between .Ltmp15 and .Ltmp10
	.byte	0                               #     has no landing pad
	.byte	0                               #   On action: cleanup
	.uleb128 .Ltmp10-.Lfunc_begin1          # >> Call Site 6 <<
	.uleb128 .Ltmp22-.Ltmp10                #   Call between .Ltmp10 and .Ltmp22
	.uleb128 .Ltmp23-.Lfunc_begin1          #     jumps to .Ltmp23
	.byte	0                               #   On action: cleanup
	.uleb128 .Ltmp16-.Lfunc_begin1          # >> Call Site 7 <<
	.uleb128 .Ltmp17-.Ltmp16                #   Call between .Ltmp16 and .Ltmp17
	.uleb128 .Ltmp18-.Lfunc_begin1          #     jumps to .Ltmp18
	.byte	0                               #   On action: cleanup
	.uleb128 .Ltmp17-.Lfunc_begin1          # >> Call Site 8 <<
	.uleb128 .Lfunc_end3-.Ltmp17            #   Call between .Ltmp17 and .Lfunc_end3
	.byte	0                               #     has no landing pad
	.byte	0                               #   On action: cleanup
.Lcst_end1:
	.p2align	2, 0x0
                                        # -- End function
	.section	.text._ZN8pybind1111error_scopeD2Ev,"axG",@progbits,_ZN8pybind1111error_scopeD2Ev,comdat
	.hidden	_ZN8pybind1111error_scopeD2Ev   # -- Begin function _ZN8pybind1111error_scopeD2Ev
	.weak	_ZN8pybind1111error_scopeD2Ev
	.p2align	4, 0x90
	.type	_ZN8pybind1111error_scopeD2Ev,@function
_ZN8pybind1111error_scopeD2Ev:          # @_ZN8pybind1111error_scopeD2Ev
.Lfunc_begin2:
	.cfi_startproc
	.cfi_personality 155, DW.ref.__gxx_personality_v0
	.cfi_lsda 27, .Lexception2
# %bb.0:
	pushq	%rax
	.cfi_def_cfa_offset 16
	movq	(%rdi), %rax
	movq	8(%rdi), %rsi
	movq	16(%rdi), %rdx
.Ltmp24:
	movq	%rax, %rdi
	callq	PyErr_Restore@PLT
.Ltmp25:
# %bb.1:
	popq	%rax
	.cfi_def_cfa_offset 8
	retq
.LBB4_2:
	.cfi_def_cfa_offset 16
.Ltmp26:
	movq	%rax, %rdi
	callq	__clang_call_terminate
.Lfunc_end4:
	.size	_ZN8pybind1111error_scopeD2Ev, .Lfunc_end4-_ZN8pybind1111error_scopeD2Ev
	.cfi_endproc
	.section	.gcc_except_table._ZN8pybind1111error_scopeD2Ev,"aG",@progbits,_ZN8pybind1111error_scopeD2Ev,comdat
	.p2align	2, 0x0
GCC_except_table4:
.Lexception2:
	.byte	255                             # @LPStart Encoding = omit
	.byte	155                             # @TType Encoding = indirect pcrel sdata4
	.uleb128 .Lttbase1-.Lttbaseref1
.Lttbaseref1:
	.byte	1                               # Call site Encoding = uleb128
	.uleb128 .Lcst_end2-.Lcst_begin2
.Lcst_begin2:
	.uleb128 .Ltmp24-.Lfunc_begin2          # >> Call Site 1 <<
	.uleb128 .Ltmp25-.Ltmp24                #   Call between .Ltmp24 and .Ltmp25
	.uleb128 .Ltmp26-.Lfunc_begin2          #     jumps to .Ltmp26
	.byte	1                               #   On action: 1
.Lcst_end2:
	.byte	1                               # >> Action Record 1 <<
                                        #   Catch TypeInfo 1
	.byte	0                               #   No further actions
	.p2align	2, 0x0
                                        # >> Catch TypeInfos <<
	.long	0                               # TypeInfo 1
.Lttbase1:
	.p2align	2, 0x0
                                        # -- End function
	.section	.text._ZN8pybind1118gil_scoped_acquireD2Ev,"axG",@progbits,_ZN8pybind1118gil_scoped_acquireD2Ev,comdat
	.hidden	_ZN8pybind1118gil_scoped_acquireD2Ev # -- Begin function _ZN8pybind1118gil_scoped_acquireD2Ev
	.weak	_ZN8pybind1118gil_scoped_acquireD2Ev
	.p2align	4, 0x90
	.type	_ZN8pybind1118gil_scoped_acquireD2Ev,@function
_ZN8pybind1118gil_scoped_acquireD2Ev:   # @_ZN8pybind1118gil_scoped_acquireD2Ev
.Lfunc_begin3:
	.cfi_startproc
	.cfi_personality 155, DW.ref.__gxx_personality_v0
	.cfi_lsda 27, .Lexception3
# %bb.0:
	pushq	%rbx
	.cfi_def_cfa_offset 16
	.cfi_offset %rbx, -16
	movq	%rdi, %rbx
.Ltmp27:
	callq	_ZN8pybind1118gil_scoped_acquire7dec_refEv
.Ltmp28:
# %bb.1:
	cmpb	$1, 8(%rbx)
	jne	.LBB5_3
# %bb.2:
.Ltmp29:
	callq	PyEval_SaveThread@PLT
.Ltmp30:
.LBB5_3:
	popq	%rbx
	.cfi_def_cfa_offset 8
	retq
.LBB5_4:
	.cfi_def_cfa_offset 16
.Ltmp31:
	movq	%rax, %rdi
	callq	__clang_call_terminate
.Lfunc_end5:
	.size	_ZN8pybind1118gil_scoped_acquireD2Ev, .Lfunc_end5-_ZN8pybind1118gil_scoped_acquireD2Ev
	.cfi_endproc
	.section	.gcc_except_table._ZN8pybind1118gil_scoped_acquireD2Ev,"aG",@progbits,_ZN8pybind1118gil_scoped_acquireD2Ev,comdat
	.p2align	2, 0x0
GCC_except_table5:
.Lexception3:
	.byte	255                             # @LPStart Encoding = omit
	.byte	155                             # @TType Encoding = indirect pcrel sdata4
	.uleb128 .Lttbase2-.Lttbaseref2
.Lttbaseref2:
	.byte	1                               # Call site Encoding = uleb128
	.uleb128 .Lcst_end3-.Lcst_begin3
.Lcst_begin3:
	.uleb128 .Ltmp27-.Lfunc_begin3          # >> Call Site 1 <<
	.uleb128 .Ltmp30-.Ltmp27                #   Call between .Ltmp27 and .Ltmp30
	.uleb128 .Ltmp31-.Lfunc_begin3          #     jumps to .Ltmp31
	.byte	1                               #   On action: 1
.Lcst_end3:
	.byte	1                               # >> Action Record 1 <<
                                        #   Catch TypeInfo 1
	.byte	0                               #   No further actions
	.p2align	2, 0x0
                                        # >> Catch TypeInfos <<
	.long	0                               # TypeInfo 1
.Lttbase2:
	.p2align	2, 0x0
                                        # -- End function
	.text
	.globl	_Z23__device_stub__micro_tk13micro_globals # -- Begin function _Z23__device_stub__micro_tk13micro_globals
	.p2align	4, 0x90
	.type	_Z23__device_stub__micro_tk13micro_globals,@function
_Z23__device_stub__micro_tk13micro_globals: # @_Z23__device_stub__micro_tk13micro_globals
	.cfi_startproc
# %bb.0:
	subq	$56, %rsp
	.cfi_def_cfa_offset 64
	movq	%rdi, (%rsp)
	leaq	40(%rsp), %rdi
	leaq	24(%rsp), %rsi
	leaq	16(%rsp), %rdx
	leaq	8(%rsp), %rcx
	callq	__hipPopCallConfiguration@PLT
	movq	40(%rsp), %rsi
	movl	48(%rsp), %edx
	movq	24(%rsp), %rcx
	movl	32(%rsp), %r8d
	movq	_Z8micro_tk13micro_globals@GOTPCREL(%rip), %rdi
	movq	%rsp, %r9
	pushq	8(%rsp)
	.cfi_adjust_cfa_offset 8
	pushq	24(%rsp)
	.cfi_adjust_cfa_offset 8
	callq	hipLaunchKernel@PLT
	addq	$72, %rsp
	.cfi_adjust_cfa_offset -72
	retq
.Lfunc_end6:
	.size	_Z23__device_stub__micro_tk13micro_globals, .Lfunc_end6-_Z23__device_stub__micro_tk13micro_globals
	.cfi_endproc
                                        # -- End function
	.globl	_Z14dispatch_micro13micro_globals # -- Begin function _Z14dispatch_micro13micro_globals
	.p2align	4, 0x90
	.type	_Z14dispatch_micro13micro_globals,@function
_Z14dispatch_micro13micro_globals:      # @_Z14dispatch_micro13micro_globals
	.cfi_startproc
# %bb.0:
	pushq	%rbx
	.cfi_def_cfa_offset 16
	subq	$208, %rsp
	.cfi_def_cfa_offset 224
	.cfi_offset %rbx, -16
	movq	%rdi, %rbx
	movq	_Z8micro_tk13micro_globals@GOTPCREL(%rip), %rdi
	movl	$8, %esi
	movl	$49152, %edx                    # imm = 0xC000
	callq	hipFuncSetAttribute@PLT
	movabsq	$274877906976, %rdi             # imm = 0x4000000020
	movabsq	$4294967808, %rdx               # imm = 0x100000200
	movl	$49152, %r8d                    # imm = 0xC000
	movl	$1, %esi
	movl	$1, %ecx
	xorl	%r9d, %r9d
	callq	__hipPushCallConfiguration@PLT
	testl	%eax, %eax
	je	.LBB7_1
# %bb.2:
	callq	hipDeviceSynchronize@PLT
	addq	$208, %rsp
	.cfi_def_cfa_offset 16
	popq	%rbx
	.cfi_def_cfa_offset 8
	retq
.LBB7_1:
	.cfi_def_cfa_offset 224
	movq	(%rbx), %rax
	movq	%rax, 64(%rsp)
	movups	8(%rbx), %xmm0
	movups	%xmm0, 72(%rsp)
	movups	24(%rbx), %xmm0
	movups	%xmm0, 88(%rsp)
	movq	48(%rbx), %rax
	movq	%rax, 112(%rsp)
	movups	56(%rbx), %xmm0
	movups	%xmm0, 120(%rsp)
	movups	72(%rbx), %xmm0
	movups	%xmm0, 136(%rsp)
	movq	96(%rbx), %rax
	movq	%rax, 160(%rsp)
	movups	104(%rbx), %xmm0
	movups	%xmm0, 168(%rsp)
	movups	120(%rbx), %xmm0
	movups	%xmm0, 184(%rsp)
	leaq	64(%rsp), %rax
	movq	%rax, (%rsp)
	leaq	48(%rsp), %rdi
	leaq	32(%rsp), %rsi
	leaq	24(%rsp), %rdx
	leaq	16(%rsp), %rcx
	callq	__hipPopCallConfiguration@PLT
	movq	48(%rsp), %rsi
	movl	56(%rsp), %edx
	movq	32(%rsp), %rcx
	movl	40(%rsp), %r8d
	movq	_Z8micro_tk13micro_globals@GOTPCREL(%rip), %rdi
	movq	%rsp, %r9
	pushq	16(%rsp)
	.cfi_adjust_cfa_offset 8
	pushq	32(%rsp)
	.cfi_adjust_cfa_offset 8
	callq	hipLaunchKernel@PLT
	addq	$16, %rsp
	.cfi_adjust_cfa_offset -16
	callq	hipDeviceSynchronize@PLT
	addq	$208, %rsp
	.cfi_def_cfa_offset 16
	popq	%rbx
	.cfi_def_cfa_offset 8
	retq
.Lfunc_end7:
	.size	_Z14dispatch_micro13micro_globals, .Lfunc_end7-_Z14dispatch_micro13micro_globals
	.cfi_endproc
                                        # -- End function
	.globl	PyInit_tk_kernel                # -- Begin function PyInit_tk_kernel
	.p2align	4, 0x90
	.type	PyInit_tk_kernel,@function
PyInit_tk_kernel:                       # @PyInit_tk_kernel
.Lfunc_begin4:
	.cfi_startproc
	.cfi_personality 155, DW.ref.__gxx_personality_v0
	.cfi_lsda 27, .Lexception4
# %bb.0:
	pushq	%r15
	.cfi_def_cfa_offset 16
	pushq	%r14
	.cfi_def_cfa_offset 24
	pushq	%r13
	.cfi_def_cfa_offset 32
	pushq	%r12
	.cfi_def_cfa_offset 40
	pushq	%rbx
	.cfi_def_cfa_offset 48
	subq	$80, %rsp
	.cfi_def_cfa_offset 128
	.cfi_offset %rbx, -48
	.cfi_offset %r12, -40
	.cfi_offset %r13, -32
	.cfi_offset %r14, -24
	.cfi_offset %r15, -16
	callq	Py_GetVersion@PLT
	movq	%rax, %r14
	leaq	.L.str(%rip), %rsi
	movl	$4, %edx
	movq	%rax, %rdi
	callq	strncmp@PLT
	testl	%eax, %eax
	jne	.LBB8_2
# %bb.1:
	movzbl	4(%r14), %eax
	addb	$-48, %al
	cmpb	$9, %al
	ja	.LBB8_4
.LBB8_2:
	movq	PyExc_ImportError@GOTPCREL(%rip), %rax
	movq	(%rax), %rdi
	leaq	.L.str.1(%rip), %rsi
	leaq	.L.str(%rip), %rdx
	xorl	%ebx, %ebx
	movq	%r14, %rcx
	xorl	%eax, %eax
	callq	PyErr_Format@PLT
.LBB8_3:
	movq	%rbx, %rax
	addq	$80, %rsp
	.cfi_def_cfa_offset 48
	popq	%rbx
	.cfi_def_cfa_offset 40
	popq	%r12
	.cfi_def_cfa_offset 32
	popq	%r13
	.cfi_def_cfa_offset 24
	popq	%r14
	.cfi_def_cfa_offset 16
	popq	%r15
	.cfi_def_cfa_offset 8
	retq
.LBB8_4:
	.cfi_def_cfa_offset 128
	callq	_ZN8pybind116detail13get_internalsEv
	leaq	.L.str.2(%rip), %rsi
	leaq	_ZL29pybind11_module_def_tk_kernel(%rip), %rcx
	leaq	24(%rsp), %rdi
	xorl	%edx, %edx
	xorl	%r8d, %r8d
	callq	_ZN8pybind117module_23create_extension_moduleEPKcS2_P11PyModuleDefNS_16mod_gil_not_usedE
	movq	24(%rsp), %rax
	movq	%rax, 56(%rsp)
	leaq	.L.str.177(%rip), %rax
	movq	%rax, 64(%rsp)
	leaq	72(%rsp), %r15
	movq	$0, 72(%rsp)
.Ltmp32:
	leaq	.L.str.174(%rip), %rsi
	leaq	48(%rsp), %rdi
	callq	_ZNO8pybind116detail8accessorINS0_17accessor_policies8str_attrEEaSIRA24_KcEEvOT_
.Ltmp33:
# %bb.5:
.Ltmp38:
	movq	%r15, %rdi
	callq	_ZNKR8pybind116handle7dec_refEv
.Ltmp39:
# %bb.6:                                # %_ZN8pybind116detail8accessorINS0_17accessor_policies8str_attrEED2Ev.exit.i
	movq	24(%rsp), %rax
	movq	%rax, 40(%rsp)
.Ltmp41:
	leaq	40(%rsp), %rdi
	callq	_ZNKR8pybind116handle7inc_refEv
.Ltmp42:
# %bb.7:                                # %.noexc
	movq	40(%rsp), %rbx
	movq	_Py_NoneStruct@GOTPCREL(%rip), %r12
	movq	%r12, 16(%rsp)
.Ltmp43:
	leaq	16(%rsp), %rdi
	callq	_ZNKR8pybind116handle7inc_refEv
.Ltmp44:
# %bb.8:                                # %.noexc.i
	movq	16(%rsp), %r13
.Ltmp46:
	leaq	.L.str.175(%rip), %r14
	movq	%rbx, %rdi
	movq	%r14, %rsi
	callq	PyObject_GetAttrString@PLT
.Ltmp47:
# %bb.9:                                # %.noexc.i.i.i
	movq	%rax, %r15
	testq	%rax, %rax
	je	.LBB8_11
# %bb.10:
	movq	%r15, 8(%rsp)
	jmp	.LBB8_14
.LBB8_11:
.Ltmp48:
	callq	PyErr_Clear@PLT
.Ltmp49:
# %bb.12:                               # %.noexc13.i.i.i
	movq	%r13, 8(%rsp)
.Ltmp50:
	leaq	8(%rsp), %rdi
	callq	_ZNKR8pybind116handle7inc_refEv
.Ltmp51:
# %bb.13:                               # %.noexc13._crit_edge.i.i.i
	movq	8(%rsp), %r15
.LBB8_14:
	movq	$0, (%rsp)
.Ltmp53:
	leaq	48(%rsp), %rdi
	movq	%rsp, %rsi
	callq	_ZN8pybind1112cpp_function20make_function_recordEv
.Ltmp54:
# %bb.15:                               # %.noexc.i.i.i.i
	movq	48(%rsp), %rax
	leaq	_ZZN8pybind1112cpp_function10initializeIZN7kittens2pyL11bind_kernelITnDaXadL_Z8micro_tk13micro_globalsEES5_NS_7module_EPKcJNS2_2glI14__hip_bfloat16Lin1ELin1ELin1ELin1EJEEESB_NS9_IfLin1ELin1ELin1ELin1EJEEEEEEvT1_T2_DpMT0_T3_EUlNS_6objectESJ_SJ_E_vJSJ_SJ_SJ_EJNS_4nameENS_5scopeENS_7siblingEEEEvOT_PFSF_DpT1_EDpRKT2_ENUlRNS_6detail13function_callEE_8__invokeES10_(%rip), %rcx
	movq	%rcx, 48(%rax)
	movw	$3, 94(%rax)
	andb	$63, 89(%rax)
	movq	%r14, (%rax)
	movq	%rbx, 112(%rax)
	movq	%r15, 120(%rax)
.Ltmp56:
	leaq	_ZZN8pybind1112cpp_function10initializeIZN7kittens2pyL11bind_kernelITnDaXadL_Z8micro_tk13micro_globalsEES5_NS_7module_EPKcJNS2_2glI14__hip_bfloat16Lin1ELin1ELin1ELin1EJEEESB_NS9_IfLin1ELin1ELin1ELin1EJEEEEEEvT1_T2_DpMT0_T3_EUlNS_6objectESJ_SJ_E_vJSJ_SJ_SJ_EJNS_4nameENS_5scopeENS_7siblingEEEEvOT_PFSF_DpT1_EDpRKT2_E9signature(%rip), %rdx
	leaq	_ZZN8pybind1112cpp_function10initializeIZN7kittens2pyL11bind_kernelITnDaXadL_Z8micro_tk13micro_globalsEES5_NS_7module_EPKcJNS2_2glI14__hip_bfloat16Lin1ELin1ELin1ELin1EJEEESB_NS9_IfLin1ELin1ELin1ELin1EJEEEEEEvT1_T2_DpMT0_T3_EUlNS_6objectESJ_SJ_E_vJSJ_SJ_SJ_EJNS_4nameENS_5scopeENS_7siblingEEEEvOT_PFSF_DpT1_EDpRKT2_E5types(%rip), %rcx
	movq	%rsp, %rdi
	leaq	48(%rsp), %rsi
	movl	$3, %r8d
	callq	_ZN8pybind1112cpp_function18initialize_genericEOSt10unique_ptrINS_6detail15function_recordENS0_33InitializingFunctionRecordDeleterEEPKcPKPKSt9type_infom
.Ltmp57:
# %bb.16:
	movq	48(%rsp), %rdi
	testq	%rdi, %rdi
	je	.LBB8_18
# %bb.17:
.Ltmp68:
	xorl	%esi, %esi
	callq	_ZN8pybind1112cpp_function8destructEPNS_6detail15function_recordEb
.Ltmp69:
.LBB8_18:
.Ltmp71:
	leaq	8(%rsp), %rdi
	callq	_ZNKR8pybind116handle7dec_refEv
.Ltmp72:
# %bb.19:                               # %_ZN8pybind116objectD2Ev.exit.i.i.i
.Ltmp74:
	leaq	16(%rsp), %rdi
	callq	_ZNKR8pybind116handle7dec_refEv
.Ltmp75:
# %bb.20:                               # %_ZN8pybind116objectD2Ev.exit15.i.i.i
	movq	(%rsp), %rdx
.Ltmp77:
	leaq	.L.str.175(%rip), %rsi
	leaq	40(%rsp), %rdi
	movl	$1, %ecx
	callq	_ZN8pybind117module_10add_objectEPKcNS_6handleEb
.Ltmp78:
# %bb.21:
.Ltmp86:
	movq	%rsp, %rdi
	callq	_ZNKR8pybind116handle7dec_refEv
.Ltmp87:
# %bb.22:
.Ltmp89:
	leaq	40(%rsp), %rdi
	callq	_ZNKR8pybind116handle7dec_refEv
.Ltmp90:
# %bb.23:                               # %_ZN8pybind116objectD2Ev.exit.i
	movq	24(%rsp), %rax
	movq	%rax, 32(%rsp)
.Ltmp92:
	leaq	32(%rsp), %rdi
	callq	_ZNKR8pybind116handle7inc_refEv
.Ltmp93:
# %bb.24:                               # %.noexc29
	movq	32(%rsp), %rbx
	movq	%r12, 16(%rsp)
.Ltmp95:
	leaq	16(%rsp), %rdi
	callq	_ZNKR8pybind116handle7inc_refEv
.Ltmp96:
# %bb.25:                               # %.noexc27.i
	movq	16(%rsp), %r12
.Ltmp98:
	leaq	.L.str.176(%rip), %r14
	movq	%rbx, %rdi
	movq	%r14, %rsi
	callq	PyObject_GetAttrString@PLT
.Ltmp99:
# %bb.26:                               # %.noexc.i.i14.i
	movq	%rax, %r15
	testq	%rax, %rax
	je	.LBB8_28
# %bb.27:
	movq	%r15, 8(%rsp)
	jmp	.LBB8_31
.LBB8_28:
.Ltmp100:
	callq	PyErr_Clear@PLT
.Ltmp101:
# %bb.29:                               # %.noexc13.i.i24.i
	movq	%r12, 8(%rsp)
.Ltmp102:
	leaq	8(%rsp), %rdi
	callq	_ZNKR8pybind116handle7inc_refEv
.Ltmp103:
# %bb.30:                               # %.noexc13._crit_edge.i.i25.i
	movq	8(%rsp), %r15
.LBB8_31:
	movq	$0, (%rsp)
.Ltmp105:
	leaq	48(%rsp), %rdi
	movq	%rsp, %rsi
	callq	_ZN8pybind1112cpp_function20make_function_recordEv
.Ltmp106:
# %bb.32:                               # %.noexc.i.i.i19.i
	movq	48(%rsp), %rax
	leaq	_ZZN8pybind1112cpp_function10initializeIZN7kittens2pyL13bind_functionITnDaXadL_Z14dispatch_micro13micro_globalsEES5_NS_7module_EPKcJNS2_2glI14__hip_bfloat16Lin1ELin1ELin1ELin1EJEEESB_NS9_IfLin1ELin1ELin1ELin1EJEEEEEEvT1_T2_DpMT0_T3_EUlNS_6objectESJ_SJ_E_vJSJ_SJ_SJ_EJNS_4nameENS_5scopeENS_7siblingEEEEvOT_PFSF_DpT1_EDpRKT2_ENUlRNS_6detail13function_callEE_8__invokeES10_(%rip), %rcx
	movq	%rcx, 48(%rax)
	movw	$3, 94(%rax)
	andb	$63, 89(%rax)
	movq	%r14, (%rax)
	movq	%rbx, 112(%rax)
	movq	%r15, 120(%rax)
.Ltmp108:
	leaq	_ZZN8pybind1112cpp_function10initializeIZN7kittens2pyL13bind_functionITnDaXadL_Z14dispatch_micro13micro_globalsEES5_NS_7module_EPKcJNS2_2glI14__hip_bfloat16Lin1ELin1ELin1ELin1EJEEESB_NS9_IfLin1ELin1ELin1ELin1EJEEEEEEvT1_T2_DpMT0_T3_EUlNS_6objectESJ_SJ_E_vJSJ_SJ_SJ_EJNS_4nameENS_5scopeENS_7siblingEEEEvOT_PFSF_DpT1_EDpRKT2_E9signature(%rip), %rdx
	leaq	_ZZN8pybind1112cpp_function10initializeIZN7kittens2pyL13bind_functionITnDaXadL_Z14dispatch_micro13micro_globalsEES5_NS_7module_EPKcJNS2_2glI14__hip_bfloat16Lin1ELin1ELin1ELin1EJEEESB_NS9_IfLin1ELin1ELin1ELin1EJEEEEEEvT1_T2_DpMT0_T3_EUlNS_6objectESJ_SJ_E_vJSJ_SJ_SJ_EJNS_4nameENS_5scopeENS_7siblingEEEEvOT_PFSF_DpT1_EDpRKT2_E5types(%rip), %rcx
	movq	%rsp, %rdi
	leaq	48(%rsp), %rsi
	movl	$3, %r8d
	callq	_ZN8pybind1112cpp_function18initialize_genericEOSt10unique_ptrINS_6detail15function_recordENS0_33InitializingFunctionRecordDeleterEEPKcPKPKSt9type_infom
.Ltmp109:
# %bb.33:
	movq	48(%rsp), %rdi
	testq	%rdi, %rdi
	je	.LBB8_35
# %bb.34:
.Ltmp120:
	xorl	%esi, %esi
	callq	_ZN8pybind1112cpp_function8destructEPNS_6detail15function_recordEb
.Ltmp121:
.LBB8_35:
.Ltmp123:
	leaq	8(%rsp), %rdi
	callq	_ZNKR8pybind116handle7dec_refEv
.Ltmp124:
# %bb.36:                               # %_ZN8pybind116objectD2Ev.exit.i.i21.i
.Ltmp126:
	leaq	16(%rsp), %rdi
	callq	_ZNKR8pybind116handle7dec_refEv
.Ltmp127:
# %bb.37:                               # %_ZN8pybind116objectD2Ev.exit15.i.i22.i
	movq	(%rsp), %rdx
.Ltmp129:
	leaq	.L.str.176(%rip), %rsi
	leaq	32(%rsp), %rdi
	movl	$1, %ecx
	callq	_ZN8pybind117module_10add_objectEPKcNS_6handleEb
.Ltmp130:
# %bb.38:
.Ltmp160:
	movq	%rsp, %rdi
	callq	_ZNKR8pybind116handle7dec_refEv
.Ltmp161:
# %bb.39:
.Ltmp163:
	leaq	32(%rsp), %rdi
	callq	_ZNKR8pybind116handle7dec_refEv
.Ltmp164:
# %bb.40:
	movq	24(%rsp), %rbx
.LBB8_41:
.Ltmp166:
	leaq	24(%rsp), %rdi
	callq	_ZNKR8pybind116handle7dec_refEv
.Ltmp167:
	jmp	.LBB8_3
.LBB8_42:
.Ltmp122:
	movq	%rax, %rdi
	callq	__clang_call_terminate
.LBB8_43:
.Ltmp70:
	movq	%rax, %rdi
	callq	__clang_call_terminate
.LBB8_44:
.Ltmp165:
	movq	%rax, %rdi
	callq	__clang_call_terminate
.LBB8_45:
.Ltmp162:
	movq	%rax, %rdi
	callq	__clang_call_terminate
.LBB8_46:
.Ltmp131:
	movq	%rdx, %r14
	movq	%rax, %rbx
.Ltmp132:
	movq	%rsp, %rdi
	callq	_ZNKR8pybind116handle7dec_refEv
.Ltmp133:
	jmp	.LBB8_76
.LBB8_47:
.Ltmp134:
	movq	%rax, %rdi
	callq	__clang_call_terminate
.LBB8_48:
.Ltmp128:
	movq	%rax, %rdi
	callq	__clang_call_terminate
.LBB8_49:
.Ltmp125:
	movq	%rax, %rdi
	callq	__clang_call_terminate
.LBB8_50:
.Ltmp110:
	movq	%rdx, %r14
	movq	%rax, %rbx
	leaq	48(%rsp), %rdi
	callq	_ZNSt10unique_ptrIN8pybind116detail15function_recordENS0_12cpp_function33InitializingFunctionRecordDeleterEED2Ev
	jmp	.LBB8_52
.LBB8_51:
.Ltmp107:
	movq	%rdx, %r14
	movq	%rax, %rbx
.LBB8_52:                               # %.body.i.i.i16.i
.Ltmp111:
	movq	%rsp, %rdi
	callq	_ZNKR8pybind116handle7dec_refEv
.Ltmp112:
# %bb.53:                               # %.body.i.i18.i
.Ltmp114:
	leaq	8(%rsp), %rdi
	callq	_ZNKR8pybind116handle7dec_refEv
.Ltmp115:
	jmp	.LBB8_75
.LBB8_54:
.Ltmp116:
	movq	%rax, %rdi
	callq	__clang_call_terminate
.LBB8_55:
.Ltmp113:
	movq	%rax, %rdi
	callq	__clang_call_terminate
.LBB8_56:
.Ltmp97:
	movq	%rdx, %r14
	movq	%rax, %rbx
	jmp	.LBB8_76
.LBB8_57:
.Ltmp91:
	movq	%rax, %rdi
	callq	__clang_call_terminate
.LBB8_58:
.Ltmp88:
	movq	%rax, %rdi
	callq	__clang_call_terminate
.LBB8_59:
.Ltmp79:
	movq	%rdx, %r14
	movq	%rax, %rbx
.Ltmp80:
	movq	%rsp, %rdi
	callq	_ZNKR8pybind116handle7dec_refEv
.Ltmp81:
	jmp	.LBB8_81
.LBB8_60:
.Ltmp82:
	movq	%rax, %rdi
	callq	__clang_call_terminate
.LBB8_61:
.Ltmp168:
	movq	%rax, %rdi
	callq	__clang_call_terminate
.LBB8_62:
.Ltmp76:
	movq	%rax, %rdi
	callq	__clang_call_terminate
.LBB8_63:
.Ltmp73:
	movq	%rax, %rdi
	callq	__clang_call_terminate
.LBB8_64:
.Ltmp58:
	movq	%rdx, %r14
	movq	%rax, %rbx
	leaq	48(%rsp), %rdi
	callq	_ZNSt10unique_ptrIN8pybind116detail15function_recordENS0_12cpp_function33InitializingFunctionRecordDeleterEED2Ev
	jmp	.LBB8_66
.LBB8_65:
.Ltmp55:
	movq	%rdx, %r14
	movq	%rax, %rbx
.LBB8_66:                               # %.body.i.i.i.i
.Ltmp59:
	movq	%rsp, %rdi
	callq	_ZNKR8pybind116handle7dec_refEv
.Ltmp60:
# %bb.67:                               # %.body.i.i.i
.Ltmp62:
	leaq	8(%rsp), %rdi
	callq	_ZNKR8pybind116handle7dec_refEv
.Ltmp63:
	jmp	.LBB8_80
.LBB8_68:
.Ltmp64:
	movq	%rax, %rdi
	callq	__clang_call_terminate
.LBB8_69:
.Ltmp61:
	movq	%rax, %rdi
	callq	__clang_call_terminate
.LBB8_70:
.Ltmp45:
	movq	%rdx, %r14
	movq	%rax, %rbx
	jmp	.LBB8_81
.LBB8_71:
.Ltmp40:
	movq	%rax, %rdi
	callq	__clang_call_terminate
.LBB8_72:
.Ltmp34:
	movq	%rdx, %r14
	movq	%rax, %rbx
.Ltmp35:
	movq	%r15, %rdi
	callq	_ZNKR8pybind116handle7dec_refEv
.Ltmp36:
	jmp	.LBB8_85
.LBB8_73:
.Ltmp37:
	movq	%rax, %rdi
	callq	__clang_call_terminate
.LBB8_74:
.Ltmp104:
	movq	%rdx, %r14
	movq	%rax, %rbx
.LBB8_75:                               # %_ZN8pybind116objectD2Ev.exit17.i.i9.i
.Ltmp117:
	leaq	16(%rsp), %rdi
	callq	_ZNKR8pybind116handle7dec_refEv
.Ltmp118:
.LBB8_76:                               # %.body28.i
.Ltmp135:
	leaq	32(%rsp), %rdi
	callq	_ZNKR8pybind116handle7dec_refEv
.Ltmp136:
	jmp	.LBB8_85
.LBB8_77:
.Ltmp119:
	movq	%rax, %rdi
	callq	__clang_call_terminate
.LBB8_78:
.Ltmp137:
	movq	%rax, %rdi
	callq	__clang_call_terminate
.LBB8_79:
.Ltmp52:
	movq	%rdx, %r14
	movq	%rax, %rbx
.LBB8_80:                               # %_ZN8pybind116objectD2Ev.exit17.i.i.i
.Ltmp65:
	leaq	16(%rsp), %rdi
	callq	_ZNKR8pybind116handle7dec_refEv
.Ltmp66:
.LBB8_81:                               # %.body.i
.Ltmp83:
	leaq	40(%rsp), %rdi
	callq	_ZNKR8pybind116handle7dec_refEv
.Ltmp84:
	jmp	.LBB8_85
.LBB8_82:
.Ltmp67:
	movq	%rax, %rdi
	callq	__clang_call_terminate
.LBB8_83:
.Ltmp85:
	movq	%rax, %rdi
	callq	__clang_call_terminate
.LBB8_84:
.Ltmp94:
	movq	%rdx, %r14
	movq	%rax, %rbx
.LBB8_85:                               # %.body
	cmpl	$2, %r14d
	jne	.LBB8_90
# %bb.86:
	movq	%rbx, %rdi
	callq	__cxa_begin_catch@PLT
	movq	PyExc_ImportError@GOTPCREL(%rip), %rcx
	movq	(%rcx), %rbx
	movq	8(%rax), %rdi
.Ltmp146:
	callq	_ZN8pybind116detail25error_fetch_and_normalize7restoreEv
.Ltmp147:
# %bb.87:                               # %.noexc30
.Ltmp148:
	leaq	.L.str.3(%rip), %rsi
	movq	%rbx, %rdi
	callq	_ZN8pybind1110raise_fromEP7_objectPKc
.Ltmp149:
# %bb.88:                               # %_ZN8pybind1110raise_fromERNS_17error_already_setEP7_objectPKc.exit
.Ltmp154:
	callq	__cxa_end_catch@PLT
.Ltmp155:
	jmp	.LBB8_89
.LBB8_90:
	cmpl	$1, %r14d
	jne	.LBB8_99
# %bb.91:
	movq	%rbx, %rdi
	callq	__cxa_begin_catch@PLT
	movq	PyExc_ImportError@GOTPCREL(%rip), %rcx
	movq	(%rcx), %rbx
	movq	(%rax), %rcx
	movq	%rax, %rdi
	callq	*16(%rcx)
.Ltmp138:
	movq	%rbx, %rdi
	movq	%rax, %rsi
	callq	PyErr_SetString@PLT
.Ltmp139:
# %bb.92:                               # %_ZN8pybind119set_errorERKNS_6handleEPKc.exit
.Ltmp143:
	callq	__cxa_end_catch@PLT
.Ltmp144:
.LBB8_89:
	xorl	%ebx, %ebx
	jmp	.LBB8_41
.LBB8_94:
.Ltmp145:
	jmp	.LBB8_97
.LBB8_95:
.Ltmp140:
	movq	%rax, %rbx
.Ltmp141:
	callq	__cxa_end_catch@PLT
.Ltmp142:
	jmp	.LBB8_99
.LBB8_96:
.Ltmp156:
.LBB8_97:
	movq	%rax, %rbx
	jmp	.LBB8_99
.LBB8_98:
.Ltmp150:
	movq	%rax, %rbx
.Ltmp151:
	callq	__cxa_end_catch@PLT
.Ltmp152:
.LBB8_99:
.Ltmp157:
	leaq	24(%rsp), %rdi
	callq	_ZNKR8pybind116handle7dec_refEv
.Ltmp158:
# %bb.100:                              # %_ZN8pybind116objectD2Ev.exit33
	movq	%rbx, %rdi
	callq	_Unwind_Resume@PLT
.LBB8_101:
.Ltmp153:
	movq	%rax, %rdi
	callq	__clang_call_terminate
.LBB8_102:
.Ltmp159:
	movq	%rax, %rdi
	callq	__clang_call_terminate
.Lfunc_end8:
	.size	PyInit_tk_kernel, .Lfunc_end8-PyInit_tk_kernel
	.cfi_endproc
	.section	.gcc_except_table,"a",@progbits
	.p2align	2, 0x0
GCC_except_table8:
.Lexception4:
	.byte	255                             # @LPStart Encoding = omit
	.byte	155                             # @TType Encoding = indirect pcrel sdata4
	.uleb128 .Lttbase3-.Lttbaseref3
.Lttbaseref3:
	.byte	1                               # Call site Encoding = uleb128
	.uleb128 .Lcst_end4-.Lcst_begin4
.Lcst_begin4:
	.uleb128 .Lfunc_begin4-.Lfunc_begin4    # >> Call Site 1 <<
	.uleb128 .Ltmp32-.Lfunc_begin4          #   Call between .Lfunc_begin4 and .Ltmp32
	.byte	0                               #     has no landing pad
	.byte	0                               #   On action: cleanup
	.uleb128 .Ltmp32-.Lfunc_begin4          # >> Call Site 2 <<
	.uleb128 .Ltmp33-.Ltmp32                #   Call between .Ltmp32 and .Ltmp33
	.uleb128 .Ltmp34-.Lfunc_begin4          #     jumps to .Ltmp34
	.byte	5                               #   On action: 3
	.uleb128 .Ltmp38-.Lfunc_begin4          # >> Call Site 3 <<
	.uleb128 .Ltmp39-.Ltmp38                #   Call between .Ltmp38 and .Ltmp39
	.uleb128 .Ltmp40-.Lfunc_begin4          #     jumps to .Ltmp40
	.byte	7                               #   On action: 4
	.uleb128 .Ltmp41-.Lfunc_begin4          # >> Call Site 4 <<
	.uleb128 .Ltmp42-.Ltmp41                #   Call between .Ltmp41 and .Ltmp42
	.uleb128 .Ltmp94-.Lfunc_begin4          #     jumps to .Ltmp94
	.byte	5                               #   On action: 3
	.uleb128 .Ltmp43-.Lfunc_begin4          # >> Call Site 5 <<
	.uleb128 .Ltmp44-.Ltmp43                #   Call between .Ltmp43 and .Ltmp44
	.uleb128 .Ltmp45-.Lfunc_begin4          #     jumps to .Ltmp45
	.byte	5                               #   On action: 3
	.uleb128 .Ltmp46-.Lfunc_begin4          # >> Call Site 6 <<
	.uleb128 .Ltmp51-.Ltmp46                #   Call between .Ltmp46 and .Ltmp51
	.uleb128 .Ltmp52-.Lfunc_begin4          #     jumps to .Ltmp52
	.byte	5                               #   On action: 3
	.uleb128 .Ltmp53-.Lfunc_begin4          # >> Call Site 7 <<
	.uleb128 .Ltmp54-.Ltmp53                #   Call between .Ltmp53 and .Ltmp54
	.uleb128 .Ltmp55-.Lfunc_begin4          #     jumps to .Ltmp55
	.byte	5                               #   On action: 3
	.uleb128 .Ltmp56-.Lfunc_begin4          # >> Call Site 8 <<
	.uleb128 .Ltmp57-.Ltmp56                #   Call between .Ltmp56 and .Ltmp57
	.uleb128 .Ltmp58-.Lfunc_begin4          #     jumps to .Ltmp58
	.byte	5                               #   On action: 3
	.uleb128 .Ltmp68-.Lfunc_begin4          # >> Call Site 9 <<
	.uleb128 .Ltmp69-.Ltmp68                #   Call between .Ltmp68 and .Ltmp69
	.uleb128 .Ltmp70-.Lfunc_begin4          #     jumps to .Ltmp70
	.byte	7                               #   On action: 4
	.uleb128 .Ltmp71-.Lfunc_begin4          # >> Call Site 10 <<
	.uleb128 .Ltmp72-.Ltmp71                #   Call between .Ltmp71 and .Ltmp72
	.uleb128 .Ltmp73-.Lfunc_begin4          #     jumps to .Ltmp73
	.byte	7                               #   On action: 4
	.uleb128 .Ltmp74-.Lfunc_begin4          # >> Call Site 11 <<
	.uleb128 .Ltmp75-.Ltmp74                #   Call between .Ltmp74 and .Ltmp75
	.uleb128 .Ltmp76-.Lfunc_begin4          #     jumps to .Ltmp76
	.byte	7                               #   On action: 4
	.uleb128 .Ltmp77-.Lfunc_begin4          # >> Call Site 12 <<
	.uleb128 .Ltmp78-.Ltmp77                #   Call between .Ltmp77 and .Ltmp78
	.uleb128 .Ltmp79-.Lfunc_begin4          #     jumps to .Ltmp79
	.byte	5                               #   On action: 3
	.uleb128 .Ltmp86-.Lfunc_begin4          # >> Call Site 13 <<
	.uleb128 .Ltmp87-.Ltmp86                #   Call between .Ltmp86 and .Ltmp87
	.uleb128 .Ltmp88-.Lfunc_begin4          #     jumps to .Ltmp88
	.byte	7                               #   On action: 4
	.uleb128 .Ltmp89-.Lfunc_begin4          # >> Call Site 14 <<
	.uleb128 .Ltmp90-.Ltmp89                #   Call between .Ltmp89 and .Ltmp90
	.uleb128 .Ltmp91-.Lfunc_begin4          #     jumps to .Ltmp91
	.byte	7                               #   On action: 4
	.uleb128 .Ltmp92-.Lfunc_begin4          # >> Call Site 15 <<
	.uleb128 .Ltmp93-.Ltmp92                #   Call between .Ltmp92 and .Ltmp93
	.uleb128 .Ltmp94-.Lfunc_begin4          #     jumps to .Ltmp94
	.byte	5                               #   On action: 3
	.uleb128 .Ltmp95-.Lfunc_begin4          # >> Call Site 16 <<
	.uleb128 .Ltmp96-.Ltmp95                #   Call between .Ltmp95 and .Ltmp96
	.uleb128 .Ltmp97-.Lfunc_begin4          #     jumps to .Ltmp97
	.byte	5                               #   On action: 3
	.uleb128 .Ltmp98-.Lfunc_begin4          # >> Call Site 17 <<
	.uleb128 .Ltmp103-.Ltmp98               #   Call between .Ltmp98 and .Ltmp103
	.uleb128 .Ltmp104-.Lfunc_begin4         #     jumps to .Ltmp104
	.byte	5                               #   On action: 3
	.uleb128 .Ltmp105-.Lfunc_begin4         # >> Call Site 18 <<
	.uleb128 .Ltmp106-.Ltmp105              #   Call between .Ltmp105 and .Ltmp106
	.uleb128 .Ltmp107-.Lfunc_begin4         #     jumps to .Ltmp107
	.byte	5                               #   On action: 3
	.uleb128 .Ltmp108-.Lfunc_begin4         # >> Call Site 19 <<
	.uleb128 .Ltmp109-.Ltmp108              #   Call between .Ltmp108 and .Ltmp109
	.uleb128 .Ltmp110-.Lfunc_begin4         #     jumps to .Ltmp110
	.byte	5                               #   On action: 3
	.uleb128 .Ltmp120-.Lfunc_begin4         # >> Call Site 20 <<
	.uleb128 .Ltmp121-.Ltmp120              #   Call between .Ltmp120 and .Ltmp121
	.uleb128 .Ltmp122-.Lfunc_begin4         #     jumps to .Ltmp122
	.byte	7                               #   On action: 4
	.uleb128 .Ltmp123-.Lfunc_begin4         # >> Call Site 21 <<
	.uleb128 .Ltmp124-.Ltmp123              #   Call between .Ltmp123 and .Ltmp124
	.uleb128 .Ltmp125-.Lfunc_begin4         #     jumps to .Ltmp125
	.byte	7                               #   On action: 4
	.uleb128 .Ltmp126-.Lfunc_begin4         # >> Call Site 22 <<
	.uleb128 .Ltmp127-.Ltmp126              #   Call between .Ltmp126 and .Ltmp127
	.uleb128 .Ltmp128-.Lfunc_begin4         #     jumps to .Ltmp128
	.byte	7                               #   On action: 4
	.uleb128 .Ltmp129-.Lfunc_begin4         # >> Call Site 23 <<
	.uleb128 .Ltmp130-.Ltmp129              #   Call between .Ltmp129 and .Ltmp130
	.uleb128 .Ltmp131-.Lfunc_begin4         #     jumps to .Ltmp131
	.byte	5                               #   On action: 3
	.uleb128 .Ltmp160-.Lfunc_begin4         # >> Call Site 24 <<
	.uleb128 .Ltmp161-.Ltmp160              #   Call between .Ltmp160 and .Ltmp161
	.uleb128 .Ltmp162-.Lfunc_begin4         #     jumps to .Ltmp162
	.byte	7                               #   On action: 4
	.uleb128 .Ltmp163-.Lfunc_begin4         # >> Call Site 25 <<
	.uleb128 .Ltmp164-.Ltmp163              #   Call between .Ltmp163 and .Ltmp164
	.uleb128 .Ltmp165-.Lfunc_begin4         #     jumps to .Ltmp165
	.byte	7                               #   On action: 4
	.uleb128 .Ltmp166-.Lfunc_begin4         # >> Call Site 26 <<
	.uleb128 .Ltmp167-.Ltmp166              #   Call between .Ltmp166 and .Ltmp167
	.uleb128 .Ltmp168-.Lfunc_begin4         #     jumps to .Ltmp168
	.byte	7                               #   On action: 4
	.uleb128 .Ltmp132-.Lfunc_begin4         # >> Call Site 27 <<
	.uleb128 .Ltmp133-.Ltmp132              #   Call between .Ltmp132 and .Ltmp133
	.uleb128 .Ltmp134-.Lfunc_begin4         #     jumps to .Ltmp134
	.byte	7                               #   On action: 4
	.uleb128 .Ltmp111-.Lfunc_begin4         # >> Call Site 28 <<
	.uleb128 .Ltmp112-.Ltmp111              #   Call between .Ltmp111 and .Ltmp112
	.uleb128 .Ltmp113-.Lfunc_begin4         #     jumps to .Ltmp113
	.byte	7                               #   On action: 4
	.uleb128 .Ltmp114-.Lfunc_begin4         # >> Call Site 29 <<
	.uleb128 .Ltmp115-.Ltmp114              #   Call between .Ltmp114 and .Ltmp115
	.uleb128 .Ltmp116-.Lfunc_begin4         #     jumps to .Ltmp116
	.byte	7                               #   On action: 4
	.uleb128 .Ltmp80-.Lfunc_begin4          # >> Call Site 30 <<
	.uleb128 .Ltmp81-.Ltmp80                #   Call between .Ltmp80 and .Ltmp81
	.uleb128 .Ltmp82-.Lfunc_begin4          #     jumps to .Ltmp82
	.byte	7                               #   On action: 4
	.uleb128 .Ltmp59-.Lfunc_begin4          # >> Call Site 31 <<
	.uleb128 .Ltmp60-.Ltmp59                #   Call between .Ltmp59 and .Ltmp60
	.uleb128 .Ltmp61-.Lfunc_begin4          #     jumps to .Ltmp61
	.byte	7                               #   On action: 4
	.uleb128 .Ltmp62-.Lfunc_begin4          # >> Call Site 32 <<
	.uleb128 .Ltmp63-.Ltmp62                #   Call between .Ltmp62 and .Ltmp63
	.uleb128 .Ltmp64-.Lfunc_begin4          #     jumps to .Ltmp64
	.byte	7                               #   On action: 4
	.uleb128 .Ltmp35-.Lfunc_begin4          # >> Call Site 33 <<
	.uleb128 .Ltmp36-.Ltmp35                #   Call between .Ltmp35 and .Ltmp36
	.uleb128 .Ltmp37-.Lfunc_begin4          #     jumps to .Ltmp37
	.byte	7                               #   On action: 4
	.uleb128 .Ltmp117-.Lfunc_begin4         # >> Call Site 34 <<
	.uleb128 .Ltmp118-.Ltmp117              #   Call between .Ltmp117 and .Ltmp118
	.uleb128 .Ltmp119-.Lfunc_begin4         #     jumps to .Ltmp119
	.byte	7                               #   On action: 4
	.uleb128 .Ltmp135-.Lfunc_begin4         # >> Call Site 35 <<
	.uleb128 .Ltmp136-.Ltmp135              #   Call between .Ltmp135 and .Ltmp136
	.uleb128 .Ltmp137-.Lfunc_begin4         #     jumps to .Ltmp137
	.byte	7                               #   On action: 4
	.uleb128 .Ltmp65-.Lfunc_begin4          # >> Call Site 36 <<
	.uleb128 .Ltmp66-.Ltmp65                #   Call between .Ltmp65 and .Ltmp66
	.uleb128 .Ltmp67-.Lfunc_begin4          #     jumps to .Ltmp67
	.byte	7                               #   On action: 4
	.uleb128 .Ltmp83-.Lfunc_begin4          # >> Call Site 37 <<
	.uleb128 .Ltmp84-.Ltmp83                #   Call between .Ltmp83 and .Ltmp84
	.uleb128 .Ltmp85-.Lfunc_begin4          #     jumps to .Ltmp85
	.byte	7                               #   On action: 4
	.uleb128 .Ltmp84-.Lfunc_begin4          # >> Call Site 38 <<
	.uleb128 .Ltmp146-.Ltmp84               #   Call between .Ltmp84 and .Ltmp146
	.byte	0                               #     has no landing pad
	.byte	0                               #   On action: cleanup
	.uleb128 .Ltmp146-.Lfunc_begin4         # >> Call Site 39 <<
	.uleb128 .Ltmp149-.Ltmp146              #   Call between .Ltmp146 and .Ltmp149
	.uleb128 .Ltmp150-.Lfunc_begin4         #     jumps to .Ltmp150
	.byte	0                               #   On action: cleanup
	.uleb128 .Ltmp154-.Lfunc_begin4         # >> Call Site 40 <<
	.uleb128 .Ltmp155-.Ltmp154              #   Call between .Ltmp154 and .Ltmp155
	.uleb128 .Ltmp156-.Lfunc_begin4         #     jumps to .Ltmp156
	.byte	0                               #   On action: cleanup
	.uleb128 .Ltmp155-.Lfunc_begin4         # >> Call Site 41 <<
	.uleb128 .Ltmp138-.Ltmp155              #   Call between .Ltmp155 and .Ltmp138
	.byte	0                               #     has no landing pad
	.byte	0                               #   On action: cleanup
	.uleb128 .Ltmp138-.Lfunc_begin4         # >> Call Site 42 <<
	.uleb128 .Ltmp139-.Ltmp138              #   Call between .Ltmp138 and .Ltmp139
	.uleb128 .Ltmp140-.Lfunc_begin4         #     jumps to .Ltmp140
	.byte	0                               #   On action: cleanup
	.uleb128 .Ltmp143-.Lfunc_begin4         # >> Call Site 43 <<
	.uleb128 .Ltmp144-.Ltmp143              #   Call between .Ltmp143 and .Ltmp144
	.uleb128 .Ltmp145-.Lfunc_begin4         #     jumps to .Ltmp145
	.byte	0                               #   On action: cleanup
	.uleb128 .Ltmp141-.Lfunc_begin4         # >> Call Site 44 <<
	.uleb128 .Ltmp152-.Ltmp141              #   Call between .Ltmp141 and .Ltmp152
	.uleb128 .Ltmp153-.Lfunc_begin4         #     jumps to .Ltmp153
	.byte	7                               #   On action: 4
	.uleb128 .Ltmp157-.Lfunc_begin4         # >> Call Site 45 <<
	.uleb128 .Ltmp158-.Ltmp157              #   Call between .Ltmp157 and .Ltmp158
	.uleb128 .Ltmp159-.Lfunc_begin4         #     jumps to .Ltmp159
	.byte	7                               #   On action: 4
	.uleb128 .Ltmp158-.Lfunc_begin4         # >> Call Site 46 <<
	.uleb128 .Lfunc_end8-.Ltmp158           #   Call between .Ltmp158 and .Lfunc_end8
	.byte	0                               #     has no landing pad
	.byte	0                               #   On action: cleanup
.Lcst_end4:
	.byte	0                               # >> Action Record 1 <<
                                        #   Cleanup
	.byte	0                               #   No further actions
	.byte	1                               # >> Action Record 2 <<
                                        #   Catch TypeInfo 1
	.byte	125                             #   Continue to action 1
	.byte	2                               # >> Action Record 3 <<
                                        #   Catch TypeInfo 2
	.byte	125                             #   Continue to action 2
	.byte	3                               # >> Action Record 4 <<
                                        #   Catch TypeInfo 3
	.byte	0                               #   No further actions
	.p2align	2, 0x0
                                        # >> Catch TypeInfos <<
	.long	0                               # TypeInfo 3
.Ltmp169:                               # TypeInfo 2
	.long	.L_ZTIN8pybind1117error_already_setE.DW.stub-.Ltmp169
.Ltmp170:                               # TypeInfo 1
	.long	.L_ZTISt9exception.DW.stub-.Ltmp170
.Lttbase3:
	.p2align	2, 0x0
                                        # -- End function
	.section	.text._ZN8pybind116detail13get_internalsEv,"axG",@progbits,_ZN8pybind116detail13get_internalsEv,comdat
	.hidden	_ZN8pybind116detail13get_internalsEv # -- Begin function _ZN8pybind116detail13get_internalsEv
	.weak	_ZN8pybind116detail13get_internalsEv
	.p2align	4, 0x90
	.type	_ZN8pybind116detail13get_internalsEv,@function
_ZN8pybind116detail13get_internalsEv:   # @_ZN8pybind116detail13get_internalsEv
.Lfunc_begin5:
	.cfi_startproc
	.cfi_personality 155, DW.ref.__gxx_personality_v0
	.cfi_lsda 27, .Lexception5
# %bb.0:
	pushq	%r15
	.cfi_def_cfa_offset 16
	pushq	%r14
	.cfi_def_cfa_offset 24
	pushq	%rbx
	.cfi_def_cfa_offset 32
	subq	$96, %rsp
	.cfi_def_cfa_offset 128
	.cfi_offset %rbx, -32
	.cfi_offset %r14, -24
	.cfi_offset %r15, -16
	movq	_ZZN8pybind116detail16get_internals_ppEvE12internals_pp(%rip), %rax
	testq	%rax, %rax
	je	.LBB9_2
# %bb.1:
	movq	(%rax), %r15
	testq	%r15, %r15
	jne	.LBB9_38
.LBB9_2:
	callq	PyGILState_Ensure@PLT
	movl	%eax, %ebx
	leaq	72(%rsp), %rsi
	leaq	80(%rsp), %rdx
.Ltmp171:
	leaq	64(%rsp), %rdi
	callq	PyErr_Fetch@PLT
.Ltmp172:
# %bb.3:                                # %_ZN8pybind1111error_scopeC2Ev.exit
.Ltmp174:
	leaq	16(%rsp), %rdi
	callq	_ZN8pybind116detail21get_python_state_dictEv
.Ltmp175:
# %bb.4:
.Ltmp177:
	leaq	8(%rsp), %rdi
	leaq	16(%rsp), %rsi
	callq	_ZN8pybind114dictC2EONS_6objectE
.Ltmp178:
# %bb.5:
.Ltmp183:
	leaq	16(%rsp), %rdi
	callq	_ZNKR8pybind116handle7dec_refEv
.Ltmp184:
# %bb.6:                                # %_ZN8pybind116objectD2Ev.exit
	movq	8(%rsp), %rdi
.Ltmp186:
	leaq	.L.str.58(%rip), %rsi
	callq	_ZN8pybind116detail18dict_getitemstringEP7_objectPKc
.Ltmp187:
# %bb.7:                                # %.noexc
	testq	%rax, %rax
	je	.LBB9_15
# %bb.8:                                # %.split.i.i
	movl	(%rax), %ecx
	incl	%ecx
	je	.LBB9_10
# %bb.9:
	movl	%ecx, (%rax)
.LBB9_10:
	movq	%rax, 16(%rsp)
.Ltmp188:
	movq	%rax, %rdi
	xorl	%esi, %esi
	callq	PyCapsule_GetPointer@PLT
.Ltmp189:
# %bb.11:                               # %.noexc58
	testq	%rax, %rax
	je	.LBB9_12
# %bb.22:                               # %_ZN8pybind116detail29get_internals_pp_from_capsuleENS_6handleE.exit
	movq	%rax, _ZZN8pybind116detail16get_internals_ppEvE12internals_pp(%rip)
	jmp	.LBB9_32
.LBB9_15:
.Ltmp201:
	callq	PyErr_Occurred@PLT
.Ltmp202:
# %bb.16:                               # %.noexc56
	testq	%rax, %rax
	jne	.LBB9_17
# %bb.31:
	movq	$0, 16(%rsp)
.LBB9_32:
.Ltmp209:
	leaq	16(%rsp), %rdi
	callq	_ZNKR8pybind116handle7dec_refEv
.Ltmp210:
# %bb.33:                               # %_ZN8pybind116objectD2Ev.exit65
	movq	_ZZN8pybind116detail16get_internals_ppEvE12internals_pp(%rip), %r14
	testq	%r14, %r14
	je	.LBB9_40
# %bb.34:
	movq	(%r14), %r15
	testq	%r15, %r15
	jne	.LBB9_35
	jmp	.LBB9_42
.LBB9_40:
.Ltmp212:
	movl	$8, %edi
	callq	_Znwm@PLT
.Ltmp213:
# %bb.41:
	movq	%rax, %r14
	movq	$0, (%rax)
	movq	%rax, _ZZN8pybind116detail16get_internals_ppEvE12internals_pp(%rip)
.LBB9_42:
.Ltmp215:
	movl	$488, %edi                      # imm = 0x1E8
	callq	_Znwm@PLT
.Ltmp216:
# %bb.43:
	movq	%rax, %r15
	movl	$488, %edx                      # imm = 0x1E8
	movq	%rax, %rdi
	xorl	%esi, %esi
	callq	memset@PLT
.Ltmp218:
	movq	%r15, %rdi
	callq	_ZN8pybind116detail9internalsC2Ev
.Ltmp219:
# %bb.44:
	movq	%r15, (%r14)
.Ltmp221:
	callq	PyThreadState_Get@PLT
.Ltmp222:
# %bb.45:
	movq	%rax, %r15
	movl	$432, %edi                      # imm = 0x1B0
	addq	(%r14), %rdi
.Ltmp223:
	callq	PyThread_tss_create@PLT
.Ltmp224:
# %bb.46:
	testl	%eax, %eax
	jne	.LBB9_47
# %bb.51:
	movl	$432, %edi                      # imm = 0x1B0
	addq	(%r14), %rdi
.Ltmp225:
	movq	%r15, %rsi
	callq	PyThread_tss_set@PLT
.Ltmp226:
# %bb.52:
	movl	$440, %edi                      # imm = 0x1B8
	addq	(%r14), %rdi
.Ltmp227:
	callq	PyThread_tss_create@PLT
.Ltmp228:
# %bb.53:
	testl	%eax, %eax
	jne	.LBB9_54
# %bb.57:
	movq	16(%r15), %rax
	movq	(%r14), %rcx
	movq	%rax, 448(%rcx)
	movq	_ZZN8pybind116detail16get_internals_ppEvE12internals_pp(%rip), %rsi
.Ltmp231:
	leaq	48(%rsp), %rdi
	xorl	%edx, %edx
	xorl	%ecx, %ecx
	callq	_ZN8pybind117capsuleC2EPKvPKcPFvP7_objectE
.Ltmp232:
# %bb.58:
	movq	8(%rsp), %r15
.Ltmp234:
	leaq	.L.str.58(%rip), %rsi
	leaq	56(%rsp), %rdi
	callq	_ZN8pybind113strC2EPKc
.Ltmp235:
# %bb.59:                               # %.noexc66
	movq	56(%rsp), %rax
	movq	$0, 56(%rsp)
	movq	%r15, 24(%rsp)
	movq	%rax, 32(%rsp)
	movq	$0, 88(%rsp)
	movq	$0, 40(%rsp)
.Ltmp237:
	leaq	88(%rsp), %rdi
	callq	_ZNKR8pybind116handle7dec_refEv
.Ltmp238:
# %bb.60:                               # %_ZN8pybind116objectD2Ev.exit.i
.Ltmp240:
	leaq	56(%rsp), %rdi
	callq	_ZNKR8pybind116handle7dec_refEv
.Ltmp241:
# %bb.61:
	movq	24(%rsp), %rdi
	movq	32(%rsp), %rsi
	movq	48(%rsp), %rdx
.Ltmp243:
	callq	PyObject_SetItem@PLT
.Ltmp244:
# %bb.62:                               # %.noexc69
	testl	%eax, %eax
	jne	.LBB9_63
# %bb.68:                               # %_ZNO8pybind116detail8accessorINS0_17accessor_policies12generic_itemEEaSINS_7capsuleEEEvOT_.exit
.Ltmp254:
	leaq	40(%rsp), %rdi
	callq	_ZNKR8pybind116handle7dec_refEv
.Ltmp255:
# %bb.69:                               # %_ZN8pybind116objectD2Ev.exit.i73
.Ltmp257:
	leaq	32(%rsp), %rdi
	callq	_ZNKR8pybind116handle7dec_refEv
.Ltmp258:
# %bb.70:                               # %_ZN8pybind116detail8accessorINS0_17accessor_policies12generic_itemEED2Ev.exit
.Ltmp260:
	leaq	48(%rsp), %rdi
	callq	_ZNKR8pybind116handle7dec_refEv
.Ltmp261:
# %bb.71:                               # %_ZN8pybind116objectD2Ev.exit74
	movq	(%r14), %r15
.Ltmp263:
	movl	$16, %edi
	callq	_Znwm@PLT
.Ltmp264:
# %bb.72:
	leaq	_ZN8pybind116detail19translate_exceptionENSt15__exception_ptr13exception_ptrE(%rip), %rcx
	movq	%rcx, 8(%rax)
	movq	336(%r15), %rcx
	movq	%rcx, (%rax)
	movq	%rax, 336(%r15)
.Ltmp266:
	callq	_ZN8pybind116detail25make_static_property_typeEv
.Ltmp267:
# %bb.73:
	movq	(%r14), %rcx
	movq	%rax, 408(%rcx)
.Ltmp268:
	callq	_ZN8pybind116detail22make_default_metaclassEv
.Ltmp269:
# %bb.74:
	movq	(%r14), %rcx
	movq	%rax, 416(%rcx)
	movq	(%r14), %rax
	movq	416(%rax), %rdi
.Ltmp270:
	callq	_ZN8pybind116detail21make_object_base_typeEP11_typeobject
.Ltmp271:
# %bb.75:
	movq	(%r14), %rcx
	movq	%rax, 424(%rcx)
	movq	_ZZN8pybind116detail16get_internals_ppEvE12internals_pp(%rip), %rax
	movq	(%rax), %r15
.LBB9_35:
.Ltmp279:
	leaq	8(%rsp), %rdi
	callq	_ZNKR8pybind116handle7dec_refEv
.Ltmp280:
# %bb.36:                               # %_ZN8pybind116objectD2Ev.exit77
	movq	64(%rsp), %rdi
	movq	72(%rsp), %rsi
	movq	80(%rsp), %rdx
.Ltmp282:
	callq	PyErr_Restore@PLT
.Ltmp283:
# %bb.37:                               # %_ZN8pybind1111error_scopeD2Ev.exit
.Ltmp285:
	movl	%ebx, %edi
	callq	PyGILState_Release@PLT
.Ltmp286:
.LBB9_38:                               # %_ZZN8pybind116detail13get_internalsEvEN24gil_scoped_acquire_localD2Ev.exit
	movq	%r15, %rax
	addq	$96, %rsp
	.cfi_def_cfa_offset 32
	popq	%rbx
	.cfi_def_cfa_offset 24
	popq	%r14
	.cfi_def_cfa_offset 16
	popq	%r15
	.cfi_def_cfa_offset 8
	retq
.LBB9_12:
	.cfi_def_cfa_offset 128
	movq	PyExc_SystemError@GOTPCREL(%rip), %rax
	movq	(%rax), %rdi
.Ltmp190:
	leaq	.L.str.62(%rip), %rsi
	callq	_ZN8pybind1110raise_fromEP7_objectPKc
.Ltmp191:
# %bb.13:                               # %.noexc59
	movl	$24, %edi
	callq	__cxa_allocate_exception@PLT
	movq	%rax, %r15
.Ltmp192:
	movq	%rax, %rdi
	callq	_ZN8pybind1117error_already_setC2Ev
.Ltmp193:
# %bb.14:
.Ltmp195:
	leaq	_ZTIN8pybind1117error_already_setE(%rip), %rsi
	leaq	_ZN8pybind1117error_already_setD2Ev(%rip), %rdx
	movq	%r15, %rdi
	callq	__cxa_throw@PLT
.Ltmp196:
# %bb.20:                               # %.noexc60
.LBB9_47:
	leaq	.L.str.56(%rip), %rdi
	jmp	.LBB9_55
.LBB9_54:
	leaq	.L.str.57(%rip), %rdi
.LBB9_55:                               # %.invoke
.Ltmp229:
	callq	_ZN8pybind1113pybind11_failEPKc
.Ltmp230:
# %bb.56:                               # %.cont
.LBB9_63:
	movl	$24, %edi
	callq	__cxa_allocate_exception@PLT
	movq	%rax, %r15
.Ltmp245:
	movq	%rax, %rdi
	callq	_ZN8pybind1117error_already_setC2Ev
.Ltmp246:
# %bb.64:
.Ltmp248:
	leaq	_ZTIN8pybind1117error_already_setE(%rip), %rsi
	leaq	_ZN8pybind1117error_already_setD2Ev(%rip), %rdx
	movq	%r15, %rdi
	callq	__cxa_throw@PLT
.Ltmp249:
# %bb.65:                               # %.noexc70
.LBB9_17:
	movl	$24, %edi
	callq	__cxa_allocate_exception@PLT
	movq	%rax, %r15
.Ltmp203:
	movq	%rax, %rdi
	callq	_ZN8pybind1117error_already_setC2Ev
.Ltmp204:
# %bb.18:
.Ltmp206:
	leaq	_ZTIN8pybind1117error_already_setE(%rip), %rsi
	leaq	_ZN8pybind1117error_already_setD2Ev(%rip), %rdx
	movq	%r15, %rdi
	callq	__cxa_throw@PLT
.Ltmp207:
# %bb.19:                               # %.noexc57
.LBB9_21:
.Ltmp194:
	movq	%rax, %r14
	movq	%r15, %rdi
	callq	__cxa_free_exception@PLT
	jmp	.LBB9_29
.LBB9_39:
.Ltmp205:
	movq	%rax, %r14
	movq	%r15, %rdi
	callq	__cxa_free_exception@PLT
	jmp	.LBB9_88
.LBB9_66:
.Ltmp247:
	movq	%rax, %r14
	movq	%r15, %rdi
	callq	__cxa_free_exception@PLT
	jmp	.LBB9_78
.LBB9_86:
.Ltmp214:
	jmp	.LBB9_87
.LBB9_82:
.Ltmp265:
	jmp	.LBB9_87
.LBB9_97:
.Ltmp262:
	movq	%rax, %rdi
	callq	__clang_call_terminate
.LBB9_96:
.Ltmp259:
	movq	%rax, %rdi
	callq	__clang_call_terminate
.LBB9_67:
.Ltmp256:
	movq	%rax, %rdi
	callq	__clang_call_terminate
.LBB9_95:
.Ltmp242:
	movq	%rax, %rdi
	callq	__clang_call_terminate
.LBB9_94:
.Ltmp239:
	movq	%rax, %rdi
	callq	__clang_call_terminate
.LBB9_76:
.Ltmp236:
	movq	%rax, %r14
	jmp	.LBB9_79
.LBB9_81:
.Ltmp233:
	jmp	.LBB9_87
.LBB9_49:
.Ltmp220:
	movq	%rax, %r14
	movl	$488, %esi                      # imm = 0x1E8
	movq	%r15, %rdi
	callq	_ZdlPvm@PLT
	jmp	.LBB9_88
.LBB9_48:
.Ltmp217:
	jmp	.LBB9_87
.LBB9_77:
.Ltmp250:
	movq	%rax, %r14
.LBB9_78:                               # %.body71
	leaq	16(%rsp), %rdi
	callq	_ZN8pybind116detail8accessorINS0_17accessor_policies12generic_itemEED2Ev
.LBB9_79:
.Ltmp251:
	leaq	48(%rsp), %rdi
	callq	_ZNKR8pybind116handle7dec_refEv
.Ltmp252:
	jmp	.LBB9_88
.LBB9_80:
.Ltmp253:
	movq	%rax, %rdi
	callq	__clang_call_terminate
.LBB9_85:
.Ltmp287:
	movq	%rax, %rdi
	callq	__clang_call_terminate
.LBB9_84:
.Ltmp284:
	movq	%rax, %rdi
	callq	__clang_call_terminate
.LBB9_83:
.Ltmp281:
	movq	%rax, %rdi
	callq	__clang_call_terminate
.LBB9_93:
.Ltmp211:
	movq	%rax, %rdi
	callq	__clang_call_terminate
.LBB9_92:
.Ltmp185:
	movq	%rax, %rdi
	callq	__clang_call_terminate
.LBB9_24:
.Ltmp179:
	movq	%rax, %r14
.Ltmp180:
	leaq	16(%rsp), %rdi
	callq	_ZNKR8pybind116handle7dec_refEv
.Ltmp181:
	jmp	.LBB9_89
.LBB9_25:
.Ltmp182:
	movq	%rax, %rdi
	callq	__clang_call_terminate
.LBB9_26:
.Ltmp176:
	movq	%rax, %r14
	jmp	.LBB9_89
.LBB9_23:
.Ltmp173:
	movq	%rax, %r14
	jmp	.LBB9_90
.LBB9_28:
.Ltmp197:
	movq	%rax, %r14
.LBB9_29:                               # %.body61
.Ltmp198:
	leaq	16(%rsp), %rdi
	callq	_ZNKR8pybind116handle7dec_refEv
.Ltmp199:
	jmp	.LBB9_88
.LBB9_30:
.Ltmp200:
	movq	%rax, %rdi
	callq	__clang_call_terminate
.LBB9_27:
.Ltmp208:
	jmp	.LBB9_87
.LBB9_50:
.Ltmp272:
.LBB9_87:
	movq	%rax, %r14
.LBB9_88:
.Ltmp273:
	leaq	8(%rsp), %rdi
	callq	_ZNKR8pybind116handle7dec_refEv
.Ltmp274:
.LBB9_89:                               # %_ZN8pybind116objectD2Ev.exit78
	leaq	64(%rsp), %rdi
	callq	_ZN8pybind1111error_scopeD2Ev
.LBB9_90:
.Ltmp276:
	movl	%ebx, %edi
	callq	PyGILState_Release@PLT
.Ltmp277:
# %bb.91:                               # %_ZZN8pybind116detail13get_internalsEvEN24gil_scoped_acquire_localD2Ev.exit79
	movq	%r14, %rdi
	callq	_Unwind_Resume@PLT
.LBB9_99:
.Ltmp278:
	movq	%rax, %rdi
	callq	__clang_call_terminate
.LBB9_98:
.Ltmp275:
	movq	%rax, %rdi
	callq	__clang_call_terminate
.Lfunc_end9:
	.size	_ZN8pybind116detail13get_internalsEv, .Lfunc_end9-_ZN8pybind116detail13get_internalsEv
	.cfi_endproc
	.section	.gcc_except_table._ZN8pybind116detail13get_internalsEv,"aG",@progbits,_ZN8pybind116detail13get_internalsEv,comdat
	.p2align	2, 0x0
GCC_except_table9:
.Lexception5:
	.byte	255                             # @LPStart Encoding = omit
	.byte	155                             # @TType Encoding = indirect pcrel sdata4
	.uleb128 .Lttbase4-.Lttbaseref4
.Lttbaseref4:
	.byte	1                               # Call site Encoding = uleb128
	.uleb128 .Lcst_end5-.Lcst_begin5
.Lcst_begin5:
	.uleb128 .Lfunc_begin5-.Lfunc_begin5    # >> Call Site 1 <<
	.uleb128 .Ltmp171-.Lfunc_begin5         #   Call between .Lfunc_begin5 and .Ltmp171
	.byte	0                               #     has no landing pad
	.byte	0                               #   On action: cleanup
	.uleb128 .Ltmp171-.Lfunc_begin5         # >> Call Site 2 <<
	.uleb128 .Ltmp172-.Ltmp171              #   Call between .Ltmp171 and .Ltmp172
	.uleb128 .Ltmp173-.Lfunc_begin5         #     jumps to .Ltmp173
	.byte	0                               #   On action: cleanup
	.uleb128 .Ltmp174-.Lfunc_begin5         # >> Call Site 3 <<
	.uleb128 .Ltmp175-.Ltmp174              #   Call between .Ltmp174 and .Ltmp175
	.uleb128 .Ltmp176-.Lfunc_begin5         #     jumps to .Ltmp176
	.byte	0                               #   On action: cleanup
	.uleb128 .Ltmp177-.Lfunc_begin5         # >> Call Site 4 <<
	.uleb128 .Ltmp178-.Ltmp177              #   Call between .Ltmp177 and .Ltmp178
	.uleb128 .Ltmp179-.Lfunc_begin5         #     jumps to .Ltmp179
	.byte	0                               #   On action: cleanup
	.uleb128 .Ltmp183-.Lfunc_begin5         # >> Call Site 5 <<
	.uleb128 .Ltmp184-.Ltmp183              #   Call between .Ltmp183 and .Ltmp184
	.uleb128 .Ltmp185-.Lfunc_begin5         #     jumps to .Ltmp185
	.byte	1                               #   On action: 1
	.uleb128 .Ltmp186-.Lfunc_begin5         # >> Call Site 6 <<
	.uleb128 .Ltmp187-.Ltmp186              #   Call between .Ltmp186 and .Ltmp187
	.uleb128 .Ltmp208-.Lfunc_begin5         #     jumps to .Ltmp208
	.byte	0                               #   On action: cleanup
	.uleb128 .Ltmp188-.Lfunc_begin5         # >> Call Site 7 <<
	.uleb128 .Ltmp189-.Ltmp188              #   Call between .Ltmp188 and .Ltmp189
	.uleb128 .Ltmp197-.Lfunc_begin5         #     jumps to .Ltmp197
	.byte	0                               #   On action: cleanup
	.uleb128 .Ltmp201-.Lfunc_begin5         # >> Call Site 8 <<
	.uleb128 .Ltmp202-.Ltmp201              #   Call between .Ltmp201 and .Ltmp202
	.uleb128 .Ltmp208-.Lfunc_begin5         #     jumps to .Ltmp208
	.byte	0                               #   On action: cleanup
	.uleb128 .Ltmp209-.Lfunc_begin5         # >> Call Site 9 <<
	.uleb128 .Ltmp210-.Ltmp209              #   Call between .Ltmp209 and .Ltmp210
	.uleb128 .Ltmp211-.Lfunc_begin5         #     jumps to .Ltmp211
	.byte	1                               #   On action: 1
	.uleb128 .Ltmp212-.Lfunc_begin5         # >> Call Site 10 <<
	.uleb128 .Ltmp213-.Ltmp212              #   Call between .Ltmp212 and .Ltmp213
	.uleb128 .Ltmp214-.Lfunc_begin5         #     jumps to .Ltmp214
	.byte	0                               #   On action: cleanup
	.uleb128 .Ltmp215-.Lfunc_begin5         # >> Call Site 11 <<
	.uleb128 .Ltmp216-.Ltmp215              #   Call between .Ltmp215 and .Ltmp216
	.uleb128 .Ltmp217-.Lfunc_begin5         #     jumps to .Ltmp217
	.byte	0                               #   On action: cleanup
	.uleb128 .Ltmp216-.Lfunc_begin5         # >> Call Site 12 <<
	.uleb128 .Ltmp218-.Ltmp216              #   Call between .Ltmp216 and .Ltmp218
	.byte	0                               #     has no landing pad
	.byte	0                               #   On action: cleanup
	.uleb128 .Ltmp218-.Lfunc_begin5         # >> Call Site 13 <<
	.uleb128 .Ltmp219-.Ltmp218              #   Call between .Ltmp218 and .Ltmp219
	.uleb128 .Ltmp220-.Lfunc_begin5         #     jumps to .Ltmp220
	.byte	0                               #   On action: cleanup
	.uleb128 .Ltmp221-.Lfunc_begin5         # >> Call Site 14 <<
	.uleb128 .Ltmp228-.Ltmp221              #   Call between .Ltmp221 and .Ltmp228
	.uleb128 .Ltmp272-.Lfunc_begin5         #     jumps to .Ltmp272
	.byte	0                               #   On action: cleanup
	.uleb128 .Ltmp231-.Lfunc_begin5         # >> Call Site 15 <<
	.uleb128 .Ltmp232-.Ltmp231              #   Call between .Ltmp231 and .Ltmp232
	.uleb128 .Ltmp233-.Lfunc_begin5         #     jumps to .Ltmp233
	.byte	0                               #   On action: cleanup
	.uleb128 .Ltmp234-.Lfunc_begin5         # >> Call Site 16 <<
	.uleb128 .Ltmp235-.Ltmp234              #   Call between .Ltmp234 and .Ltmp235
	.uleb128 .Ltmp236-.Lfunc_begin5         #     jumps to .Ltmp236
	.byte	0                               #   On action: cleanup
	.uleb128 .Ltmp237-.Lfunc_begin5         # >> Call Site 17 <<
	.uleb128 .Ltmp238-.Ltmp237              #   Call between .Ltmp237 and .Ltmp238
	.uleb128 .Ltmp239-.Lfunc_begin5         #     jumps to .Ltmp239
	.byte	1                               #   On action: 1
	.uleb128 .Ltmp240-.Lfunc_begin5         # >> Call Site 18 <<
	.uleb128 .Ltmp241-.Ltmp240              #   Call between .Ltmp240 and .Ltmp241
	.uleb128 .Ltmp242-.Lfunc_begin5         #     jumps to .Ltmp242
	.byte	1                               #   On action: 1
	.uleb128 .Ltmp243-.Lfunc_begin5         # >> Call Site 19 <<
	.uleb128 .Ltmp244-.Ltmp243              #   Call between .Ltmp243 and .Ltmp244
	.uleb128 .Ltmp250-.Lfunc_begin5         #     jumps to .Ltmp250
	.byte	0                               #   On action: cleanup
	.uleb128 .Ltmp254-.Lfunc_begin5         # >> Call Site 20 <<
	.uleb128 .Ltmp255-.Ltmp254              #   Call between .Ltmp254 and .Ltmp255
	.uleb128 .Ltmp256-.Lfunc_begin5         #     jumps to .Ltmp256
	.byte	1                               #   On action: 1
	.uleb128 .Ltmp257-.Lfunc_begin5         # >> Call Site 21 <<
	.uleb128 .Ltmp258-.Ltmp257              #   Call between .Ltmp257 and .Ltmp258
	.uleb128 .Ltmp259-.Lfunc_begin5         #     jumps to .Ltmp259
	.byte	1                               #   On action: 1
	.uleb128 .Ltmp260-.Lfunc_begin5         # >> Call Site 22 <<
	.uleb128 .Ltmp261-.Ltmp260              #   Call between .Ltmp260 and .Ltmp261
	.uleb128 .Ltmp262-.Lfunc_begin5         #     jumps to .Ltmp262
	.byte	1                               #   On action: 1
	.uleb128 .Ltmp263-.Lfunc_begin5         # >> Call Site 23 <<
	.uleb128 .Ltmp264-.Ltmp263              #   Call between .Ltmp263 and .Ltmp264
	.uleb128 .Ltmp265-.Lfunc_begin5         #     jumps to .Ltmp265
	.byte	0                               #   On action: cleanup
	.uleb128 .Ltmp266-.Lfunc_begin5         # >> Call Site 24 <<
	.uleb128 .Ltmp271-.Ltmp266              #   Call between .Ltmp266 and .Ltmp271
	.uleb128 .Ltmp272-.Lfunc_begin5         #     jumps to .Ltmp272
	.byte	0                               #   On action: cleanup
	.uleb128 .Ltmp279-.Lfunc_begin5         # >> Call Site 25 <<
	.uleb128 .Ltmp280-.Ltmp279              #   Call between .Ltmp279 and .Ltmp280
	.uleb128 .Ltmp281-.Lfunc_begin5         #     jumps to .Ltmp281
	.byte	1                               #   On action: 1
	.uleb128 .Ltmp282-.Lfunc_begin5         # >> Call Site 26 <<
	.uleb128 .Ltmp283-.Ltmp282              #   Call between .Ltmp282 and .Ltmp283
	.uleb128 .Ltmp284-.Lfunc_begin5         #     jumps to .Ltmp284
	.byte	1                               #   On action: 1
	.uleb128 .Ltmp285-.Lfunc_begin5         # >> Call Site 27 <<
	.uleb128 .Ltmp286-.Ltmp285              #   Call between .Ltmp285 and .Ltmp286
	.uleb128 .Ltmp287-.Lfunc_begin5         #     jumps to .Ltmp287
	.byte	1                               #   On action: 1
	.uleb128 .Ltmp190-.Lfunc_begin5         # >> Call Site 28 <<
	.uleb128 .Ltmp191-.Ltmp190              #   Call between .Ltmp190 and .Ltmp191
	.uleb128 .Ltmp197-.Lfunc_begin5         #     jumps to .Ltmp197
	.byte	0                               #   On action: cleanup
	.uleb128 .Ltmp191-.Lfunc_begin5         # >> Call Site 29 <<
	.uleb128 .Ltmp192-.Ltmp191              #   Call between .Ltmp191 and .Ltmp192
	.byte	0                               #     has no landing pad
	.byte	0                               #   On action: cleanup
	.uleb128 .Ltmp192-.Lfunc_begin5         # >> Call Site 30 <<
	.uleb128 .Ltmp193-.Ltmp192              #   Call between .Ltmp192 and .Ltmp193
	.uleb128 .Ltmp194-.Lfunc_begin5         #     jumps to .Ltmp194
	.byte	0                               #   On action: cleanup
	.uleb128 .Ltmp195-.Lfunc_begin5         # >> Call Site 31 <<
	.uleb128 .Ltmp196-.Ltmp195              #   Call between .Ltmp195 and .Ltmp196
	.uleb128 .Ltmp197-.Lfunc_begin5         #     jumps to .Ltmp197
	.byte	0                               #   On action: cleanup
	.uleb128 .Ltmp229-.Lfunc_begin5         # >> Call Site 32 <<
	.uleb128 .Ltmp230-.Ltmp229              #   Call between .Ltmp229 and .Ltmp230
	.uleb128 .Ltmp272-.Lfunc_begin5         #     jumps to .Ltmp272
	.byte	0                               #   On action: cleanup
	.uleb128 .Ltmp230-.Lfunc_begin5         # >> Call Site 33 <<
	.uleb128 .Ltmp245-.Ltmp230              #   Call between .Ltmp230 and .Ltmp245
	.byte	0                               #     has no landing pad
	.byte	0                               #   On action: cleanup
	.uleb128 .Ltmp245-.Lfunc_begin5         # >> Call Site 34 <<
	.uleb128 .Ltmp246-.Ltmp245              #   Call between .Ltmp245 and .Ltmp246
	.uleb128 .Ltmp247-.Lfunc_begin5         #     jumps to .Ltmp247
	.byte	0                               #   On action: cleanup
	.uleb128 .Ltmp248-.Lfunc_begin5         # >> Call Site 35 <<
	.uleb128 .Ltmp249-.Ltmp248              #   Call between .Ltmp248 and .Ltmp249
	.uleb128 .Ltmp250-.Lfunc_begin5         #     jumps to .Ltmp250
	.byte	0                               #   On action: cleanup
	.uleb128 .Ltmp249-.Lfunc_begin5         # >> Call Site 36 <<
	.uleb128 .Ltmp203-.Ltmp249              #   Call between .Ltmp249 and .Ltmp203
	.byte	0                               #     has no landing pad
	.byte	0                               #   On action: cleanup
	.uleb128 .Ltmp203-.Lfunc_begin5         # >> Call Site 37 <<
	.uleb128 .Ltmp204-.Ltmp203              #   Call between .Ltmp203 and .Ltmp204
	.uleb128 .Ltmp205-.Lfunc_begin5         #     jumps to .Ltmp205
	.byte	0                               #   On action: cleanup
	.uleb128 .Ltmp206-.Lfunc_begin5         # >> Call Site 38 <<
	.uleb128 .Ltmp207-.Ltmp206              #   Call between .Ltmp206 and .Ltmp207
	.uleb128 .Ltmp208-.Lfunc_begin5         #     jumps to .Ltmp208
	.byte	0                               #   On action: cleanup
	.uleb128 .Ltmp207-.Lfunc_begin5         # >> Call Site 39 <<
	.uleb128 .Ltmp251-.Ltmp207              #   Call between .Ltmp207 and .Ltmp251
	.byte	0                               #     has no landing pad
	.byte	0                               #   On action: cleanup
	.uleb128 .Ltmp251-.Lfunc_begin5         # >> Call Site 40 <<
	.uleb128 .Ltmp252-.Ltmp251              #   Call between .Ltmp251 and .Ltmp252
	.uleb128 .Ltmp253-.Lfunc_begin5         #     jumps to .Ltmp253
	.byte	1                               #   On action: 1
	.uleb128 .Ltmp180-.Lfunc_begin5         # >> Call Site 41 <<
	.uleb128 .Ltmp181-.Ltmp180              #   Call between .Ltmp180 and .Ltmp181
	.uleb128 .Ltmp182-.Lfunc_begin5         #     jumps to .Ltmp182
	.byte	1                               #   On action: 1
	.uleb128 .Ltmp198-.Lfunc_begin5         # >> Call Site 42 <<
	.uleb128 .Ltmp199-.Ltmp198              #   Call between .Ltmp198 and .Ltmp199
	.uleb128 .Ltmp200-.Lfunc_begin5         #     jumps to .Ltmp200
	.byte	1                               #   On action: 1
	.uleb128 .Ltmp273-.Lfunc_begin5         # >> Call Site 43 <<
	.uleb128 .Ltmp274-.Ltmp273              #   Call between .Ltmp273 and .Ltmp274
	.uleb128 .Ltmp275-.Lfunc_begin5         #     jumps to .Ltmp275
	.byte	1                               #   On action: 1
	.uleb128 .Ltmp276-.Lfunc_begin5         # >> Call Site 44 <<
	.uleb128 .Ltmp277-.Ltmp276              #   Call between .Ltmp276 and .Ltmp277
	.uleb128 .Ltmp278-.Lfunc_begin5         #     jumps to .Ltmp278
	.byte	1                               #   On action: 1
	.uleb128 .Ltmp277-.Lfunc_begin5         # >> Call Site 45 <<
	.uleb128 .Lfunc_end9-.Ltmp277           #   Call between .Ltmp277 and .Lfunc_end9
	.byte	0                               #     has no landing pad
	.byte	0                               #   On action: cleanup
.Lcst_end5:
	.byte	1                               # >> Action Record 1 <<
                                        #   Catch TypeInfo 1
	.byte	0                               #   No further actions
	.p2align	2, 0x0
                                        # >> Catch TypeInfos <<
	.long	0                               # TypeInfo 1
.Lttbase4:
	.p2align	2, 0x0
                                        # -- End function
	.section	.text._ZN8pybind117module_23create_extension_moduleEPKcS2_P11PyModuleDefNS_16mod_gil_not_usedE,"axG",@progbits,_ZN8pybind117module_23create_extension_moduleEPKcS2_P11PyModuleDefNS_16mod_gil_not_usedE,comdat
	.hidden	_ZN8pybind117module_23create_extension_moduleEPKcS2_P11PyModuleDefNS_16mod_gil_not_usedE # -- Begin function _ZN8pybind117module_23create_extension_moduleEPKcS2_P11PyModuleDefNS_16mod_gil_not_usedE
	.weak	_ZN8pybind117module_23create_extension_moduleEPKcS2_P11PyModuleDefNS_16mod_gil_not_usedE
	.p2align	4, 0x90
	.type	_ZN8pybind117module_23create_extension_moduleEPKcS2_P11PyModuleDefNS_16mod_gil_not_usedE,@function
_ZN8pybind117module_23create_extension_moduleEPKcS2_P11PyModuleDefNS_16mod_gil_not_usedE: # @_ZN8pybind117module_23create_extension_moduleEPKcS2_P11PyModuleDefNS_16mod_gil_not_usedE
.Lfunc_begin6:
	.cfi_startproc
	.cfi_personality 155, DW.ref.__gxx_personality_v0
	.cfi_lsda 27, .Lexception6
# %bb.0:
	pushq	%r14
	.cfi_def_cfa_offset 16
	pushq	%rbx
	.cfi_def_cfa_offset 24
	pushq	%rax
	.cfi_def_cfa_offset 32
	.cfi_offset %rbx, -24
	.cfi_offset %r14, -16
	xorps	%xmm0, %xmm0
	movups	%xmm0, 24(%rcx)
	movups	%xmm0, 8(%rcx)
	movq	$1, (%rcx)
	movq	%rsi, 40(%rcx)
	xorl	%eax, %eax
	cmpb	$0, _ZZN8pybind117options12global_stateEvE8instance(%rip)
	movq	%rdi, %rbx
	cmovneq	%rdx, %rax
	movq	%rax, 48(%rcx)
	movq	$-1, 56(%rcx)
	movups	%xmm0, 64(%rcx)
	movups	%xmm0, 80(%rcx)
	movq	$0, 96(%rcx)
	movq	%rcx, %rdi
	movl	$1013, %esi                     # imm = 0x3F5
	callq	PyModule_Create2@PLT
	testq	%rax, %rax
	je	.LBB10_1
# %bb.6:
	movq	%rax, (%rbx)
	movq	%rbx, %rdi
	callq	_ZNKR8pybind116handle7inc_refEv
	movq	%rbx, %rax
	addq	$8, %rsp
	.cfi_def_cfa_offset 24
	popq	%rbx
	.cfi_def_cfa_offset 16
	popq	%r14
	.cfi_def_cfa_offset 8
	retq
.LBB10_1:
	.cfi_def_cfa_offset 32
	callq	PyErr_Occurred@PLT
	testq	%rax, %rax
	jne	.LBB10_2
# %bb.5:
	leaq	.L.str.173(%rip), %rdi
	callq	_ZN8pybind1113pybind11_failEPKc
.LBB10_2:
	movl	$24, %edi
	callq	__cxa_allocate_exception@PLT
	movq	%rax, %rbx
.Ltmp288:
	movq	%rax, %rdi
	callq	_ZN8pybind1117error_already_setC2Ev
.Ltmp289:
# %bb.3:
	leaq	_ZTIN8pybind1117error_already_setE(%rip), %rsi
	leaq	_ZN8pybind1117error_already_setD2Ev(%rip), %rdx
	movq	%rbx, %rdi
	callq	__cxa_throw@PLT
.LBB10_4:
.Ltmp290:
	movq	%rax, %r14
	movq	%rbx, %rdi
	callq	__cxa_free_exception@PLT
	movq	%r14, %rdi
	callq	_Unwind_Resume@PLT
.Lfunc_end10:
	.size	_ZN8pybind117module_23create_extension_moduleEPKcS2_P11PyModuleDefNS_16mod_gil_not_usedE, .Lfunc_end10-_ZN8pybind117module_23create_extension_moduleEPKcS2_P11PyModuleDefNS_16mod_gil_not_usedE
	.cfi_endproc
	.section	.gcc_except_table._ZN8pybind117module_23create_extension_moduleEPKcS2_P11PyModuleDefNS_16mod_gil_not_usedE,"aG",@progbits,_ZN8pybind117module_23create_extension_moduleEPKcS2_P11PyModuleDefNS_16mod_gil_not_usedE,comdat
	.p2align	2, 0x0
GCC_except_table10:
.Lexception6:
	.byte	255                             # @LPStart Encoding = omit
	.byte	255                             # @TType Encoding = omit
	.byte	1                               # Call site Encoding = uleb128
	.uleb128 .Lcst_end6-.Lcst_begin6
.Lcst_begin6:
	.uleb128 .Lfunc_begin6-.Lfunc_begin6    # >> Call Site 1 <<
	.uleb128 .Ltmp288-.Lfunc_begin6         #   Call between .Lfunc_begin6 and .Ltmp288
	.byte	0                               #     has no landing pad
	.byte	0                               #   On action: cleanup
	.uleb128 .Ltmp288-.Lfunc_begin6         # >> Call Site 2 <<
	.uleb128 .Ltmp289-.Ltmp288              #   Call between .Ltmp288 and .Ltmp289
	.uleb128 .Ltmp290-.Lfunc_begin6         #     jumps to .Ltmp290
	.byte	0                               #   On action: cleanup
	.uleb128 .Ltmp289-.Lfunc_begin6         # >> Call Site 3 <<
	.uleb128 .Lfunc_end10-.Ltmp289          #   Call between .Ltmp289 and .Lfunc_end10
	.byte	0                               #     has no landing pad
	.byte	0                               #   On action: cleanup
.Lcst_end6:
	.p2align	2, 0x0
                                        # -- End function
	.section	.text._ZN8pybind1117error_already_setD2Ev,"axG",@progbits,_ZN8pybind1117error_already_setD2Ev,comdat
	.hidden	_ZN8pybind1117error_already_setD2Ev # -- Begin function _ZN8pybind1117error_already_setD2Ev
	.weak	_ZN8pybind1117error_already_setD2Ev
	.p2align	4, 0x90
	.type	_ZN8pybind1117error_already_setD2Ev,@function
_ZN8pybind1117error_already_setD2Ev:    # @_ZN8pybind1117error_already_setD2Ev
	.cfi_startproc
# %bb.0:
	pushq	%r14
	.cfi_def_cfa_offset 16
	pushq	%rbx
	.cfi_def_cfa_offset 24
	pushq	%rax
	.cfi_def_cfa_offset 32
	.cfi_offset %rbx, -24
	.cfi_offset %r14, -16
	leaq	_ZTVN8pybind1117error_already_setE+16(%rip), %rax
	movq	%rax, (%rdi)
	movq	16(%rdi), %rbx
	testq	%rbx, %rbx
	je	.LBB11_9
# %bb.1:
	movq	8(%rbx), %rax
	movabsq	$4294967297, %rcx               # imm = 0x100000001
	cmpq	%rcx, %rax
	jne	.LBB11_3
# %bb.2:
	movq	$0, 8(%rbx)
	movq	(%rbx), %rax
	movq	%rdi, %r14
	movq	%rbx, %rdi
	callq	*16(%rax)
	movq	(%rbx), %rax
	movq	%rbx, %rdi
	callq	*24(%rax)
.LBB11_8:                               # %_ZNSt12__shared_ptrIN8pybind116detail25error_fetch_and_normalizeELN9__gnu_cxx12_Lock_policyE2EED2Ev.exit
	movq	%r14, %rdi
	addq	$8, %rsp
	.cfi_def_cfa_offset 24
	popq	%rbx
	.cfi_def_cfa_offset 16
	popq	%r14
	.cfi_def_cfa_offset 8
	jmp	_ZNSt9exceptionD2Ev@PLT         # TAILCALL
.LBB11_3:
	.cfi_def_cfa_offset 32
	movq	__libc_single_threaded@GOTPCREL(%rip), %rcx
	cmpb	$0, (%rcx)
	je	.LBB11_5
# %bb.4:
	leal	-1(%rax), %ecx
	movl	%ecx, 8(%rbx)
	cmpl	$1, %eax
	je	.LBB11_7
.LBB11_9:                               # %_ZNSt12__shared_ptrIN8pybind116detail25error_fetch_and_normalizeELN9__gnu_cxx12_Lock_policyE2EED2Ev.exit
	addq	$8, %rsp
	.cfi_def_cfa_offset 24
	popq	%rbx
	.cfi_def_cfa_offset 16
	popq	%r14
	.cfi_def_cfa_offset 8
	jmp	_ZNSt9exceptionD2Ev@PLT         # TAILCALL
.LBB11_5:
	.cfi_def_cfa_offset 32
	movl	$-1, %eax
	lock		xaddl	%eax, 8(%rbx)
	cmpl	$1, %eax
	jne	.LBB11_9
.LBB11_7:
	movq	%rdi, %r14
	movq	%rbx, %rdi
	callq	_ZNSt16_Sp_counted_baseILN9__gnu_cxx12_Lock_policyE2EE24_M_release_last_use_coldEv@PLT
	jmp	.LBB11_8
.Lfunc_end11:
	.size	_ZN8pybind1117error_already_setD2Ev, .Lfunc_end11-_ZN8pybind1117error_already_setD2Ev
	.cfi_endproc
                                        # -- End function
	.section	.text._ZN8pybind1117error_already_setD0Ev,"axG",@progbits,_ZN8pybind1117error_already_setD0Ev,comdat
	.hidden	_ZN8pybind1117error_already_setD0Ev # -- Begin function _ZN8pybind1117error_already_setD0Ev
	.weak	_ZN8pybind1117error_already_setD0Ev
	.p2align	4, 0x90
	.type	_ZN8pybind1117error_already_setD0Ev,@function
_ZN8pybind1117error_already_setD0Ev:    # @_ZN8pybind1117error_already_setD0Ev
	.cfi_startproc
# %bb.0:
	pushq	%r14
	.cfi_def_cfa_offset 16
	pushq	%rbx
	.cfi_def_cfa_offset 24
	pushq	%rax
	.cfi_def_cfa_offset 32
	.cfi_offset %rbx, -24
	.cfi_offset %r14, -16
	movq	%rdi, %rbx
	leaq	_ZTVN8pybind1117error_already_setE+16(%rip), %rax
	movq	%rax, (%rdi)
	movq	16(%rdi), %r14
	testq	%r14, %r14
	je	.LBB12_8
# %bb.1:
	movq	8(%r14), %rax
	movabsq	$4294967297, %rcx               # imm = 0x100000001
	cmpq	%rcx, %rax
	jne	.LBB12_3
# %bb.2:
	movq	$0, 8(%r14)
	movq	(%r14), %rax
	movq	%r14, %rdi
	callq	*16(%rax)
	movq	(%r14), %rax
	movq	%r14, %rdi
	callq	*24(%rax)
	jmp	.LBB12_8
.LBB12_3:
	movq	__libc_single_threaded@GOTPCREL(%rip), %rcx
	cmpb	$0, (%rcx)
	je	.LBB12_5
# %bb.4:
	leal	-1(%rax), %ecx
	movl	%ecx, 8(%r14)
	cmpl	$1, %eax
	je	.LBB12_7
.LBB12_8:                               # %_ZN8pybind1117error_already_setD2Ev.exit
	movq	%rbx, %rdi
	callq	_ZNSt9exceptionD2Ev@PLT
	movl	$24, %esi
	movq	%rbx, %rdi
	addq	$8, %rsp
	.cfi_def_cfa_offset 24
	popq	%rbx
	.cfi_def_cfa_offset 16
	popq	%r14
	.cfi_def_cfa_offset 8
	jmp	_ZdlPvm@PLT                     # TAILCALL
.LBB12_5:
	.cfi_def_cfa_offset 32
	movl	$-1, %eax
	lock		xaddl	%eax, 8(%r14)
	cmpl	$1, %eax
	jne	.LBB12_8
.LBB12_7:
	movq	%r14, %rdi
	callq	_ZNSt16_Sp_counted_baseILN9__gnu_cxx12_Lock_policyE2EE24_M_release_last_use_coldEv@PLT
	jmp	.LBB12_8
.Lfunc_end12:
	.size	_ZN8pybind1117error_already_setD0Ev, .Lfunc_end12-_ZN8pybind1117error_already_setD0Ev
	.cfi_endproc
                                        # -- End function
	.section	.text._ZN8pybind1113pybind11_failEPKc,"axG",@progbits,_ZN8pybind1113pybind11_failEPKc,comdat
	.hidden	_ZN8pybind1113pybind11_failEPKc # -- Begin function _ZN8pybind1113pybind11_failEPKc
	.weak	_ZN8pybind1113pybind11_failEPKc
	.p2align	4, 0x90
	.type	_ZN8pybind1113pybind11_failEPKc,@function
_ZN8pybind1113pybind11_failEPKc:        # @_ZN8pybind1113pybind11_failEPKc
.Lfunc_begin7:
	.cfi_startproc
	.cfi_personality 155, DW.ref.__gxx_personality_v0
	.cfi_lsda 27, .Lexception7
# %bb.0:
	pushq	%r14
	.cfi_def_cfa_offset 16
	pushq	%rbx
	.cfi_def_cfa_offset 24
	pushq	%rax
	.cfi_def_cfa_offset 32
	.cfi_offset %rbx, -24
	.cfi_offset %r14, -16
	movq	%rdi, %r14
	callq	PyErr_Occurred@PLT
	testq	%rax, %rax
	jne	.LBB13_4
# %bb.1:
	movl	$16, %edi
	callq	__cxa_allocate_exception@PLT
	movq	%rax, %rbx
.Ltmp291:
	movq	%rax, %rdi
	movq	%r14, %rsi
	callq	_ZNSt13runtime_errorC1EPKc@PLT
.Ltmp292:
# %bb.2:
	movq	_ZTISt13runtime_error@GOTPCREL(%rip), %rsi
	movq	_ZNSt13runtime_errorD1Ev@GOTPCREL(%rip), %rdx
	movq	%rbx, %rdi
	callq	__cxa_throw@PLT
.LBB13_4:
	leaq	.L.str.5(%rip), %rdi
	leaq	.L.str.6(%rip), %rsi
	leaq	.L__PRETTY_FUNCTION__._ZN8pybind1113pybind11_failEPKc(%rip), %rcx
	movl	$1046, %edx                     # imm = 0x416
	callq	__assert_fail@PLT
.LBB13_3:
.Ltmp293:
	movq	%rax, %r14
	movq	%rbx, %rdi
	callq	__cxa_free_exception@PLT
	movq	%r14, %rdi
	callq	_Unwind_Resume@PLT
.Lfunc_end13:
	.size	_ZN8pybind1113pybind11_failEPKc, .Lfunc_end13-_ZN8pybind1113pybind11_failEPKc
	.cfi_endproc
	.section	.gcc_except_table._ZN8pybind1113pybind11_failEPKc,"aG",@progbits,_ZN8pybind1113pybind11_failEPKc,comdat
	.p2align	2, 0x0
GCC_except_table13:
.Lexception7:
	.byte	255                             # @LPStart Encoding = omit
	.byte	255                             # @TType Encoding = omit
	.byte	1                               # Call site Encoding = uleb128
	.uleb128 .Lcst_end7-.Lcst_begin7
.Lcst_begin7:
	.uleb128 .Lfunc_begin7-.Lfunc_begin7    # >> Call Site 1 <<
	.uleb128 .Ltmp291-.Lfunc_begin7         #   Call between .Lfunc_begin7 and .Ltmp291
	.byte	0                               #     has no landing pad
	.byte	0                               #   On action: cleanup
	.uleb128 .Ltmp291-.Lfunc_begin7         # >> Call Site 2 <<
	.uleb128 .Ltmp292-.Ltmp291              #   Call between .Ltmp291 and .Ltmp292
	.uleb128 .Ltmp293-.Lfunc_begin7         #     jumps to .Ltmp293
	.byte	0                               #   On action: cleanup
	.uleb128 .Ltmp292-.Lfunc_begin7         # >> Call Site 3 <<
	.uleb128 .Lfunc_end13-.Ltmp292          #   Call between .Ltmp292 and .Lfunc_end13
	.byte	0                               #     has no landing pad
	.byte	0                               #   On action: cleanup
.Lcst_end7:
	.p2align	2, 0x0
                                        # -- End function
	.section	.text._ZStplIcSt11char_traitsIcESaIcEENSt7__cxx1112basic_stringIT_T0_T1_EEPKS5_OS8_,"axG",@progbits,_ZStplIcSt11char_traitsIcESaIcEENSt7__cxx1112basic_stringIT_T0_T1_EEPKS5_OS8_,comdat
	.weak	_ZStplIcSt11char_traitsIcESaIcEENSt7__cxx1112basic_stringIT_T0_T1_EEPKS5_OS8_ # -- Begin function _ZStplIcSt11char_traitsIcESaIcEENSt7__cxx1112basic_stringIT_T0_T1_EEPKS5_OS8_
	.p2align	4, 0x90
	.type	_ZStplIcSt11char_traitsIcESaIcEENSt7__cxx1112basic_stringIT_T0_T1_EEPKS5_OS8_,@function
_ZStplIcSt11char_traitsIcESaIcEENSt7__cxx1112basic_stringIT_T0_T1_EEPKS5_OS8_: # @_ZStplIcSt11char_traitsIcESaIcEENSt7__cxx1112basic_stringIT_T0_T1_EEPKS5_OS8_
	.cfi_startproc
# %bb.0:
	pushq	%r15
	.cfi_def_cfa_offset 16
	pushq	%r14
	.cfi_def_cfa_offset 24
	pushq	%r12
	.cfi_def_cfa_offset 32
	pushq	%rbx
	.cfi_def_cfa_offset 40
	pushq	%rax
	.cfi_def_cfa_offset 48
	.cfi_offset %rbx, -40
	.cfi_offset %r12, -32
	.cfi_offset %r14, -24
	.cfi_offset %r15, -16
	movq	%rdx, %r14
	movq	%rsi, %r15
	movq	%rdi, %rbx
	movq	%rsi, %rdi
	callq	strlen@PLT
	movq	%r14, %rdi
	xorl	%esi, %esi
	xorl	%edx, %edx
	movq	%r15, %rcx
	movq	%rax, %r8
	callq	_ZNSt7__cxx1112basic_stringIcSt11char_traitsIcESaIcEE10_M_replaceEmmPKcm@PLT
	movq	%rax, %r14
	leaq	16(%rbx), %rdi
	movq	%rdi, (%rbx)
	movq	(%rax), %rax
	movq	%r14, %r15
	addq	$16, %r15
	cmpq	%r15, %rax
	je	.LBB14_1
# %bb.2:                                # %_ZNKSt7__cxx1112basic_stringIcSt11char_traitsIcESaIcEE11_M_is_localEv.exit.i
	movq	%rax, (%rbx)
	movq	16(%r14), %rax
	movq	%rax, 16(%rbx)
	movq	8(%r14), %r12
	jmp	.LBB14_3
.LBB14_1:
	movq	8(%r14), %r12
	leaq	1(%r12), %rdx
	movq	%r15, %rsi
	callq	memcpy@PLT
.LBB14_3:                               # %_ZNSt7__cxx1112basic_stringIcSt11char_traitsIcESaIcEEC2EOS4_.exit
	movq	%r12, 8(%rbx)
	movq	%r15, (%r14)
	movq	$0, 8(%r14)
	movb	$0, 16(%r14)
	movq	%rbx, %rax
	addq	$8, %rsp
	.cfi_def_cfa_offset 40
	popq	%rbx
	.cfi_def_cfa_offset 32
	popq	%r12
	.cfi_def_cfa_offset 24
	popq	%r14
	.cfi_def_cfa_offset 16
	popq	%r15
	.cfi_def_cfa_offset 8
	retq
.Lfunc_end14:
	.size	_ZStplIcSt11char_traitsIcESaIcEENSt7__cxx1112basic_stringIT_T0_T1_EEPKS5_OS8_, .Lfunc_end14-_ZStplIcSt11char_traitsIcESaIcEENSt7__cxx1112basic_stringIT_T0_T1_EEPKS5_OS8_
	.cfi_endproc
                                        # -- End function
	.section	.text._ZNK8pybind116detail25error_fetch_and_normalize22format_value_and_traceB5cxx11Ev,"axG",@progbits,_ZNK8pybind116detail25error_fetch_and_normalize22format_value_and_traceB5cxx11Ev,comdat
	.hidden	_ZNK8pybind116detail25error_fetch_and_normalize22format_value_and_traceB5cxx11Ev # -- Begin function _ZNK8pybind116detail25error_fetch_and_normalize22format_value_and_traceB5cxx11Ev
	.weak	_ZNK8pybind116detail25error_fetch_and_normalize22format_value_and_traceB5cxx11Ev
	.p2align	4, 0x90
	.type	_ZNK8pybind116detail25error_fetch_and_normalize22format_value_and_traceB5cxx11Ev,@function
_ZNK8pybind116detail25error_fetch_and_normalize22format_value_and_traceB5cxx11Ev: # @_ZNK8pybind116detail25error_fetch_and_normalize22format_value_and_traceB5cxx11Ev
.Lfunc_begin8:
	.cfi_startproc
	.cfi_personality 155, DW.ref.__gxx_personality_v0
	.cfi_lsda 27, .Lexception8
# %bb.0:
	pushq	%rbp
	.cfi_def_cfa_offset 16
	pushq	%r15
	.cfi_def_cfa_offset 24
	pushq	%r14
	.cfi_def_cfa_offset 32
	pushq	%r13
	.cfi_def_cfa_offset 40
	pushq	%r12
	.cfi_def_cfa_offset 48
	pushq	%rbx
	.cfi_def_cfa_offset 56
	subq	$280, %rsp                      # imm = 0x118
	.cfi_def_cfa_offset 336
	.cfi_offset %rbx, -56
	.cfi_offset %r12, -48
	.cfi_offset %r13, -40
	.cfi_offset %r14, -32
	.cfi_offset %r15, -24
	.cfi_offset %rbp, -16
	movq	%rdi, %rbx
	leaq	16(%rdi), %rax
	movq	%rax, 40(%rsp)                  # 8-byte Spill
	movq	%rax, (%rdi)
	movq	$0, 8(%rdi)
	movb	$0, 16(%rdi)
	leaq	168(%rsp), %rax
	movq	%rax, 152(%rsp)
	movq	$0, 160(%rsp)
	movb	$0, 168(%rsp)
	movq	%rsi, 240(%rsp)                 # 8-byte Spill
	movq	8(%rsi), %rdi
	testq	%rdi, %rdi
	movq	%rbx, (%rsp)                    # 8-byte Spill
	je	.LBB15_16
# %bb.1:
.Ltmp294:
	callq	PyObject_Str@PLT
.Ltmp295:
# %bb.2:
	movq	%rax, 272(%rsp)
	testq	%rax, %rax
	je	.LBB15_19
# %bb.3:
.Ltmp297:
	leaq	.L.str.13(%rip), %rsi
	leaq	.L.str.14(%rip), %rdx
	movq	%rax, %rdi
	callq	PyUnicode_AsEncodedString@PLT
.Ltmp298:
# %bb.4:
	movq	%rax, 48(%rsp)
	testq	%rax, %rax
	je	.LBB15_24
# %bb.5:
	movq	$0, 80(%rsp)
	movq	$0, 112(%rsp)
.Ltmp300:
	leaq	80(%rsp), %rsi
	leaq	112(%rsp), %rdx
	movq	%rax, %rdi
	callq	PyBytes_AsStringAndSize@PLT
.Ltmp301:
# %bb.6:
	cmpl	$-1, %eax
	je	.LBB15_29
# %bb.7:
	movq	80(%rsp), %r15
	movq	112(%rsp), %r14
	leaq	24(%rsp), %rbx
	movq	%rbx, 8(%rsp)
	testq	%r15, %r15
	setne	%al
	testq	%r14, %r14
	sete	%cl
	orb	%al, %cl
	je	.LBB15_577
# %bb.8:
	movq	%rbx, %r12
	cmpq	$16, %r14
	jb	.LBB15_13
# %bb.9:
	testq	%r14, %r14
	js	.LBB15_585
# %bb.10:
	movq	%r14, %rdi
	incq	%rdi
	js	.LBB15_530
# %bb.11:                               # %_ZNSt7__cxx1112basic_stringIcSt11char_traitsIcESaIcEE9_M_createERmm.exit.i.i
.Ltmp302:
	callq	_Znwm@PLT
.Ltmp303:
# %bb.12:                               # %.noexc153
	movq	%rax, %r12
	movq	%rax, 8(%rsp)
	movq	%r14, 24(%rsp)
.LBB15_13:                              # %._crit_edge.i.i
	testq	%r14, %r14
	je	.LBB15_47
# %bb.14:                               # %._crit_edge.i.i
	cmpq	$1, %r14
	jne	.LBB15_46
# %bb.15:
	movzbl	(%r15), %eax
	movb	%al, (%r12)
	jmp	.LBB15_47
.LBB15_16:
.Ltmp487:
	leaq	.L.str.24(%rip), %rcx
	movl	$21, %r8d
	movq	%rbx, %rdi
	xorl	%esi, %esi
	xorl	%edx, %edx
	callq	_ZNSt7__cxx1112basic_stringIcSt11char_traitsIcESaIcEE9_M_mutateEmmPKcm@PLT
.Ltmp488:
# %bb.17:                               # %_ZNSt7__cxx1112basic_stringIcSt11char_traitsIcESaIcEE10_M_replaceEmmPKcm.exit865
	movq	$21, 8(%rbx)
	movq	(%rbx), %rax
	movb	$0, 21(%rax)
	cmpq	$0, 8(%rbx)
	jne	.LBB15_18
.LBB15_382:                             # %_ZNKSt7__cxx1112basic_stringIcSt11char_traitsIcESaIcEE15_M_check_lengthEmmPKc.exit.i866
	movq	(%rsp), %rbx                    # 8-byte Reload
	movq	(%rbx), %rsi
	cmpq	40(%rsp), %rsi                  # 8-byte Folded Reload
	je	.LBB15_385
# %bb.383:                              # %_ZNKSt7__cxx1112basic_stringIcSt11char_traitsIcESaIcEE15_M_check_lengthEmmPKc.exit.i866
	cmpq	$15, 16(%rbx)
	jae	.LBB15_385
# %bb.384:
.Ltmp491:
	leaq	.L.str.25(%rip), %rcx
	movl	$15, %r8d
	movq	%rbx, %rdi
	xorl	%esi, %esi
	xorl	%edx, %edx
	callq	_ZNSt7__cxx1112basic_stringIcSt11char_traitsIcESaIcEE9_M_mutateEmmPKcm@PLT
.Ltmp492:
	jmp	.LBB15_387
.LBB15_19:
.Ltmp329:
	leaq	8(%rsp), %rdi
	callq	_ZN8pybind116detail12error_stringB5cxx11Ev
.Ltmp330:
# %bb.20:
	movq	152(%rsp), %rdi
	leaq	168(%rsp), %rax
	cmpq	%rax, %rdi
	je	.LBB15_34
# %bb.21:                               # %_ZNKSt7__cxx1112basic_stringIcSt11char_traitsIcESaIcEE11_M_is_localEv.exit.thread.i
	movq	8(%rsp), %rsi
	leaq	24(%rsp), %rax
	cmpq	%rax, %rsi
	je	.LBB15_37
# %bb.22:                               # %_ZNKSt7__cxx1112basic_stringIcSt11char_traitsIcESaIcEE11_M_is_localEv.exit23.thread25.i
	movq	168(%rsp), %rcx
	movq	%rsi, 152(%rsp)
	movups	16(%rsp), %xmm0
	movups	%xmm0, 160(%rsp)
	testq	%rdi, %rdi
	je	.LBB15_36
# %bb.23:
	movq	%rdi, 8(%rsp)
	movq	%rcx, 24(%rsp)
	jmp	.LBB15_66
.LBB15_385:
	leaq	.L.str.25(%rip), %rax
	cmpq	%rax, %rsi
	je	.LBB15_525
# %bb.386:                              # %_ZNSt7__cxx1112basic_stringIcSt11char_traitsIcESaIcEE7_S_moveEPcPKcm.exit.i872
	movabsq	$4487070949640979789, %rax      # imm = 0x3E4547415353454D
	movq	%rax, 7(%rsi)
	movabsq	$5557540158834558268, %rax      # imm = 0x4D205954504D453C
	movq	%rax, (%rsi)
	movq	(%rsp), %rbx                    # 8-byte Reload
.LBB15_387:                             # %_ZNSt7__cxx1112basic_stringIcSt11char_traitsIcESaIcEE10_M_replaceEmmPKcm.exit876
	movq	$15, 8(%rbx)
	movq	(%rbx), %rax
	movb	$0, 15(%rax)
	movq	240(%rsp), %rax                 # 8-byte Reload
	movq	16(%rax), %rax
	testq	%rax, %rax
	jne	.LBB15_388
	jmp	.LBB15_397
.LBB15_24:
.Ltmp317:
	leaq	8(%rsp), %rdi
	callq	_ZN8pybind116detail12error_stringB5cxx11Ev
.Ltmp318:
# %bb.25:
	movq	152(%rsp), %rdi
	leaq	168(%rsp), %rax
	cmpq	%rax, %rdi
	je	.LBB15_40
# %bb.26:                               # %_ZNKSt7__cxx1112basic_stringIcSt11char_traitsIcESaIcEE11_M_is_localEv.exit.thread.i124
	movq	8(%rsp), %rsi
	leaq	24(%rsp), %rax
	cmpq	%rax, %rsi
	je	.LBB15_43
# %bb.27:                               # %_ZNKSt7__cxx1112basic_stringIcSt11char_traitsIcESaIcEE11_M_is_localEv.exit23.thread25.i125
	movq	168(%rsp), %rcx
	movq	%rsi, 152(%rsp)
	movups	16(%rsp), %xmm0
	movups	%xmm0, 160(%rsp)
	testq	%rdi, %rdi
	je	.LBB15_42
# %bb.28:
	movq	%rdi, 8(%rsp)
	movq	%rcx, 24(%rsp)
	jmp	.LBB15_75
.LBB15_29:
.Ltmp311:
	leaq	8(%rsp), %rdi
	callq	_ZN8pybind116detail12error_stringB5cxx11Ev
.Ltmp312:
# %bb.30:
	movq	152(%rsp), %rdi
	leaq	168(%rsp), %rax
	cmpq	%rax, %rdi
	je	.LBB15_58
# %bb.31:                               # %_ZNKSt7__cxx1112basic_stringIcSt11char_traitsIcESaIcEE11_M_is_localEv.exit.thread.i137
	movq	8(%rsp), %rsi
	leaq	24(%rsp), %rax
	cmpq	%rax, %rsi
	je	.LBB15_61
# %bb.32:                               # %_ZNKSt7__cxx1112basic_stringIcSt11char_traitsIcESaIcEE11_M_is_localEv.exit23.thread25.i138
	movq	168(%rsp), %rcx
	movq	%rsi, 152(%rsp)
	movups	16(%rsp), %xmm0
	movups	%xmm0, 160(%rsp)
	testq	%rdi, %rdi
	je	.LBB15_60
# %bb.33:
	movq	%rdi, 8(%rsp)
	movq	%rcx, 24(%rsp)
	jmp	.LBB15_80
.LBB15_34:                              # %_ZNKSt7__cxx1112basic_stringIcSt11char_traitsIcESaIcEE11_M_is_localEv.exit.i
	movq	8(%rsp), %rsi
	leaq	24(%rsp), %rax
	cmpq	%rax, %rsi
	je	.LBB15_37
# %bb.35:                               # %.thread.i
	movq	%rsi, 152(%rsp)
	movups	16(%rsp), %xmm0
	movups	%xmm0, 160(%rsp)
.LBB15_36:
	movq	%rax, 8(%rsp)
	movq	%rax, %rdi
	jmp	.LBB15_66
.LBB15_37:
	movq	16(%rsp), %rdx
	testq	%rdx, %rdx
	je	.LBB15_65
# %bb.38:
	cmpq	$1, %rdx
	jne	.LBB15_64
# %bb.39:
	movzbl	(%rsi), %eax
	movb	%al, (%rdi)
	jmp	.LBB15_65
.LBB15_40:                              # %_ZNKSt7__cxx1112basic_stringIcSt11char_traitsIcESaIcEE11_M_is_localEv.exit.i129
	movq	8(%rsp), %rsi
	leaq	24(%rsp), %rax
	cmpq	%rax, %rsi
	je	.LBB15_43
# %bb.41:                               # %.thread.i130
	movq	%rsi, 152(%rsp)
	movups	16(%rsp), %xmm0
	movups	%xmm0, 160(%rsp)
.LBB15_42:
	movq	%rax, 8(%rsp)
	movq	%rax, %rdi
	jmp	.LBB15_75
.LBB15_43:
	movq	16(%rsp), %rdx
	testq	%rdx, %rdx
	je	.LBB15_74
# %bb.44:
	cmpq	$1, %rdx
	jne	.LBB15_73
# %bb.45:
	movzbl	(%rsi), %eax
	movb	%al, (%rdi)
	jmp	.LBB15_74
.LBB15_46:
	movq	%r12, %rdi
	movq	%r15, %rsi
	movq	%r14, %rdx
	callq	memcpy@PLT
.LBB15_47:
	movq	%r14, 16(%rsp)
	movb	$0, (%r12,%r14)
	movq	(%rsp), %rax                    # 8-byte Reload
	movq	(%rax), %rdi
	cmpq	40(%rsp), %rdi                  # 8-byte Folded Reload
	je	.LBB15_51
# %bb.48:                               # %_ZNKSt7__cxx1112basic_stringIcSt11char_traitsIcESaIcEE11_M_is_localEv.exit.thread.i154
	movq	8(%rsp), %rsi
	cmpq	%rbx, %rsi
	je	.LBB15_54
# %bb.49:                               # %_ZNKSt7__cxx1112basic_stringIcSt11char_traitsIcESaIcEE11_M_is_localEv.exit23.thread25.i155
	movq	(%rsp), %rcx                    # 8-byte Reload
	movq	16(%rcx), %rax
	movq	%rsi, (%rcx)
	movups	16(%rsp), %xmm0
	movups	%xmm0, 8(%rcx)
	testq	%rdi, %rdi
	je	.LBB15_53
# %bb.50:
	movq	%rdi, 8(%rsp)
	movq	%rax, 24(%rsp)
	jmp	.LBB15_71
.LBB15_51:                              # %_ZNKSt7__cxx1112basic_stringIcSt11char_traitsIcESaIcEE11_M_is_localEv.exit.i159
	movq	8(%rsp), %rsi
	cmpq	%rbx, %rsi
	je	.LBB15_54
# %bb.52:                               # %.thread.i160
	movq	(%rsp), %rax                    # 8-byte Reload
	movq	%rsi, (%rax)
	movups	16(%rsp), %xmm0
	movups	%xmm0, 8(%rax)
.LBB15_53:
	movq	%rbx, 8(%rsp)
	movq	%rbx, %rdi
	jmp	.LBB15_71
.LBB15_54:
	leaq	8(%rsp), %rax
	cmpq	(%rsp), %rax                    # 8-byte Folded Reload
	je	.LBB15_533
# %bb.55:
	movq	16(%rsp), %rdx
	testq	%rdx, %rdx
	je	.LBB15_70
# %bb.56:
	cmpq	$1, %rdx
	jne	.LBB15_69
# %bb.57:
	movzbl	(%rsi), %eax
	movb	%al, (%rdi)
	jmp	.LBB15_70
.LBB15_58:                              # %_ZNKSt7__cxx1112basic_stringIcSt11char_traitsIcESaIcEE11_M_is_localEv.exit.i142
	movq	8(%rsp), %rsi
	leaq	24(%rsp), %rax
	cmpq	%rax, %rsi
	je	.LBB15_61
# %bb.59:                               # %.thread.i143
	movq	%rsi, 152(%rsp)
	movups	16(%rsp), %xmm0
	movups	%xmm0, 160(%rsp)
.LBB15_60:
	movq	%rax, 8(%rsp)
	movq	%rax, %rdi
	jmp	.LBB15_80
.LBB15_61:
	movq	16(%rsp), %rdx
	testq	%rdx, %rdx
	je	.LBB15_79
# %bb.62:
	cmpq	$1, %rdx
	jne	.LBB15_78
# %bb.63:
	movzbl	(%rsi), %eax
	movb	%al, (%rdi)
	jmp	.LBB15_79
.LBB15_64:
	callq	memcpy@PLT
.LBB15_65:                              # %_ZNSt7__cxx1112basic_stringIcSt11char_traitsIcESaIcEE7_S_copyEPcPKcm.exit.i
	movq	16(%rsp), %rax
	movq	%rax, 160(%rsp)
	movq	152(%rsp), %rcx
	movb	$0, (%rcx,%rax)
	movq	8(%rsp), %rdi
.LBB15_66:                              # %_ZNSt7__cxx1112basic_stringIcSt11char_traitsIcESaIcEEaSEOS4_.exit
	movq	$0, 16(%rsp)
	movb	$0, (%rdi)
	movq	8(%rsp), %rdi
	leaq	24(%rsp), %rax
	cmpq	%rax, %rdi
	je	.LBB15_68
# %bb.67:                               # %_ZNKSt7__cxx1112basic_stringIcSt11char_traitsIcESaIcEE11_M_is_localEv.exit.i.i
	movq	24(%rsp), %rsi
	incq	%rsi
	callq	_ZdlPvm@PLT
.LBB15_68:                              # %_ZNSt7__cxx1112basic_stringIcSt11char_traitsIcESaIcEED2Ev.exit
	movq	(%rsp), %rdi                    # 8-byte Reload
	movq	8(%rdi), %rdx
.Ltmp332:
	leaq	.L.str.12(%rip), %rcx
	movl	$46, %r8d
	xorl	%esi, %esi
	callq	_ZNSt7__cxx1112basic_stringIcSt11char_traitsIcESaIcEE10_M_replaceEmmPKcm@PLT
.Ltmp333:
	jmp	.LBB15_84
.LBB15_69:
	callq	memcpy@PLT
.LBB15_70:                              # %_ZNSt7__cxx1112basic_stringIcSt11char_traitsIcESaIcEE7_S_copyEPcPKcm.exit.i157
	movq	16(%rsp), %rax
	movq	(%rsp), %rcx                    # 8-byte Reload
	movq	%rax, 8(%rcx)
	movq	(%rcx), %rcx
	movb	$0, (%rcx,%rax)
	movq	8(%rsp), %rdi
.LBB15_71:                              # %_ZNSt7__cxx1112basic_stringIcSt11char_traitsIcESaIcEEaSEOS4_.exit161
	movq	$0, 16(%rsp)
	movb	$0, (%rdi)
	movq	8(%rsp), %rdi
	cmpq	%rbx, %rdi
	je	.LBB15_83
# %bb.72:                               # %_ZNKSt7__cxx1112basic_stringIcSt11char_traitsIcESaIcEE11_M_is_localEv.exit.i.i162
	movq	24(%rsp), %rsi
	incq	%rsi
	callq	_ZdlPvm@PLT
	jmp	.LBB15_83
.LBB15_73:
	callq	memcpy@PLT
.LBB15_74:                              # %_ZNSt7__cxx1112basic_stringIcSt11char_traitsIcESaIcEE7_S_copyEPcPKcm.exit.i127
	movq	16(%rsp), %rax
	movq	%rax, 160(%rsp)
	movq	152(%rsp), %rcx
	movb	$0, (%rcx,%rax)
	movq	8(%rsp), %rdi
.LBB15_75:                              # %_ZNSt7__cxx1112basic_stringIcSt11char_traitsIcESaIcEEaSEOS4_.exit131
	movq	$0, 16(%rsp)
	movb	$0, (%rdi)
	movq	8(%rsp), %rdi
	leaq	24(%rsp), %rax
	cmpq	%rax, %rdi
	je	.LBB15_77
# %bb.76:                               # %_ZNKSt7__cxx1112basic_stringIcSt11char_traitsIcESaIcEE11_M_is_localEv.exit.i.i132
	movq	24(%rsp), %rsi
	incq	%rsi
	callq	_ZdlPvm@PLT
.LBB15_77:                              # %_ZNSt7__cxx1112basic_stringIcSt11char_traitsIcESaIcEED2Ev.exit134
	movq	(%rsp), %rdi                    # 8-byte Reload
	movq	8(%rdi), %rdx
.Ltmp320:
	leaq	.L.str.12(%rip), %rcx
	movl	$46, %r8d
	xorl	%esi, %esi
	callq	_ZNSt7__cxx1112basic_stringIcSt11char_traitsIcESaIcEE10_M_replaceEmmPKcm@PLT
.Ltmp321:
	jmp	.LBB15_83
.LBB15_78:
	callq	memcpy@PLT
.LBB15_79:                              # %_ZNSt7__cxx1112basic_stringIcSt11char_traitsIcESaIcEE7_S_copyEPcPKcm.exit.i140
	movq	16(%rsp), %rax
	movq	%rax, 160(%rsp)
	movq	152(%rsp), %rcx
	movb	$0, (%rcx,%rax)
	movq	8(%rsp), %rdi
.LBB15_80:                              # %_ZNSt7__cxx1112basic_stringIcSt11char_traitsIcESaIcEEaSEOS4_.exit144
	movq	$0, 16(%rsp)
	movb	$0, (%rdi)
	movq	8(%rsp), %rdi
	leaq	24(%rsp), %rax
	cmpq	%rax, %rdi
	je	.LBB15_82
# %bb.81:                               # %_ZNKSt7__cxx1112basic_stringIcSt11char_traitsIcESaIcEE11_M_is_localEv.exit.i.i145
	movq	24(%rsp), %rsi
	incq	%rsi
	callq	_ZdlPvm@PLT
.LBB15_82:                              # %_ZNSt7__cxx1112basic_stringIcSt11char_traitsIcESaIcEED2Ev.exit147
	movq	(%rsp), %rdi                    # 8-byte Reload
	movq	8(%rdi), %rdx
.Ltmp314:
	leaq	.L.str.12(%rip), %rcx
	movl	$46, %r8d
	xorl	%esi, %esi
	callq	_ZNSt7__cxx1112basic_stringIcSt11char_traitsIcESaIcEE10_M_replaceEmmPKcm@PLT
.Ltmp315:
.LBB15_83:                              # %_ZNSt7__cxx1112basic_stringIcSt11char_traitsIcESaIcEEaSEPKc.exit136
.Ltmp326:
	leaq	48(%rsp), %rdi
	callq	_ZNKR8pybind116handle7dec_refEv
.Ltmp327:
.LBB15_84:                              # %_ZNSt7__cxx1112basic_stringIcSt11char_traitsIcESaIcEEaSEPKc.exit
	movq	240(%rsp), %rax                 # 8-byte Reload
	movq	8(%rax), %rdi
.Ltmp335:
	leaq	.L.str.15(%rip), %rsi
	callq	PyObject_GetAttrString@PLT
.Ltmp336:
# %bb.85:
	movq	%rax, 200(%rsp)
	testq	%rax, %rax
	je	.LBB15_91
# %bb.86:
.Ltmp338:
	movq	%rax, %rdi
	callq	PyList_Size@PLT
.Ltmp339:
# %bb.87:
	testq	%rax, %rax
	js	.LBB15_92
# %bb.88:
	movabsq	$3777893186295716171, %rsi      # imm = 0x346DC5D63886594B
	cmpq	$10, %rax
	movq	%rax, 184(%rsp)                 # 8-byte Spill
	leaq	96(%rsp), %rbx
	jae	.LBB15_100
# %bb.89:                               # %.thread781
	movq	%rbx, 80(%rsp)
.LBB15_90:
	movb	$45, 96(%rsp)
	movl	$1, %r12d
	movl	$1, %r14d
	movq	%rbx, %r15
	jmp	.LBB15_125
.LBB15_91:
.Ltmp472:
	callq	PyErr_Clear@PLT
.Ltmp473:
	jmp	.LBB15_379
.LBB15_92:
.Ltmp455:
	leaq	48(%rsp), %rdi
	callq	_ZN8pybind116detail12error_stringB5cxx11Ev
.Ltmp456:
# %bb.93:
	movq	56(%rsp), %r12
	movabsq	$9223372036854775807, %rax      # imm = 0x7FFFFFFFFFFFFFFF
	addq	$-35, %rax
	cmpq	%rax, %r12
	jg	.LBB15_579
# %bb.94:                               # %_ZNKSt7__cxx1112basic_stringIcSt11char_traitsIcESaIcEE15_M_check_lengthEmmPKc.exit.i
	leaq	35(%r12), %rbx
	movq	48(%rsp), %r15
	leaq	64(%rsp), %r14
	cmpq	%r14, %r15
	je	.LBB15_106
# %bb.95:                               # %_ZNKSt7__cxx1112basic_stringIcSt11char_traitsIcESaIcEE8capacityEv.exit.i.thread
	movq	64(%rsp), %r13
	movq	%r13, %rax
	cmpq	%r13, %rbx
	ja	.LBB15_107
# %bb.96:
	leaq	.L.str.16(%rip), %rax
	cmpq	%rax, %r15
	seta	%cl
	leaq	(%r15,%r12), %rdx
	cmpq	%rax, %rdx
	setb	%al
	orb	%cl, %al
	cmpb	$1, %al
	jne	.LBB15_536
# %bb.97:
	testq	%r12, %r12
	je	.LBB15_362
# %bb.98:
	cmpq	$1, %r12
	jne	.LBB15_361
# %bb.99:
	movzbl	(%r15), %eax
	movb	%al, 35(%r15)
	jmp	.LBB15_362
.LBB15_100:                             # %.lr.ph.i.i.preheader
	movl	$4, %r12d
	movq	%rax, %rcx
	.p2align	4, 0x90
.LBB15_101:                             # %.lr.ph.i.i
                                        # =>This Inner Loop Header: Depth=1
	cmpq	$99, %rcx
	jbe	.LBB15_113
# %bb.102:                              #   in Loop: Header=BB15_101 Depth=1
	cmpq	$999, %rcx                      # imm = 0x3E7
	jbe	.LBB15_121
# %bb.103:                              #   in Loop: Header=BB15_101 Depth=1
	cmpq	$10000, %rcx                    # imm = 0x2710
	jb	.LBB15_114
# %bb.104:                              #   in Loop: Header=BB15_101 Depth=1
	movq	%rcx, %rax
	mulq	%rsi
	shrq	$11, %rdx
	addl	$4, %r12d
	cmpq	$99999, %rcx                    # imm = 0x1869F
	movq	%rdx, %rcx
	ja	.LBB15_101
# %bb.105:                              # %_ZNSt8__detail14__to_chars_lenImEEjT_i.exit.i.loopexit
	addl	$-3, %r12d
	movl	%r12d, %r14d
	movq	%rbx, 80(%rsp)
	cmpl	$16, %r12d
	jae	.LBB15_115
	jmp	.LBB15_122
.LBB15_106:                             # %_ZNKSt7__cxx1112basic_stringIcSt11char_traitsIcESaIcEE8capacityEv.exit.i
	movl	$15, %eax
	movq	64(%rsp), %r13
.LBB15_107:                             # %_ZNKSt7__cxx1112basic_stringIcSt11char_traitsIcESaIcEE8capacityEv.exit.i877
	cmpq	$-36, %r12
	jle	.LBB15_582
# %bb.108:
	addq	%rax, %rax
	movabsq	$9223372036854775807, %r14      # imm = 0x7FFFFFFFFFFFFFFF
	cmpq	%r14, %rax
	cmovbq	%rax, %r14
	cmpq	%rax, %rbx
	cmovaeq	%rbx, %r14
	movq	%r14, %rdi
	incq	%rdi
	js	.LBB15_528
# %bb.109:                              # %_ZNSt7__cxx1112basic_stringIcSt11char_traitsIcESaIcEE9_M_createERmm.exit.i
.Ltmp460:
	callq	_Znwm@PLT
.Ltmp461:
# %bb.110:                              # %.noexc883
	movq	%rax, %rbp
	movups	.L.str.16+16(%rip), %xmm0
	movups	%xmm0, 16(%rax)
	movups	.L.str.16(%rip), %xmm0
	movups	%xmm0, (%rax)
	movl	$540682591, 31(%rax)            # imm = 0x203A295F
	testq	%r12, %r12
	je	.LBB15_118
# %bb.111:
	movq	%rbp, %rdi
	addq	$35, %rdi
	cmpq	$1, %r12
	jne	.LBB15_117
# %bb.112:
	movzbl	(%r15), %eax
	movb	%al, (%rdi)
	jmp	.LBB15_118
.LBB15_113:
	addl	$-2, %r12d
.LBB15_114:                             # %_ZNSt8__detail14__to_chars_lenImEEjT_i.exit.i
	movl	%r12d, %r14d
	movq	%rbx, 80(%rsp)
	cmpl	$16, %r12d
	jb	.LBB15_122
.LBB15_115:                             # %.noexc.i184
	leaq	1(%r14), %rdi
.Ltmp341:
	callq	_Znwm@PLT
.Ltmp342:
# %bb.116:                              # %.noexc185
	movq	%rax, %r15
	movq	%rax, 80(%rsp)
	movq	%r14, 96(%rsp)
	jmp	.LBB15_124
.LBB15_117:
	movq	%r15, %rsi
	movq	%r12, %rdx
	callq	memcpy@PLT
.LBB15_118:                             # %_ZNSt7__cxx1112basic_stringIcSt11char_traitsIcESaIcEE7_S_copyEPcPKcm.exit27.i
	leaq	64(%rsp), %rax
	cmpq	%rax, %r15
	je	.LBB15_120
# %bb.119:                              # %_ZNKSt7__cxx1112basic_stringIcSt11char_traitsIcESaIcEE11_M_is_localEv.exit.i.i879
	incq	%r13
	movq	%r15, %rdi
	movq	%r13, %rsi
	callq	_ZdlPvm@PLT
.LBB15_120:                             # %.noexc821
	movq	%rbp, 48(%rsp)
	movq	%r14, 64(%rsp)
	movq	%rbp, %r15
	leaq	64(%rsp), %r14
	jmp	.LBB15_363
.LBB15_121:
	decl	%r12d
	movl	%r12d, %r14d
	movq	%rbx, 80(%rsp)
	cmpl	$16, %r12d
	jae	.LBB15_115
.LBB15_122:
	movq	%rbx, %r15
	testl	%r12d, %r12d
	je	.LBB15_125
# %bb.123:
	cmpl	$1, %r12d
	je	.LBB15_90
.LBB15_124:
	movq	%r15, %rdi
	movl	$45, %esi
	movq	%r14, %rdx
	callq	memset@PLT
.LBB15_125:
	movq	%r14, 88(%rsp)
	movb	$0, (%r15,%r14)
	movq	80(%rsp), %rcx
	movabsq	$2951479051793528259, %r9       # imm = 0x28F5C28F5C28F5C3
	leaq	.L__const._ZNSt8__detail18__to_chars_10_implIjEEvPcjT_.__digits(%rip), %r10
	movq	184(%rsp), %rsi                 # 8-byte Reload
	cmpq	$100, %rsi
	jb	.LBB15_130
# %bb.126:                              # %.lr.ph.preheader.i.i
	addl	$-2, %r12d
	.p2align	4, 0x90
.LBB15_127:                             # %.lr.ph.i13.i
                                        # =>This Inner Loop Header: Depth=1
	leal	1(%r12), %edi
	movq	%rsi, %rax
	shrq	$2, %rax
	mulq	%r9
	shrq	$2, %rdx
	imull	$100, %edx, %eax
	movl	%esi, %r8d
	subl	%eax, %r8d
	movzbl	(%r10,%r8,2), %eax
	movzbl	1(%r10,%r8,2), %r8d
	movb	%r8b, (%rcx,%rdi)
	movl	%r12d, %edi
	movb	%al, (%rcx,%rdi)
	addl	$-2, %r12d
	cmpq	$9999, %rsi                     # imm = 0x270F
	movq	%rdx, %rsi
	ja	.LBB15_127
# %bb.128:                              # %._crit_edge.i.i183
	cmpq	$10, %rdx
	jb	.LBB15_131
.LBB15_129:
	movzbl	(%r10,%rdx,2), %eax
	movzbl	1(%r10,%rdx,2), %edx
	movb	%dl, 1(%rcx)
	jmp	.LBB15_132
.LBB15_130:
	movq	%rsi, %rdx
	cmpq	$10, %rdx
	jae	.LBB15_129
.LBB15_131:
	orb	$48, %dl
	movl	%edx, %eax
.LBB15_132:
	movq	%rbx, 144(%rsp)                 # 8-byte Spill
	movb	%al, (%rcx)
	movq	88(%rsp), %r12
	movq	%r12, %rax
	andq	$-16, %rax
	movabsq	$9223372036854775807, %rcx      # imm = 0x7FFFFFFFFFFFFFFF
	addq	$-15, %rcx
	cmpq	%rcx, %rax
	je	.LBB15_569
# %bb.133:                              # %_ZNKSt7__cxx1112basic_stringIcSt11char_traitsIcESaIcEE15_M_check_lengthEmmPKc.exit.i822
	leaq	16(%r12), %rbp
	movq	80(%rsp), %r14
	leaq	96(%rsp), %rax
	cmpq	%rax, %r14
	je	.LBB15_139
# %bb.134:                              # %_ZNKSt7__cxx1112basic_stringIcSt11char_traitsIcESaIcEE8capacityEv.exit.i823.thread
	movq	96(%rsp), %r15
	movq	%r15, %rax
	cmpq	%r15, %rbp
	ja	.LBB15_140
# %bb.135:
	leaq	.L.str.17(%rip), %rax
	cmpq	%rax, %r14
	seta	%cl
	leaq	(%r14,%r12), %rdx
	cmpq	%rax, %rdx
	setb	%al
	orb	%cl, %al
	cmpb	$1, %al
	jne	.LBB15_532
# %bb.136:
	testq	%r12, %r12
	je	.LBB15_151
# %bb.137:
	cmpq	$1, %r12
	jne	.LBB15_150
# %bb.138:
	movzbl	(%r14), %eax
	movb	%al, 16(%r14)
	jmp	.LBB15_151
.LBB15_139:                             # %_ZNKSt7__cxx1112basic_stringIcSt11char_traitsIcESaIcEE8capacityEv.exit.i823
	movl	$15, %eax
	movq	96(%rsp), %r15
.LBB15_140:                             # %_ZNKSt7__cxx1112basic_stringIcSt11char_traitsIcESaIcEE8capacityEv.exit.i884
	cmpq	$-17, %r12
	jle	.LBB15_574
# %bb.141:
	addq	%rax, %rax
	movabsq	$9223372036854775807, %rbx      # imm = 0x7FFFFFFFFFFFFFFF
	cmpq	%rbx, %rax
	cmovbq	%rax, %rbx
	cmpq	%rax, %rbp
	cmovaeq	%rbp, %rbx
	movq	%rbx, %rdi
	incq	%rdi
	js	.LBB15_526
# %bb.142:                              # %_ZNSt7__cxx1112basic_stringIcSt11char_traitsIcESaIcEE9_M_createERmm.exit.i886
.Ltmp346:
	callq	_Znwm@PLT
.Ltmp347:
# %bb.143:                              # %.noexc895
	movq	%rax, %r13
	movups	.L.str.17(%rip), %xmm0
	movups	%xmm0, (%rax)
	testq	%r12, %r12
	je	.LBB15_147
# %bb.144:
	movq	%r13, %rdi
	addq	$16, %rdi
	cmpq	$1, %r12
	jne	.LBB15_146
# %bb.145:
	movzbl	(%r14), %eax
	movb	%al, (%rdi)
	jmp	.LBB15_147
.LBB15_146:
	movq	%r14, %rsi
	movq	%r12, %rdx
	callq	memcpy@PLT
.LBB15_147:                             # %_ZNSt7__cxx1112basic_stringIcSt11char_traitsIcESaIcEE7_S_copyEPcPKcm.exit27.i889
	leaq	96(%rsp), %rax
	cmpq	%rax, %r14
	je	.LBB15_149
# %bb.148:                              # %_ZNKSt7__cxx1112basic_stringIcSt11char_traitsIcESaIcEE11_M_is_localEv.exit.i.i890
	incq	%r15
	movq	%r14, %rdi
	movq	%r15, %rsi
	callq	_ZdlPvm@PLT
.LBB15_149:                             # %.noexc831
	movq	%r13, 80(%rsp)
	movq	%rbx, 96(%rsp)
	jmp	.LBB15_152
.LBB15_150:
	leaq	16(%r14), %rdi
	movq	%r14, %rsi
	movq	%r12, %rdx
	callq	memmove@PLT
.LBB15_151:                             # %_ZNSt7__cxx1112basic_stringIcSt11char_traitsIcESaIcEE7_S_moveEPcPKcm.exit.i828
	movups	.L.str.17(%rip), %xmm0
	movups	%xmm0, (%r14)
.LBB15_152:                             # %.noexc189
	movq	%rbp, 88(%rsp)
	movq	80(%rsp), %rax
	movb	$0, (%rax,%rbp)
	leaq	64(%rsp), %r14
	movq	%r14, 48(%rsp)
	movq	80(%rsp), %rax
	leaq	96(%rsp), %rbx
	cmpq	%rbx, %rax
	je	.LBB15_154
# %bb.153:                              # %_ZNKSt7__cxx1112basic_stringIcSt11char_traitsIcESaIcEE11_M_is_localEv.exit.i.i186
	movq	%rax, 48(%rsp)
	movq	88(%rsp), %r15
	movq	96(%rsp), %rcx
	movq	%rcx, 64(%rsp)
	jmp	.LBB15_155
.LBB15_154:
	movq	88(%rsp), %r15
	leaq	1(%r15), %rdx
	movq	%r14, %rdi
	movq	%rbx, %rsi
	callq	memcpy@PLT
	movq	%r14, %rax
.LBB15_155:
	movq	144(%rsp), %r13                 # 8-byte Reload
	movq	%r15, 56(%rsp)
	movq	%rbx, 80(%rsp)
	movq	$0, 88(%rsp)
	movb	$0, 96(%rsp)
	movq	%r15, %rcx
	andq	$-2, %rcx
	movabsq	$9223372036854775807, %rdx      # imm = 0x7FFFFFFFFFFFFFFF
	decq	%rdx
	cmpq	%rdx, %rcx
	je	.LBB15_570
# %bb.156:                              # %_ZNKSt7__cxx1112basic_stringIcSt11char_traitsIcESaIcEE15_M_check_lengthEmmPKc.exit.i.i
	leaq	2(%r15), %rbx
	movl	$15, %ecx
	cmpq	%r14, %rax
	je	.LBB15_158
# %bb.157:                              # %_ZNKSt7__cxx1112basic_stringIcSt11char_traitsIcESaIcEE15_M_check_lengthEmmPKc.exit.i.i
	movq	64(%rsp), %rcx
.LBB15_158:                             # %_ZNKSt7__cxx1112basic_stringIcSt11char_traitsIcESaIcEE15_M_check_lengthEmmPKc.exit.i.i
	cmpq	%rcx, %rbx
	jbe	.LBB15_160
# %bb.159:
.Ltmp348:
	leaq	.L.str.18(%rip), %rcx
	leaq	48(%rsp), %rdi
	movl	$2, %r8d
	movq	%r15, %rsi
	xorl	%edx, %edx
	callq	_ZNSt7__cxx1112basic_stringIcSt11char_traitsIcESaIcEE9_M_mutateEmmPKcm@PLT
.Ltmp349:
	jmp	.LBB15_161
.LBB15_160:
	movw	$14889, (%rax,%r15)             # imm = 0x3A29
.LBB15_161:                             # %_ZNSt7__cxx1112basic_stringIcSt11char_traitsIcESaIcEE6appendEPKc.exit.i
	movq	%rbx, 56(%rsp)
	movq	48(%rsp), %rax
	movb	$0, (%rax,%rbx)
	leaq	24(%rsp), %r12
	movq	%r12, 8(%rsp)
	movq	48(%rsp), %rcx
	cmpq	%r14, %rcx
	je	.LBB15_163
# %bb.162:                              # %_ZNKSt7__cxx1112basic_stringIcSt11char_traitsIcESaIcEE11_M_is_localEv.exit.i.i191
	movq	%rcx, 8(%rsp)
	movq	56(%rsp), %r15
	movq	64(%rsp), %rax
	movq	%rax, 24(%rsp)
	jmp	.LBB15_164
.LBB15_163:
	movq	56(%rsp), %r15
	leaq	1(%r15), %rdx
	movq	%r12, %rdi
	movq	%r14, %rsi
	callq	memcpy@PLT
	movq	%r12, %rcx
.LBB15_164:
	movq	%r15, 16(%rsp)
	movq	%r14, 48(%rsp)
	movq	$0, 56(%rsp)
	movb	$0, 64(%rsp)
	movq	(%rsp), %rdx                    # 8-byte Reload
	movq	8(%rdx), %rsi
	movabsq	$9223372036854775807, %rax      # imm = 0x7FFFFFFFFFFFFFFF
	subq	%rsi, %rax
	cmpq	%r15, %rax
	jb	.LBB15_572
# %bb.165:                              # %_ZNKSt7__cxx1112basic_stringIcSt11char_traitsIcESaIcEE15_M_check_lengthEmmPKc.exit.i.i.i195
	leaq	(%rsi,%r15), %rbx
	movq	(%rdx), %rdi
	movl	$15, %eax
	cmpq	40(%rsp), %rdi                  # 8-byte Folded Reload
	je	.LBB15_167
# %bb.166:                              # %_ZNKSt7__cxx1112basic_stringIcSt11char_traitsIcESaIcEE15_M_check_lengthEmmPKc.exit.i.i.i195
	movq	40(%rsp), %rax                  # 8-byte Reload
	movq	(%rax), %rax
.LBB15_167:                             # %_ZNKSt7__cxx1112basic_stringIcSt11char_traitsIcESaIcEE15_M_check_lengthEmmPKc.exit.i.i.i195
	cmpq	%rax, %rbx
	jbe	.LBB15_169
# %bb.168:
.Ltmp350:
	movq	(%rsp), %rdi                    # 8-byte Reload
	xorl	%edx, %edx
	movq	%r15, %r8
	callq	_ZNSt7__cxx1112basic_stringIcSt11char_traitsIcESaIcEE9_M_mutateEmmPKcm@PLT
.Ltmp351:
	jmp	.LBB15_173
.LBB15_169:
	testq	%r15, %r15
	je	.LBB15_173
# %bb.170:
	addq	%rsi, %rdi
	cmpq	$1, %r15
	jne	.LBB15_172
# %bb.171:
	movzbl	(%rcx), %eax
	movb	%al, (%rdi)
	jmp	.LBB15_173
.LBB15_172:
	movq	%rcx, %rsi
	movq	%r15, %rdx
	callq	memcpy@PLT
.LBB15_173:
	movq	(%rsp), %rax                    # 8-byte Reload
	movq	%rbx, 8(%rax)
	movq	(%rax), %rax
	movb	$0, (%rax,%rbx)
	movq	8(%rsp), %rdi
	cmpq	%r12, %rdi
	je	.LBB15_175
# %bb.174:                              # %_ZNKSt7__cxx1112basic_stringIcSt11char_traitsIcESaIcEE11_M_is_localEv.exit.i.i203
	movq	24(%rsp), %rsi
	incq	%rsi
	callq	_ZdlPvm@PLT
.LBB15_175:                             # %_ZNSt7__cxx1112basic_stringIcSt11char_traitsIcESaIcEED2Ev.exit205
	movq	48(%rsp), %rdi
	cmpq	%r14, %rdi
	je	.LBB15_177
# %bb.176:                              # %_ZNKSt7__cxx1112basic_stringIcSt11char_traitsIcESaIcEE11_M_is_localEv.exit.i.i206
	movq	64(%rsp), %rsi
	incq	%rsi
	callq	_ZdlPvm@PLT
.LBB15_177:                             # %_ZNSt7__cxx1112basic_stringIcSt11char_traitsIcESaIcEED2Ev.exit208
	movq	80(%rsp), %rdi
	cmpq	%r13, %rdi
	je	.LBB15_179
# %bb.178:                              # %_ZNKSt7__cxx1112basic_stringIcSt11char_traitsIcESaIcEE11_M_is_localEv.exit.i.i209
	movq	96(%rsp), %rsi
	incq	%rsi
	callq	_ZdlPvm@PLT
.LBB15_179:                             # %_ZNSt7__cxx1112basic_stringIcSt11char_traitsIcESaIcEED2Ev.exit211
	cmpq	$0, 184(%rsp)                   # 8-byte Folded Reload
	je	.LBB15_379
# %bb.180:                              # %.lr.ph.preheader
	leaq	24(%rsp), %r15
	movq	$0, 144(%rsp)                   # 8-byte Folded Spill
	leaq	.L.str.9(%rip), %rax
	movq	%rax, 192(%rsp)                 # 8-byte Spill
	.p2align	4, 0x90
.LBB15_181:                             # %.lr.ph
                                        # =>This Loop Header: Depth=1
                                        #     Child Loop BB15_222 Depth 2
                                        #     Child Loop BB15_297 Depth 2
                                        #     Child Loop BB15_207 Depth 2
                                        #     Child Loop BB15_241 Depth 2
	movq	200(%rsp), %rax
	movq	8(%rax), %rcx
	testb	$2, 171(%rcx)
	je	.LBB15_544
# %bb.182:                              #   in Loop: Header=BB15_181 Depth=1
	movq	24(%rax), %rax
	movq	144(%rsp), %rcx                 # 8-byte Reload
	movq	(%rax,%rcx,8), %rdi
.Ltmp352:
	leaq	.L.str.13(%rip), %rsi
	leaq	.L.str.14(%rip), %rdx
	callq	PyUnicode_AsEncodedString@PLT
.Ltmp353:
# %bb.183:                              #   in Loop: Header=BB15_181 Depth=1
	movq	%rax, 264(%rsp)
	testq	%rax, %rax
	je	.LBB15_200
# %bb.184:                              #   in Loop: Header=BB15_181 Depth=1
	movq	$0, 256(%rsp)
	movq	$0, 248(%rsp)
.Ltmp355:
	movq	%rax, %rdi
	leaq	256(%rsp), %rsi
	leaq	248(%rsp), %rdx
	callq	PyBytes_AsStringAndSize@PLT
.Ltmp356:
# %bb.185:                              #   in Loop: Header=BB15_181 Depth=1
	cmpl	$-1, %eax
	movabsq	$3777893186295716171, %rsi      # imm = 0x346DC5D63886594B
	je	.LBB15_203
# %bb.186:                              # %_ZNKSt7__cxx1112basic_stringIcSt11char_traitsIcESaIcEE8capacityEv.exit.i.i
                                        #   in Loop: Header=BB15_181 Depth=1
	movq	(%rsp), %rax                    # 8-byte Reload
	movq	(%rax), %rax
	movl	$15, %ecx
	cmpq	40(%rsp), %rax                  # 8-byte Folded Reload
	je	.LBB15_188
# %bb.187:                              # %_ZNKSt7__cxx1112basic_stringIcSt11char_traitsIcESaIcEE8capacityEv.exit.i.i
                                        #   in Loop: Header=BB15_181 Depth=1
	movq	40(%rsp), %rcx                  # 8-byte Reload
	movq	(%rcx), %rcx
.LBB15_188:                             # %_ZNKSt7__cxx1112basic_stringIcSt11char_traitsIcESaIcEE8capacityEv.exit.i.i
                                        #   in Loop: Header=BB15_181 Depth=1
	movq	(%rsp), %rdi                    # 8-byte Reload
	movq	8(%rdi), %r14
	leaq	1(%r14), %rbx
	cmpq	%rcx, %rbx
	jbe	.LBB15_191
# %bb.189:                              #   in Loop: Header=BB15_181 Depth=1
.Ltmp357:
	movl	$1, %r8d
	movq	%r14, %rsi
	xorl	%edx, %edx
	xorl	%ecx, %ecx
	callq	_ZNSt7__cxx1112basic_stringIcSt11char_traitsIcESaIcEE9_M_mutateEmmPKcm@PLT
.Ltmp358:
# %bb.190:                              # %.noexc361
                                        #   in Loop: Header=BB15_181 Depth=1
	movq	(%rsp), %rdi                    # 8-byte Reload
	movq	(%rdi), %rax
.LBB15_191:                             #   in Loop: Header=BB15_181 Depth=1
	movb	$10, (%rax,%r14)
	movq	%rbx, 8(%rdi)
	movq	(%rdi), %rax
	movb	$0, 1(%rax,%r14)
	movq	%r15, %r12
	movq	256(%rsp), %r15
	movq	248(%rsp), %r14
	movq	%r12, 8(%rsp)
	testq	%r15, %r15
	setne	%al
	testq	%r14, %r14
	sete	%cl
	orb	%al, %cl
	je	.LBB15_545
# %bb.192:                              #   in Loop: Header=BB15_181 Depth=1
	cmpq	$16, %r14
	jb	.LBB15_197
# %bb.193:                              #   in Loop: Header=BB15_181 Depth=1
	testq	%r14, %r14
	js	.LBB15_555
# %bb.194:                              #   in Loop: Header=BB15_181 Depth=1
	movq	%r14, %rdi
	incq	%rdi
	js	.LBB15_519
# %bb.195:                              # %_ZNSt7__cxx1112basic_stringIcSt11char_traitsIcESaIcEE9_M_createERmm.exit.i.i364
                                        #   in Loop: Header=BB15_181 Depth=1
.Ltmp360:
	callq	_Znwm@PLT
.Ltmp361:
# %bb.196:                              # %.noexc370
                                        #   in Loop: Header=BB15_181 Depth=1
	movq	%rax, %r12
	movq	%rax, 8(%rsp)
	movq	%r14, 24(%rsp)
.LBB15_197:                             # %._crit_edge.i.i363
                                        #   in Loop: Header=BB15_181 Depth=1
	testq	%r14, %r14
	je	.LBB15_213
# %bb.198:                              # %._crit_edge.i.i363
                                        #   in Loop: Header=BB15_181 Depth=1
	cmpq	$1, %r14
	jne	.LBB15_212
# %bb.199:                              #   in Loop: Header=BB15_181 Depth=1
	movzbl	(%r15), %eax
	movb	%al, (%r12)
	jmp	.LBB15_213
	.p2align	4, 0x90
.LBB15_200:                             #   in Loop: Header=BB15_181 Depth=1
	movq	144(%rsp), %rcx                 # 8-byte Reload
	cmpq	$10, %rcx
	jae	.LBB15_206
# %bb.201:                              # %.thread788
                                        #   in Loop: Header=BB15_181 Depth=1
	leaq	128(%rsp), %rax
	movq	%rax, 112(%rsp)
.LBB15_202:                             #   in Loop: Header=BB15_181 Depth=1
	movb	$45, 128(%rsp)
	movl	$1, %ebx
	movl	$1, %r14d
	movq	%rax, %r15
	jmp	.LBB15_239
	.p2align	4, 0x90
.LBB15_203:                             #   in Loop: Header=BB15_181 Depth=1
	movq	144(%rsp), %rcx                 # 8-byte Reload
	cmpq	$10, %rcx
	jae	.LBB15_221
# %bb.204:                              # %.thread795
                                        #   in Loop: Header=BB15_181 Depth=1
	leaq	128(%rsp), %rax
	movq	%rax, 112(%rsp)
.LBB15_205:                             #   in Loop: Header=BB15_181 Depth=1
	movb	$45, 128(%rsp)
	movl	$1, %ebx
	movl	$1, %r14d
	movq	%rax, %r15
	jmp	.LBB15_295
.LBB15_206:                             # %.lr.ph.i.i221.preheader
                                        #   in Loop: Header=BB15_181 Depth=1
	movl	$4, %ebx
	movabsq	$3777893186295716171, %rsi      # imm = 0x346DC5D63886594B
	.p2align	4, 0x90
.LBB15_207:                             # %.lr.ph.i.i221
                                        #   Parent Loop BB15_181 Depth=1
                                        # =>  This Inner Loop Header: Depth=2
	cmpq	$99, %rcx
	jbe	.LBB15_230
# %bb.208:                              #   in Loop: Header=BB15_207 Depth=2
	cmpq	$999, %rcx                      # imm = 0x3E7
	jbe	.LBB15_231
# %bb.209:                              #   in Loop: Header=BB15_207 Depth=2
	cmpq	$10000, %rcx                    # imm = 0x2710
	jb	.LBB15_232
# %bb.210:                              #   in Loop: Header=BB15_207 Depth=2
	movq	%rcx, %rax
	mulq	%rsi
	shrq	$11, %rdx
	addl	$4, %ebx
	cmpq	$99999, %rcx                    # imm = 0x1869F
	movq	%rdx, %rcx
	ja	.LBB15_207
# %bb.211:                              # %_ZNSt8__detail14__to_chars_lenImEEjT_i.exit.i224.loopexit
                                        #   in Loop: Header=BB15_181 Depth=1
	addl	$-3, %ebx
	jmp	.LBB15_232
.LBB15_212:                             #   in Loop: Header=BB15_181 Depth=1
	movq	%r12, %rdi
	movq	%r15, %rsi
	movq	%r14, %rdx
	callq	memcpy@PLT
.LBB15_213:                             #   in Loop: Header=BB15_181 Depth=1
	movq	%r14, 16(%rsp)
	movb	$0, (%r12,%r14)
	movq	16(%rsp), %r8
	movq	(%rsp), %rcx                    # 8-byte Reload
	movq	8(%rcx), %rsi
	movabsq	$9223372036854775807, %rax      # imm = 0x7FFFFFFFFFFFFFFF
	subq	%rsi, %rax
	cmpq	%r8, %rax
	jb	.LBB15_547
# %bb.214:                              # %_ZNKSt7__cxx1112basic_stringIcSt11char_traitsIcESaIcEE15_M_check_lengthEmmPKc.exit.i.i.i372
                                        #   in Loop: Header=BB15_181 Depth=1
	movq	(%rcx), %rdi
	movl	$15, %eax
	cmpq	40(%rsp), %rdi                  # 8-byte Folded Reload
	leaq	24(%rsp), %r15
	je	.LBB15_216
# %bb.215:                              # %_ZNKSt7__cxx1112basic_stringIcSt11char_traitsIcESaIcEE15_M_check_lengthEmmPKc.exit.i.i.i372
                                        #   in Loop: Header=BB15_181 Depth=1
	movq	40(%rsp), %rax                  # 8-byte Reload
	movq	(%rax), %rax
.LBB15_216:                             # %_ZNKSt7__cxx1112basic_stringIcSt11char_traitsIcESaIcEE15_M_check_lengthEmmPKc.exit.i.i.i372
                                        #   in Loop: Header=BB15_181 Depth=1
	movq	8(%rsp), %rcx
	leaq	(%rsi,%r8), %rbx
	cmpq	%rax, %rbx
	jbe	.LBB15_218
# %bb.217:                              #   in Loop: Header=BB15_181 Depth=1
.Ltmp363:
	movq	(%rsp), %rdi                    # 8-byte Reload
	xorl	%edx, %edx
	callq	_ZNSt7__cxx1112basic_stringIcSt11char_traitsIcESaIcEE9_M_mutateEmmPKcm@PLT
.Ltmp364:
	jmp	.LBB15_228
.LBB15_218:                             #   in Loop: Header=BB15_181 Depth=1
	testq	%r8, %r8
	je	.LBB15_228
# %bb.219:                              #   in Loop: Header=BB15_181 Depth=1
	addq	%rsi, %rdi
	cmpq	$1, %r8
	jne	.LBB15_227
# %bb.220:                              #   in Loop: Header=BB15_181 Depth=1
	movzbl	(%rcx), %eax
	movb	%al, (%rdi)
	jmp	.LBB15_228
.LBB15_221:                             # %.lr.ph.i.i291.preheader
                                        #   in Loop: Header=BB15_181 Depth=1
	movl	$4, %ebx
	.p2align	4, 0x90
.LBB15_222:                             # %.lr.ph.i.i291
                                        #   Parent Loop BB15_181 Depth=1
                                        # =>  This Inner Loop Header: Depth=2
	cmpq	$99, %rcx
	jbe	.LBB15_286
# %bb.223:                              #   in Loop: Header=BB15_222 Depth=2
	cmpq	$999, %rcx                      # imm = 0x3E7
	jbe	.LBB15_287
# %bb.224:                              #   in Loop: Header=BB15_222 Depth=2
	cmpq	$10000, %rcx                    # imm = 0x2710
	jb	.LBB15_288
# %bb.225:                              #   in Loop: Header=BB15_222 Depth=2
	movq	%rcx, %rax
	mulq	%rsi
	shrq	$11, %rdx
	addl	$4, %ebx
	cmpq	$99999, %rcx                    # imm = 0x1869F
	movq	%rdx, %rcx
	ja	.LBB15_222
# %bb.226:                              # %_ZNSt8__detail14__to_chars_lenImEEjT_i.exit.i294.loopexit
                                        #   in Loop: Header=BB15_181 Depth=1
	addl	$-3, %ebx
	jmp	.LBB15_288
.LBB15_227:                             #   in Loop: Header=BB15_181 Depth=1
	movq	%rcx, %rsi
	movq	%r8, %rdx
	callq	memcpy@PLT
	.p2align	4, 0x90
.LBB15_228:                             #   in Loop: Header=BB15_181 Depth=1
	movq	(%rsp), %rax                    # 8-byte Reload
	movq	%rbx, 8(%rax)
	movq	(%rax), %rax
	movb	$0, (%rax,%rbx)
	movq	8(%rsp), %rdi
	cmpq	%r15, %rdi
	je	.LBB15_356
# %bb.229:                              # %_ZNKSt7__cxx1112basic_stringIcSt11char_traitsIcESaIcEE11_M_is_localEv.exit.i.i380
                                        #   in Loop: Header=BB15_181 Depth=1
	movq	24(%rsp), %rsi
	jmp	.LBB15_355
.LBB15_230:                             #   in Loop: Header=BB15_181 Depth=1
	addl	$-2, %ebx
	jmp	.LBB15_232
.LBB15_231:                             #   in Loop: Header=BB15_181 Depth=1
	decl	%ebx
.LBB15_232:                             # %_ZNSt8__detail14__to_chars_lenImEEjT_i.exit.i224
                                        #   in Loop: Header=BB15_181 Depth=1
	movl	%ebx, %r14d
	leaq	128(%rsp), %rax
	movq	%rax, 112(%rsp)
	cmpl	$16, %ebx
	jb	.LBB15_235
# %bb.233:                              # %.noexc.i234
                                        #   in Loop: Header=BB15_181 Depth=1
	leaq	1(%r14), %rdi
.Ltmp407:
	callq	_Znwm@PLT
.Ltmp408:
# %bb.234:                              # %.noexc235
                                        #   in Loop: Header=BB15_181 Depth=1
	movq	%rax, %r15
	movq	%rax, 112(%rsp)
	movq	%r14, 128(%rsp)
	jmp	.LBB15_237
.LBB15_235:                             #   in Loop: Header=BB15_181 Depth=1
	testl	%ebx, %ebx
	je	.LBB15_238
# %bb.236:                              #   in Loop: Header=BB15_181 Depth=1
	movq	%rax, %r15
	cmpl	$1, %ebx
	je	.LBB15_202
.LBB15_237:                             #   in Loop: Header=BB15_181 Depth=1
	movq	%r15, %rdi
	movl	$45, %esi
	movq	%r14, %rdx
	callq	memset@PLT
	jmp	.LBB15_239
.LBB15_238:                             #   in Loop: Header=BB15_181 Depth=1
	leaq	128(%rsp), %r15
	.p2align	4, 0x90
.LBB15_239:                             #   in Loop: Header=BB15_181 Depth=1
	movq	%r14, 120(%rsp)
	movb	$0, (%r15,%r14)
	movq	112(%rsp), %rcx
	movq	144(%rsp), %rsi                 # 8-byte Reload
	movq	%rsi, %rdx
	cmpq	$100, %rsi
	movabsq	$2951479051793528259, %r9       # imm = 0x28F5C28F5C28F5C3
	leaq	.L__const._ZNSt8__detail18__to_chars_10_implIjEEvPcjT_.__digits(%rip), %r10
	jb	.LBB15_242
# %bb.240:                              # %.lr.ph.preheader.i.i230
                                        #   in Loop: Header=BB15_181 Depth=1
	addl	$-2, %ebx
	.p2align	4, 0x90
.LBB15_241:                             # %.lr.ph.i13.i231
                                        #   Parent Loop BB15_181 Depth=1
                                        # =>  This Inner Loop Header: Depth=2
	leal	1(%rbx), %edi
	movq	%rsi, %rax
	shrq	$2, %rax
	mulq	%r9
	shrq	$2, %rdx
	imull	$100, %edx, %eax
	movl	%esi, %r8d
	subl	%eax, %r8d
	movzbl	(%r10,%r8,2), %eax
	movzbl	1(%r10,%r8,2), %r8d
	movb	%r8b, (%rcx,%rdi)
	movl	%ebx, %edi
	movb	%al, (%rcx,%rdi)
	addl	$-2, %ebx
	cmpq	$9999, %rsi                     # imm = 0x270F
	movq	%rdx, %rsi
	ja	.LBB15_241
.LBB15_242:                             # %._crit_edge.i.i227
                                        #   in Loop: Header=BB15_181 Depth=1
	cmpq	$10, %rdx
	jb	.LBB15_244
# %bb.243:                              #   in Loop: Header=BB15_181 Depth=1
	movzbl	(%r10,%rdx,2), %eax
	movzbl	1(%r10,%rdx,2), %edx
	movb	%dl, 1(%rcx)
	jmp	.LBB15_245
.LBB15_244:                             #   in Loop: Header=BB15_181 Depth=1
	orb	$48, %dl
	movl	%edx, %eax
.LBB15_245:                             #   in Loop: Header=BB15_181 Depth=1
	movb	%al, (%rcx)
	movq	120(%rsp), %r13
	movabsq	$9223372036854775807, %rax      # imm = 0x7FFFFFFFFFFFFFFF
	addq	$-29, %rax
	cmpq	%rax, %r13
	jg	.LBB15_558
# %bb.246:                              # %_ZNKSt7__cxx1112basic_stringIcSt11char_traitsIcESaIcEE15_M_check_lengthEmmPKc.exit.i833
                                        #   in Loop: Header=BB15_181 Depth=1
	leaq	29(%r13), %rbx
	movq	112(%rsp), %r14
	leaq	128(%rsp), %rax
	cmpq	%rax, %r14
	je	.LBB15_249
# %bb.247:                              # %_ZNKSt7__cxx1112basic_stringIcSt11char_traitsIcESaIcEE8capacityEv.exit.i834.thread
                                        #   in Loop: Header=BB15_181 Depth=1
	movq	128(%rsp), %r15
	movq	%r15, %rax
	cmpq	%r15, %rbx
	jbe	.LBB15_259
# %bb.248:                              # %_ZNKSt7__cxx1112basic_stringIcSt11char_traitsIcESaIcEE8capacityEv.exit.i897
                                        #   in Loop: Header=BB15_181 Depth=1
	cmpq	$-29, %r13
	jge	.LBB15_251
	jmp	.LBB15_557
.LBB15_249:                             # %_ZNKSt7__cxx1112basic_stringIcSt11char_traitsIcESaIcEE8capacityEv.exit.i834
                                        #   in Loop: Header=BB15_181 Depth=1
	cmpq	$15, %rbx
	jbe	.LBB15_259
# %bb.250:                              #   in Loop: Header=BB15_181 Depth=1
	movl	$15, %eax
	movq	128(%rsp), %r15
	cmpq	$-29, %r13
	jl	.LBB15_557
.LBB15_251:                             #   in Loop: Header=BB15_181 Depth=1
	addq	%rax, %rax
	movabsq	$9223372036854775807, %rbp      # imm = 0x7FFFFFFFFFFFFFFF
	cmpq	%rbp, %rax
	cmovbq	%rax, %rbp
	cmpq	%rax, %rbx
	cmovaeq	%rbx, %rbp
	movq	%rbp, %rdi
	incq	%rdi
	js	.LBB15_521
# %bb.252:                              # %_ZNSt7__cxx1112basic_stringIcSt11char_traitsIcESaIcEE9_M_createERmm.exit.i899
                                        #   in Loop: Header=BB15_181 Depth=1
.Ltmp412:
	callq	_Znwm@PLT
.Ltmp413:
# %bb.253:                              # %.noexc908
                                        #   in Loop: Header=BB15_181 Depth=1
	movq	%rax, %r12
	movups	.L.str.21+13(%rip), %xmm0
	movups	%xmm0, 13(%rax)
	movups	.L.str.21(%rip), %xmm0
	movups	%xmm0, (%rax)
	testq	%r13, %r13
	je	.LBB15_256
# %bb.254:                              #   in Loop: Header=BB15_181 Depth=1
	movq	%r12, %rdi
	addq	$29, %rdi
	cmpq	$1, %r13
	jne	.LBB15_285
# %bb.255:                              #   in Loop: Header=BB15_181 Depth=1
	movzbl	(%r14), %eax
	movb	%al, (%rdi)
.LBB15_256:                             # %_ZNSt7__cxx1112basic_stringIcSt11char_traitsIcESaIcEE7_S_copyEPcPKcm.exit27.i902
                                        #   in Loop: Header=BB15_181 Depth=1
	leaq	128(%rsp), %rax
	cmpq	%rax, %r14
	je	.LBB15_258
.LBB15_257:                             # %_ZNKSt7__cxx1112basic_stringIcSt11char_traitsIcESaIcEE11_M_is_localEv.exit.i.i903
                                        #   in Loop: Header=BB15_181 Depth=1
	incq	%r15
	movq	%r14, %rdi
	movq	%r15, %rsi
	callq	_ZdlPvm@PLT
.LBB15_258:                             # %.noexc842
                                        #   in Loop: Header=BB15_181 Depth=1
	movq	%r12, 112(%rsp)
	movq	%rbp, 128(%rsp)
	jmp	.LBB15_265
.LBB15_259:                             #   in Loop: Header=BB15_181 Depth=1
	leaq	.L.str.21(%rip), %rdx
	cmpq	%rdx, %r14
	seta	%al
	leaq	(%r14,%r13), %rcx
	cmpq	%rdx, %rcx
	setb	%cl
	orb	%al, %cl
	cmpb	$1, %cl
	jne	.LBB15_359
# %bb.260:                              #   in Loop: Header=BB15_181 Depth=1
	testq	%r13, %r13
	je	.LBB15_264
# %bb.261:                              #   in Loop: Header=BB15_181 Depth=1
	cmpq	$1, %r13
	jne	.LBB15_263
# %bb.262:                              #   in Loop: Header=BB15_181 Depth=1
	movzbl	(%r14), %eax
	movb	%al, 29(%r14)
	jmp	.LBB15_264
.LBB15_263:                             #   in Loop: Header=BB15_181 Depth=1
	leaq	29(%r14), %rdi
	movq	%r14, %rsi
	movq	%r13, %rdx
	callq	memmove@PLT
.LBB15_264:                             # %_ZNSt7__cxx1112basic_stringIcSt11char_traitsIcESaIcEE7_S_moveEPcPKcm.exit.i839
                                        #   in Loop: Header=BB15_181 Depth=1
	movups	.L.str.21+13(%rip), %xmm0
	movups	%xmm0, 13(%r14)
	movups	.L.str.21(%rip), %xmm0
	movups	%xmm0, (%r14)
.LBB15_265:                             # %.noexc240
                                        #   in Loop: Header=BB15_181 Depth=1
	movq	%rbx, 120(%rsp)
	movq	112(%rsp), %rax
	movb	$0, (%rax,%rbx)
	leaq	96(%rsp), %r15
	movq	%r15, 80(%rsp)
	movq	112(%rsp), %rax
	leaq	128(%rsp), %rsi
	cmpq	%rsi, %rax
	je	.LBB15_269
# %bb.266:                              #   in Loop: Header=BB15_181 Depth=1
	movq	%rax, 80(%rsp)
	movq	120(%rsp), %r14
	movq	120(%rsp), %rcx
	movq	%rcx, 88(%rsp)
	movq	128(%rsp), %rcx
	movq	%rcx, 96(%rsp)
	movq	%rsi, 112(%rsp)
	movq	$0, 120(%rsp)
	movb	$0, 128(%rsp)
	movabsq	$9223372036854775807, %rcx      # imm = 0x7FFFFFFFFFFFFFFF
	addq	$-3, %rcx
	cmpq	%rcx, %r14
	jg	.LBB15_551
# %bb.267:                              # %_ZNKSt7__cxx1112basic_stringIcSt11char_traitsIcESaIcEE15_M_check_lengthEmmPKc.exit.i.i242
                                        #   in Loop: Header=BB15_181 Depth=1
	leaq	3(%r14), %rbx
	leaq	96(%rsp), %rcx
	cmpq	%rcx, %rax
	leaq	24(%rsp), %r15
	je	.LBB15_270
# %bb.268:                              #   in Loop: Header=BB15_181 Depth=1
	xorl	%ecx, %ecx
	movl	$15, %edx
	testb	%cl, %cl
	je	.LBB15_271
	jmp	.LBB15_272
.LBB15_269:                             # %_ZNKSt7__cxx1112basic_stringIcSt11char_traitsIcESaIcEE15_M_check_lengthEmmPKc.exit.i.i242.thread
                                        #   in Loop: Header=BB15_181 Depth=1
	movq	120(%rsp), %r14
	leaq	1(%r14), %rdx
	movq	%r15, %rdi
	callq	memcpy@PLT
	movq	%r14, 88(%rsp)
	movq	$0, 120(%rsp)
	movb	$0, 128(%rsp)
	leaq	3(%r14), %rbx
	movq	%r15, %rax
	leaq	24(%rsp), %r15
.LBB15_270:                             #   in Loop: Header=BB15_181 Depth=1
	movb	$1, %cl
	movl	$15, %edx
	testb	%cl, %cl
	jne	.LBB15_272
.LBB15_271:                             # %_ZNKSt7__cxx1112basic_stringIcSt11char_traitsIcESaIcEE8capacityEv.exit.i.i.i243
                                        #   in Loop: Header=BB15_181 Depth=1
	movq	96(%rsp), %rdx
.LBB15_272:                             # %_ZNKSt7__cxx1112basic_stringIcSt11char_traitsIcESaIcEE8capacityEv.exit.i.i.i243
                                        #   in Loop: Header=BB15_181 Depth=1
	cmpq	%rdx, %rbx
	jbe	.LBB15_274
# %bb.273:                              #   in Loop: Header=BB15_181 Depth=1
.Ltmp418:
	movl	$3, %r8d
	leaq	80(%rsp), %rdi
	movq	%r14, %rsi
	xorl	%edx, %edx
	leaq	.L.str.22(%rip), %rcx
	callq	_ZNSt7__cxx1112basic_stringIcSt11char_traitsIcESaIcEE9_M_mutateEmmPKcm@PLT
.Ltmp419:
	jmp	.LBB15_275
.LBB15_274:                             #   in Loop: Header=BB15_181 Depth=1
	movb	$32, 2(%rax,%r14)
	movw	$14941, (%rax,%r14)             # imm = 0x3A5D
.LBB15_275:                             # %_ZNSt7__cxx1112basic_stringIcSt11char_traitsIcESaIcEE6appendEPKc.exit.i247
                                        #   in Loop: Header=BB15_181 Depth=1
	movq	%rbx, 88(%rsp)
	movq	80(%rsp), %rax
	movb	$0, (%rax,%rbx)
	leaq	64(%rsp), %rdi
	movq	%rdi, 48(%rsp)
	movq	80(%rsp), %rax
	leaq	96(%rsp), %r14
	cmpq	%r14, %rax
	je	.LBB15_277
# %bb.276:                              # %_ZNKSt7__cxx1112basic_stringIcSt11char_traitsIcESaIcEE11_M_is_localEv.exit.i.i248
                                        #   in Loop: Header=BB15_181 Depth=1
	movq	%rax, 48(%rsp)
	movq	88(%rsp), %rbx
	movq	96(%rsp), %rax
	movq	%rax, 64(%rsp)
	jmp	.LBB15_278
.LBB15_277:                             #   in Loop: Header=BB15_181 Depth=1
	movq	88(%rsp), %rbx
	leaq	1(%rbx), %rdx
	movq	%r14, %rsi
	callq	memcpy@PLT
.LBB15_278:                             #   in Loop: Header=BB15_181 Depth=1
	movq	%rbx, 56(%rsp)
	movq	%r14, 80(%rsp)
	movq	$0, 88(%rsp)
	movb	$0, 96(%rsp)
.Ltmp421:
	leaq	208(%rsp), %rbx
	movq	%rbx, %rdi
	callq	_ZN8pybind116detail12error_stringB5cxx11Ev
.Ltmp422:
# %bb.279:                              #   in Loop: Header=BB15_181 Depth=1
.Ltmp424:
	leaq	8(%rsp), %rdi
	leaq	48(%rsp), %rsi
	movq	%rbx, %rdx
	callq	_ZStplIcSt11char_traitsIcESaIcEENSt7__cxx1112basic_stringIT_T0_T1_EEOS8_S9_@PLT
.Ltmp425:
# %bb.280:                              #   in Loop: Header=BB15_181 Depth=1
	movq	16(%rsp), %r8
	movq	(%rsp), %rcx                    # 8-byte Reload
	movq	8(%rcx), %rsi
	movabsq	$9223372036854775807, %rax      # imm = 0x7FFFFFFFFFFFFFFF
	subq	%rsi, %rax
	cmpq	%r8, %rax
	jb	.LBB15_549
# %bb.281:                              # %_ZNKSt7__cxx1112basic_stringIcSt11char_traitsIcESaIcEE15_M_check_lengthEmmPKc.exit.i.i.i253
                                        #   in Loop: Header=BB15_181 Depth=1
	movq	(%rcx), %rdi
	movl	$15, %eax
	cmpq	40(%rsp), %rdi                  # 8-byte Folded Reload
	je	.LBB15_283
# %bb.282:                              # %_ZNKSt7__cxx1112basic_stringIcSt11char_traitsIcESaIcEE15_M_check_lengthEmmPKc.exit.i.i.i253
                                        #   in Loop: Header=BB15_181 Depth=1
	movq	40(%rsp), %rax                  # 8-byte Reload
	movq	(%rax), %rax
.LBB15_283:                             # %_ZNKSt7__cxx1112basic_stringIcSt11char_traitsIcESaIcEE15_M_check_lengthEmmPKc.exit.i.i.i253
                                        #   in Loop: Header=BB15_181 Depth=1
	movq	8(%rsp), %rcx
	leaq	(%rsi,%r8), %rbx
	cmpq	%rax, %rbx
	jbe	.LBB15_341
# %bb.284:                              #   in Loop: Header=BB15_181 Depth=1
.Ltmp427:
	movq	(%rsp), %rdi                    # 8-byte Reload
	xorl	%edx, %edx
	callq	_ZNSt7__cxx1112basic_stringIcSt11char_traitsIcESaIcEE9_M_mutateEmmPKcm@PLT
.Ltmp428:
	jmp	.LBB15_345
.LBB15_285:                             #   in Loop: Header=BB15_181 Depth=1
	movq	%r14, %rsi
	movq	%r13, %rdx
	callq	memcpy@PLT
	leaq	128(%rsp), %rax
	cmpq	%rax, %r14
	jne	.LBB15_257
	jmp	.LBB15_258
.LBB15_286:                             #   in Loop: Header=BB15_181 Depth=1
	addl	$-2, %ebx
	jmp	.LBB15_288
.LBB15_287:                             #   in Loop: Header=BB15_181 Depth=1
	decl	%ebx
.LBB15_288:                             # %_ZNSt8__detail14__to_chars_lenImEEjT_i.exit.i294
                                        #   in Loop: Header=BB15_181 Depth=1
	movl	%ebx, %r14d
	leaq	128(%rsp), %rax
	movq	%rax, 112(%rsp)
	cmpl	$16, %ebx
	jb	.LBB15_291
# %bb.289:                              # %.noexc.i304
                                        #   in Loop: Header=BB15_181 Depth=1
	leaq	1(%r14), %rdi
.Ltmp376:
	callq	_Znwm@PLT
.Ltmp377:
# %bb.290:                              # %.noexc305
                                        #   in Loop: Header=BB15_181 Depth=1
	movq	%rax, %r15
	movq	%rax, 112(%rsp)
	movq	%r14, 128(%rsp)
	jmp	.LBB15_293
.LBB15_291:                             #   in Loop: Header=BB15_181 Depth=1
	testl	%ebx, %ebx
	je	.LBB15_294
# %bb.292:                              #   in Loop: Header=BB15_181 Depth=1
	movq	%rax, %r15
	cmpl	$1, %ebx
	je	.LBB15_205
.LBB15_293:                             #   in Loop: Header=BB15_181 Depth=1
	movq	%r15, %rdi
	movl	$45, %esi
	movq	%r14, %rdx
	callq	memset@PLT
	jmp	.LBB15_295
.LBB15_294:                             #   in Loop: Header=BB15_181 Depth=1
	leaq	128(%rsp), %r15
	.p2align	4, 0x90
.LBB15_295:                             #   in Loop: Header=BB15_181 Depth=1
	movq	%r14, 120(%rsp)
	movb	$0, (%r15,%r14)
	movq	112(%rsp), %rcx
	movq	144(%rsp), %rsi                 # 8-byte Reload
	movq	%rsi, %rdx
	cmpq	$100, %rsi
	movabsq	$2951479051793528259, %r9       # imm = 0x28F5C28F5C28F5C3
	leaq	.L__const._ZNSt8__detail18__to_chars_10_implIjEEvPcjT_.__digits(%rip), %r10
	jb	.LBB15_298
# %bb.296:                              # %.lr.ph.preheader.i.i300
                                        #   in Loop: Header=BB15_181 Depth=1
	addl	$-2, %ebx
	.p2align	4, 0x90
.LBB15_297:                             # %.lr.ph.i13.i301
                                        #   Parent Loop BB15_181 Depth=1
                                        # =>  This Inner Loop Header: Depth=2
	leal	1(%rbx), %edi
	movq	%rsi, %rax
	shrq	$2, %rax
	mulq	%r9
	shrq	$2, %rdx
	imull	$100, %edx, %eax
	movl	%esi, %r8d
	subl	%eax, %r8d
	movzbl	(%r10,%r8,2), %eax
	movzbl	1(%r10,%r8,2), %r8d
	movb	%r8b, (%rcx,%rdi)
	movl	%ebx, %edi
	movb	%al, (%rcx,%rdi)
	addl	$-2, %ebx
	cmpq	$9999, %rsi                     # imm = 0x270F
	movq	%rdx, %rsi
	ja	.LBB15_297
.LBB15_298:                             # %._crit_edge.i.i297
                                        #   in Loop: Header=BB15_181 Depth=1
	cmpq	$10, %rdx
	jb	.LBB15_300
# %bb.299:                              #   in Loop: Header=BB15_181 Depth=1
	movzbl	(%r10,%rdx,2), %eax
	movzbl	1(%r10,%rdx,2), %edx
	movb	%dl, 1(%rcx)
	jmp	.LBB15_301
.LBB15_300:                             #   in Loop: Header=BB15_181 Depth=1
	orb	$48, %dl
	movl	%edx, %eax
.LBB15_301:                             #   in Loop: Header=BB15_181 Depth=1
	movb	%al, (%rcx)
	movq	120(%rsp), %r13
	movabsq	$9223372036854775807, %rax      # imm = 0x7FFFFFFFFFFFFFFF
	addq	$-30, %rax
	cmpq	%rax, %r13
	jg	.LBB15_567
# %bb.302:                              # %_ZNKSt7__cxx1112basic_stringIcSt11char_traitsIcESaIcEE15_M_check_lengthEmmPKc.exit.i844
                                        #   in Loop: Header=BB15_181 Depth=1
	leaq	30(%r13), %rbx
	movq	112(%rsp), %r14
	leaq	128(%rsp), %rax
	cmpq	%rax, %r14
	je	.LBB15_305
# %bb.303:                              # %_ZNKSt7__cxx1112basic_stringIcSt11char_traitsIcESaIcEE8capacityEv.exit.i845.thread
                                        #   in Loop: Header=BB15_181 Depth=1
	movq	128(%rsp), %r15
	movq	%r15, %rax
	cmpq	%r15, %rbx
	jbe	.LBB15_315
# %bb.304:                              # %_ZNKSt7__cxx1112basic_stringIcSt11char_traitsIcESaIcEE8capacityEv.exit.i910
                                        #   in Loop: Header=BB15_181 Depth=1
	cmpq	$-30, %r13
	jge	.LBB15_307
	jmp	.LBB15_566
.LBB15_305:                             # %_ZNKSt7__cxx1112basic_stringIcSt11char_traitsIcESaIcEE8capacityEv.exit.i845
                                        #   in Loop: Header=BB15_181 Depth=1
	cmpq	$15, %rbx
	jbe	.LBB15_315
# %bb.306:                              #   in Loop: Header=BB15_181 Depth=1
	movl	$15, %eax
	movq	128(%rsp), %r15
	cmpq	$-30, %r13
	jl	.LBB15_566
.LBB15_307:                             #   in Loop: Header=BB15_181 Depth=1
	addq	%rax, %rax
	movabsq	$9223372036854775807, %rbp      # imm = 0x7FFFFFFFFFFFFFFF
	cmpq	%rbp, %rax
	cmovbq	%rax, %rbp
	cmpq	%rax, %rbx
	cmovaeq	%rbx, %rbp
	movq	%rbp, %rdi
	incq	%rdi
	js	.LBB15_523
# %bb.308:                              # %_ZNSt7__cxx1112basic_stringIcSt11char_traitsIcESaIcEE9_M_createERmm.exit.i912
                                        #   in Loop: Header=BB15_181 Depth=1
.Ltmp381:
	callq	_Znwm@PLT
.Ltmp382:
# %bb.309:                              # %.noexc921
                                        #   in Loop: Header=BB15_181 Depth=1
	movq	%rax, %r12
	movups	.L.str.23+14(%rip), %xmm0
	movups	%xmm0, 14(%rax)
	movups	.L.str.23(%rip), %xmm0
	movups	%xmm0, (%rax)
	testq	%r13, %r13
	je	.LBB15_312
# %bb.310:                              #   in Loop: Header=BB15_181 Depth=1
	movq	%r12, %rdi
	addq	$30, %rdi
	cmpq	$1, %r13
	jne	.LBB15_358
# %bb.311:                              #   in Loop: Header=BB15_181 Depth=1
	movzbl	(%r14), %eax
	movb	%al, (%rdi)
.LBB15_312:                             # %_ZNSt7__cxx1112basic_stringIcSt11char_traitsIcESaIcEE7_S_copyEPcPKcm.exit27.i915
                                        #   in Loop: Header=BB15_181 Depth=1
	leaq	128(%rsp), %rax
	cmpq	%rax, %r14
	je	.LBB15_314
.LBB15_313:                             # %_ZNKSt7__cxx1112basic_stringIcSt11char_traitsIcESaIcEE11_M_is_localEv.exit.i.i916
                                        #   in Loop: Header=BB15_181 Depth=1
	incq	%r15
	movq	%r14, %rdi
	movq	%r15, %rsi
	callq	_ZdlPvm@PLT
.LBB15_314:                             # %.noexc853
                                        #   in Loop: Header=BB15_181 Depth=1
	movq	%r12, 112(%rsp)
	movq	%rbp, 128(%rsp)
	jmp	.LBB15_321
.LBB15_315:                             #   in Loop: Header=BB15_181 Depth=1
	leaq	.L.str.23(%rip), %rdx
	cmpq	%rdx, %r14
	seta	%al
	leaq	(%r14,%r13), %rcx
	cmpq	%rdx, %rcx
	setb	%cl
	orb	%al, %cl
	cmpb	$1, %cl
	jne	.LBB15_360
# %bb.316:                              #   in Loop: Header=BB15_181 Depth=1
	testq	%r13, %r13
	je	.LBB15_320
# %bb.317:                              #   in Loop: Header=BB15_181 Depth=1
	cmpq	$1, %r13
	jne	.LBB15_319
# %bb.318:                              #   in Loop: Header=BB15_181 Depth=1
	movzbl	(%r14), %eax
	movb	%al, 30(%r14)
	jmp	.LBB15_320
.LBB15_319:                             #   in Loop: Header=BB15_181 Depth=1
	leaq	30(%r14), %rdi
	movq	%r14, %rsi
	movq	%r13, %rdx
	callq	memmove@PLT
.LBB15_320:                             # %_ZNSt7__cxx1112basic_stringIcSt11char_traitsIcESaIcEE7_S_moveEPcPKcm.exit.i850
                                        #   in Loop: Header=BB15_181 Depth=1
	movups	.L.str.23+14(%rip), %xmm0
	movups	%xmm0, 14(%r14)
	movups	.L.str.23(%rip), %xmm0
	movups	%xmm0, (%r14)
.LBB15_321:                             # %.noexc310
                                        #   in Loop: Header=BB15_181 Depth=1
	movq	%rbx, 120(%rsp)
	movq	112(%rsp), %rax
	movb	$0, (%rax,%rbx)
	leaq	96(%rsp), %r15
	movq	%r15, 80(%rsp)
	movq	112(%rsp), %rax
	leaq	128(%rsp), %rsi
	cmpq	%rsi, %rax
	je	.LBB15_325
# %bb.322:                              #   in Loop: Header=BB15_181 Depth=1
	movq	%rax, 80(%rsp)
	movq	120(%rsp), %r14
	movq	120(%rsp), %rcx
	movq	%rcx, 88(%rsp)
	movq	128(%rsp), %rcx
	movq	%rcx, 96(%rsp)
	movq	%rsi, 112(%rsp)
	movq	$0, 120(%rsp)
	movb	$0, 128(%rsp)
	movabsq	$9223372036854775807, %rcx      # imm = 0x7FFFFFFFFFFFFFFF
	addq	$-3, %rcx
	cmpq	%rcx, %r14
	jg	.LBB15_560
# %bb.323:                              # %_ZNKSt7__cxx1112basic_stringIcSt11char_traitsIcESaIcEE15_M_check_lengthEmmPKc.exit.i.i312
                                        #   in Loop: Header=BB15_181 Depth=1
	leaq	3(%r14), %rbx
	leaq	96(%rsp), %rcx
	cmpq	%rcx, %rax
	leaq	24(%rsp), %r15
	je	.LBB15_326
# %bb.324:                              #   in Loop: Header=BB15_181 Depth=1
	xorl	%ecx, %ecx
	movl	$15, %edx
	testb	%cl, %cl
	je	.LBB15_327
	jmp	.LBB15_328
.LBB15_325:                             # %_ZNKSt7__cxx1112basic_stringIcSt11char_traitsIcESaIcEE15_M_check_lengthEmmPKc.exit.i.i312.thread
                                        #   in Loop: Header=BB15_181 Depth=1
	movq	120(%rsp), %r14
	leaq	1(%r14), %rdx
	movq	%r15, %rdi
	callq	memcpy@PLT
	movq	%r14, 88(%rsp)
	movq	$0, 120(%rsp)
	movb	$0, 128(%rsp)
	leaq	3(%r14), %rbx
	movq	%r15, %rax
	leaq	24(%rsp), %r15
.LBB15_326:                             #   in Loop: Header=BB15_181 Depth=1
	movb	$1, %cl
	movl	$15, %edx
	testb	%cl, %cl
	jne	.LBB15_328
.LBB15_327:                             # %_ZNKSt7__cxx1112basic_stringIcSt11char_traitsIcESaIcEE8capacityEv.exit.i.i.i313
                                        #   in Loop: Header=BB15_181 Depth=1
	movq	96(%rsp), %rdx
.LBB15_328:                             # %_ZNKSt7__cxx1112basic_stringIcSt11char_traitsIcESaIcEE8capacityEv.exit.i.i.i313
                                        #   in Loop: Header=BB15_181 Depth=1
	cmpq	%rdx, %rbx
	jbe	.LBB15_330
# %bb.329:                              #   in Loop: Header=BB15_181 Depth=1
.Ltmp387:
	movl	$3, %r8d
	leaq	80(%rsp), %rdi
	movq	%r14, %rsi
	xorl	%edx, %edx
	leaq	.L.str.22(%rip), %rcx
	callq	_ZNSt7__cxx1112basic_stringIcSt11char_traitsIcESaIcEE9_M_mutateEmmPKcm@PLT
.Ltmp388:
	jmp	.LBB15_331
.LBB15_330:                             #   in Loop: Header=BB15_181 Depth=1
	movb	$32, 2(%rax,%r14)
	movw	$14941, (%rax,%r14)             # imm = 0x3A5D
.LBB15_331:                             # %_ZNSt7__cxx1112basic_stringIcSt11char_traitsIcESaIcEE6appendEPKc.exit.i317
                                        #   in Loop: Header=BB15_181 Depth=1
	movq	%rbx, 88(%rsp)
	movq	80(%rsp), %rax
	movb	$0, (%rax,%rbx)
	leaq	64(%rsp), %rdi
	movq	%rdi, 48(%rsp)
	movq	80(%rsp), %rax
	leaq	96(%rsp), %r14
	cmpq	%r14, %rax
	je	.LBB15_333
# %bb.332:                              # %_ZNKSt7__cxx1112basic_stringIcSt11char_traitsIcESaIcEE11_M_is_localEv.exit.i.i318
                                        #   in Loop: Header=BB15_181 Depth=1
	movq	%rax, 48(%rsp)
	movq	88(%rsp), %rbx
	movq	96(%rsp), %rax
	movq	%rax, 64(%rsp)
	jmp	.LBB15_334
.LBB15_333:                             #   in Loop: Header=BB15_181 Depth=1
	movq	88(%rsp), %rbx
	leaq	1(%rbx), %rdx
	movq	%r14, %rsi
	callq	memcpy@PLT
.LBB15_334:                             #   in Loop: Header=BB15_181 Depth=1
	movq	%rbx, 56(%rsp)
	movq	%r14, 80(%rsp)
	movq	$0, 88(%rsp)
	movb	$0, 96(%rsp)
.Ltmp390:
	leaq	208(%rsp), %rbx
	movq	%rbx, %rdi
	callq	_ZN8pybind116detail12error_stringB5cxx11Ev
.Ltmp391:
# %bb.335:                              #   in Loop: Header=BB15_181 Depth=1
.Ltmp393:
	leaq	8(%rsp), %rdi
	leaq	48(%rsp), %rsi
	movq	%rbx, %rdx
	callq	_ZStplIcSt11char_traitsIcESaIcEENSt7__cxx1112basic_stringIT_T0_T1_EEOS8_S9_@PLT
.Ltmp394:
# %bb.336:                              #   in Loop: Header=BB15_181 Depth=1
	movq	16(%rsp), %r8
	movq	(%rsp), %rcx                    # 8-byte Reload
	movq	8(%rcx), %rsi
	movabsq	$9223372036854775807, %rax      # imm = 0x7FFFFFFFFFFFFFFF
	subq	%rsi, %rax
	cmpq	%r8, %rax
	jb	.LBB15_553
# %bb.337:                              # %_ZNKSt7__cxx1112basic_stringIcSt11char_traitsIcESaIcEE15_M_check_lengthEmmPKc.exit.i.i.i323
                                        #   in Loop: Header=BB15_181 Depth=1
	movq	(%rcx), %rdi
	movl	$15, %eax
	cmpq	40(%rsp), %rdi                  # 8-byte Folded Reload
	je	.LBB15_339
# %bb.338:                              # %_ZNKSt7__cxx1112basic_stringIcSt11char_traitsIcESaIcEE15_M_check_lengthEmmPKc.exit.i.i.i323
                                        #   in Loop: Header=BB15_181 Depth=1
	movq	40(%rsp), %rax                  # 8-byte Reload
	movq	(%rax), %rax
.LBB15_339:                             # %_ZNKSt7__cxx1112basic_stringIcSt11char_traitsIcESaIcEE15_M_check_lengthEmmPKc.exit.i.i.i323
                                        #   in Loop: Header=BB15_181 Depth=1
	movq	8(%rsp), %rcx
	leaq	(%rsi,%r8), %rbx
	cmpq	%rax, %rbx
	jbe	.LBB15_341
# %bb.340:                              #   in Loop: Header=BB15_181 Depth=1
.Ltmp396:
	movq	(%rsp), %rdi                    # 8-byte Reload
	xorl	%edx, %edx
	callq	_ZNSt7__cxx1112basic_stringIcSt11char_traitsIcESaIcEE9_M_mutateEmmPKcm@PLT
.Ltmp397:
	jmp	.LBB15_345
	.p2align	4, 0x90
.LBB15_341:                             #   in Loop: Header=BB15_181 Depth=1
	testq	%r8, %r8
	je	.LBB15_345
# %bb.342:                              #   in Loop: Header=BB15_181 Depth=1
	addq	%rsi, %rdi
	cmpq	$1, %r8
	jne	.LBB15_344
# %bb.343:                              #   in Loop: Header=BB15_181 Depth=1
	movzbl	(%rcx), %eax
	movb	%al, (%rdi)
	jmp	.LBB15_345
.LBB15_344:                             #   in Loop: Header=BB15_181 Depth=1
	movq	%rcx, %rsi
	movq	%r8, %rdx
	callq	memcpy@PLT
	.p2align	4, 0x90
.LBB15_345:                             #   in Loop: Header=BB15_181 Depth=1
	movq	(%rsp), %rax                    # 8-byte Reload
	movq	%rbx, 8(%rax)
	movq	(%rax), %rax
	movb	$0, (%rax,%rbx)
	movq	8(%rsp), %rdi
	leaq	24(%rsp), %rax
	cmpq	%rax, %rdi
	je	.LBB15_347
# %bb.346:                              # %_ZNKSt7__cxx1112basic_stringIcSt11char_traitsIcESaIcEE11_M_is_localEv.exit.i.i261
                                        #   in Loop: Header=BB15_181 Depth=1
	movq	24(%rsp), %rsi
	incq	%rsi
	callq	_ZdlPvm@PLT
.LBB15_347:                             # %_ZNSt7__cxx1112basic_stringIcSt11char_traitsIcESaIcEED2Ev.exit263
                                        #   in Loop: Header=BB15_181 Depth=1
	movq	208(%rsp), %rdi
	leaq	224(%rsp), %rax
	cmpq	%rax, %rdi
	je	.LBB15_349
# %bb.348:                              # %_ZNKSt7__cxx1112basic_stringIcSt11char_traitsIcESaIcEE11_M_is_localEv.exit.i.i264
                                        #   in Loop: Header=BB15_181 Depth=1
	movq	224(%rsp), %rsi
	incq	%rsi
	callq	_ZdlPvm@PLT
.LBB15_349:                             # %_ZNSt7__cxx1112basic_stringIcSt11char_traitsIcESaIcEED2Ev.exit266
                                        #   in Loop: Header=BB15_181 Depth=1
	movq	48(%rsp), %rdi
	leaq	64(%rsp), %rax
	cmpq	%rax, %rdi
	je	.LBB15_351
# %bb.350:                              # %_ZNKSt7__cxx1112basic_stringIcSt11char_traitsIcESaIcEE11_M_is_localEv.exit.i.i267
                                        #   in Loop: Header=BB15_181 Depth=1
	movq	64(%rsp), %rsi
	incq	%rsi
	callq	_ZdlPvm@PLT
.LBB15_351:                             # %_ZNSt7__cxx1112basic_stringIcSt11char_traitsIcESaIcEED2Ev.exit269
                                        #   in Loop: Header=BB15_181 Depth=1
	movq	80(%rsp), %rdi
	leaq	96(%rsp), %rax
	cmpq	%rax, %rdi
	je	.LBB15_353
# %bb.352:                              # %_ZNKSt7__cxx1112basic_stringIcSt11char_traitsIcESaIcEE11_M_is_localEv.exit.i.i270
                                        #   in Loop: Header=BB15_181 Depth=1
	movq	96(%rsp), %rsi
	incq	%rsi
	callq	_ZdlPvm@PLT
.LBB15_353:                             # %_ZNSt7__cxx1112basic_stringIcSt11char_traitsIcESaIcEED2Ev.exit272
                                        #   in Loop: Header=BB15_181 Depth=1
	movq	112(%rsp), %rdi
	leaq	128(%rsp), %rax
	cmpq	%rax, %rdi
	je	.LBB15_356
# %bb.354:                              # %_ZNKSt7__cxx1112basic_stringIcSt11char_traitsIcESaIcEE11_M_is_localEv.exit.i.i273
                                        #   in Loop: Header=BB15_181 Depth=1
	movq	128(%rsp), %rsi
.LBB15_355:                             #   in Loop: Header=BB15_181 Depth=1
	incq	%rsi
	callq	_ZdlPvm@PLT
.LBB15_356:                             #   in Loop: Header=BB15_181 Depth=1
.Ltmp430:
	leaq	264(%rsp), %rdi
	callq	_ZNKR8pybind116handle7dec_refEv
.Ltmp431:
# %bb.357:                              # %_ZN8pybind116objectD2Ev.exit386
                                        #   in Loop: Header=BB15_181 Depth=1
	movq	144(%rsp), %rcx                 # 8-byte Reload
	incq	%rcx
	movq	%rcx, 144(%rsp)                 # 8-byte Spill
	cmpq	184(%rsp), %rcx                 # 8-byte Folded Reload
	jne	.LBB15_181
	jmp	.LBB15_379
.LBB15_358:                             #   in Loop: Header=BB15_181 Depth=1
	movq	%r14, %rsi
	movq	%r13, %rdx
	callq	memcpy@PLT
	leaq	128(%rsp), %rax
	cmpq	%rax, %r14
	jne	.LBB15_313
	jmp	.LBB15_314
.LBB15_359:                             #   in Loop: Header=BB15_181 Depth=1
.Ltmp410:
	movl	$29, %r8d
	leaq	112(%rsp), %rdi
	movq	%r14, %rsi
	xorl	%edx, %edx
	leaq	.L.str.21(%rip), %rcx
	movq	%r13, %r9
	callq	_ZNSt7__cxx1112basic_stringIcSt11char_traitsIcESaIcEE15_M_replace_coldEPcmPKcmm@PLT
.Ltmp411:
	jmp	.LBB15_265
.LBB15_360:                             #   in Loop: Header=BB15_181 Depth=1
.Ltmp379:
	movl	$30, %r8d
	leaq	112(%rsp), %rdi
	movq	%r14, %rsi
	xorl	%edx, %edx
	leaq	.L.str.23(%rip), %rcx
	movq	%r13, %r9
	callq	_ZNSt7__cxx1112basic_stringIcSt11char_traitsIcESaIcEE15_M_replace_coldEPcmPKcmm@PLT
.Ltmp380:
	jmp	.LBB15_321
.LBB15_361:
	leaq	35(%r15), %rdi
	movq	%r15, %rsi
	movq	%r12, %rdx
	callq	memmove@PLT
.LBB15_362:                             # %_ZNSt7__cxx1112basic_stringIcSt11char_traitsIcESaIcEE7_S_moveEPcPKcm.exit.i
	movups	.L.str.16+16(%rip), %xmm0
	movups	%xmm0, 16(%r15)
	movups	.L.str.16(%rip), %xmm0
	movups	%xmm0, (%r15)
	movl	$540682591, 31(%r15)            # imm = 0x203A295F
.LBB15_363:                             # %.noexc168
	movq	%rbx, 56(%rsp)
	movb	$0, (%r15,%rbx)
	leaq	24(%rsp), %r15
	movq	%r15, 8(%rsp)
	movq	48(%rsp), %rcx
	cmpq	%r14, %rcx
	je	.LBB15_365
# %bb.364:                              # %_ZNKSt7__cxx1112basic_stringIcSt11char_traitsIcESaIcEE11_M_is_localEv.exit.i.i166
	movq	%rcx, 8(%rsp)
	movq	56(%rsp), %r12
	movq	64(%rsp), %rax
	movq	%rax, 24(%rsp)
	jmp	.LBB15_366
.LBB15_365:
	movq	56(%rsp), %r12
	leaq	1(%r12), %rdx
	movq	%r15, %rdi
	movq	%r14, %rsi
	callq	memcpy@PLT
	movq	%r15, %rcx
.LBB15_366:
	movq	%r12, 16(%rsp)
	movq	%r14, 48(%rsp)
	movq	$0, 56(%rsp)
	movb	$0, 64(%rsp)
	movq	(%rsp), %rdx                    # 8-byte Reload
	movq	8(%rdx), %rsi
	movabsq	$9223372036854775807, %rax      # imm = 0x7FFFFFFFFFFFFFFF
	subq	%rsi, %rax
	cmpq	%r12, %rax
	jb	.LBB15_580
# %bb.367:                              # %_ZNKSt7__cxx1112basic_stringIcSt11char_traitsIcESaIcEE15_M_check_lengthEmmPKc.exit.i.i.i
	leaq	(%rsi,%r12), %rbx
	movq	(%rdx), %rdi
	movl	$15, %eax
	cmpq	40(%rsp), %rdi                  # 8-byte Folded Reload
	je	.LBB15_369
# %bb.368:                              # %_ZNKSt7__cxx1112basic_stringIcSt11char_traitsIcESaIcEE15_M_check_lengthEmmPKc.exit.i.i.i
	movq	40(%rsp), %rax                  # 8-byte Reload
	movq	(%rax), %rax
.LBB15_369:                             # %_ZNKSt7__cxx1112basic_stringIcSt11char_traitsIcESaIcEE15_M_check_lengthEmmPKc.exit.i.i.i
	cmpq	%rax, %rbx
	jbe	.LBB15_371
# %bb.370:
.Ltmp462:
	movq	(%rsp), %rdi                    # 8-byte Reload
	xorl	%edx, %edx
	movq	%r12, %r8
	callq	_ZNSt7__cxx1112basic_stringIcSt11char_traitsIcESaIcEE9_M_mutateEmmPKcm@PLT
.Ltmp463:
	jmp	.LBB15_375
.LBB15_371:
	testq	%r12, %r12
	je	.LBB15_375
# %bb.372:
	addq	%rsi, %rdi
	cmpq	$1, %r12
	jne	.LBB15_374
# %bb.373:
	movzbl	(%rcx), %eax
	movb	%al, (%rdi)
	jmp	.LBB15_375
.LBB15_374:
	movq	%rcx, %rsi
	movq	%r12, %rdx
	callq	memcpy@PLT
.LBB15_375:
	movq	(%rsp), %rax                    # 8-byte Reload
	movq	%rbx, 8(%rax)
	movq	(%rax), %rax
	movb	$0, (%rax,%rbx)
	movq	8(%rsp), %rdi
	cmpq	%r15, %rdi
	je	.LBB15_377
# %bb.376:                              # %_ZNKSt7__cxx1112basic_stringIcSt11char_traitsIcESaIcEE11_M_is_localEv.exit.i.i171
	movq	24(%rsp), %rsi
	incq	%rsi
	callq	_ZdlPvm@PLT
.LBB15_377:                             # %_ZNSt7__cxx1112basic_stringIcSt11char_traitsIcESaIcEED2Ev.exit173
	movq	48(%rsp), %rdi
	cmpq	%r14, %rdi
	je	.LBB15_379
# %bb.378:                              # %_ZNKSt7__cxx1112basic_stringIcSt11char_traitsIcESaIcEE11_M_is_localEv.exit.i.i174
	movq	64(%rsp), %rsi
	incq	%rsi
	callq	_ZdlPvm@PLT
.LBB15_379:                             # %.loopexit
.Ltmp481:
	leaq	200(%rsp), %rdi
	callq	_ZNKR8pybind116handle7dec_refEv
.Ltmp482:
# %bb.380:                              # %_ZN8pybind116objectD2Ev.exit388
.Ltmp484:
	leaq	272(%rsp), %rdi
	callq	_ZNKR8pybind116handle7dec_refEv
.Ltmp485:
# %bb.381:                              # %_ZN8pybind116objectD2Ev.exit389
	movq	(%rsp), %rbx                    # 8-byte Reload
	cmpq	$0, 8(%rbx)
	je	.LBB15_382
.LBB15_18:                              # %_ZNSt7__cxx1112basic_stringIcSt11char_traitsIcESaIcEEaSEPKc.exit395
	movq	240(%rsp), %rax                 # 8-byte Reload
	movq	16(%rax), %rax
	testq	%rax, %rax
	je	.LBB15_397
	.p2align	4, 0x90
.LBB15_388:                             # %.preheader550
                                        # =>This Inner Loop Header: Depth=1
	movq	%rax, %rcx
	movq	16(%rax), %rax
	testq	%rax, %rax
	jne	.LBB15_388
# %bb.389:
	movq	24(%rcx), %r12
	testq	%r12, %r12
	je	.LBB15_392
# %bb.390:
	movl	(%r12), %eax
	incl	%eax
	je	.LBB15_392
# %bb.391:
	movl	%eax, (%r12)
.LBB15_392:                             # %_ZL10Py_XINCREFP7_object.exit
	movq	(%rsp), %rcx                    # 8-byte Reload
	movq	8(%rcx), %rsi
	movabsq	$9223372036854775807, %rax      # imm = 0x7FFFFFFFFFFFFFFF
	addq	$-6, %rax
	cmpq	%rax, %rsi
	jg	.LBB15_562
# %bb.393:                              # %_ZNKSt7__cxx1112basic_stringIcSt11char_traitsIcESaIcEE15_M_check_lengthEmmPKc.exit.i.i397
	leaq	6(%rsi), %rbx
	movq	(%rcx), %rax
	movl	$15, %ecx
	cmpq	40(%rsp), %rax                  # 8-byte Folded Reload
	je	.LBB15_395
# %bb.394:                              # %_ZNKSt7__cxx1112basic_stringIcSt11char_traitsIcESaIcEE15_M_check_lengthEmmPKc.exit.i.i397
	movq	40(%rsp), %rcx                  # 8-byte Reload
	movq	(%rcx), %rcx
.LBB15_395:                             # %_ZNKSt7__cxx1112basic_stringIcSt11char_traitsIcESaIcEE15_M_check_lengthEmmPKc.exit.i.i397
	cmpq	%rcx, %rbx
	jbe	.LBB15_404
# %bb.396:
.Ltmp494:
	leaq	.L.str.26(%rip), %rcx
	movl	$6, %r8d
	movq	(%rsp), %r14                    # 8-byte Reload
	movq	%r14, %rdi
	xorl	%edx, %edx
	callq	_ZNSt7__cxx1112basic_stringIcSt11char_traitsIcESaIcEE9_M_mutateEmmPKcm@PLT
.Ltmp495:
	jmp	.LBB15_405
.LBB15_397:                             # %.thread
	cmpq	$0, 160(%rsp)
	je	.LBB15_516
# %bb.398:                              # %.thread115
	movq	(%rsp), %rcx                    # 8-byte Reload
	movq	(%rcx), %rax
	movq	8(%rcx), %r14
	leaq	1(%r14), %rbx
	movl	$15, %ecx
	cmpq	40(%rsp), %rax                  # 8-byte Folded Reload
	je	.LBB15_400
# %bb.399:                              # %.thread115
	movq	40(%rsp), %rcx                  # 8-byte Reload
	movq	(%rcx), %rcx
.LBB15_400:                             # %.thread115
	cmpq	%rcx, %rbx
	jbe	.LBB15_403
# %bb.401:
.Ltmp550:
	movl	$1, %r8d
	movq	(%rsp), %r15                    # 8-byte Reload
	movq	%r15, %rdi
	movq	%r14, %rsi
	xorl	%edx, %edx
	xorl	%ecx, %ecx
	callq	_ZNSt7__cxx1112basic_stringIcSt11char_traitsIcESaIcEE9_M_mutateEmmPKcm@PLT
.Ltmp551:
# %bb.402:                              # %.noexc493
	movq	(%r15), %rax
.LBB15_403:                             # %_ZNSt7__cxx1112basic_stringIcSt11char_traitsIcESaIcEEpLEc.exit494
	movb	$10, (%rax,%r14)
	movq	(%rsp), %rax                    # 8-byte Reload
	movq	%rbx, 8(%rax)
	movq	(%rax), %rax
	movb	$0, 1(%rax,%r14)
	movq	160(%rsp), %r8
	jmp	.LBB15_504
.LBB15_404:
	movw	$2618, 4(%rax,%rsi)             # imm = 0xA3A
	movl	$1950419466, (%rax,%rsi)        # imm = 0x74410A0A
	movq	(%rsp), %r14                    # 8-byte Reload
.LBB15_405:                             # %_ZNSt7__cxx1112basic_stringIcSt11char_traitsIcESaIcEEpLEPKc.exit
	movq	%rbx, 8(%r14)
	movq	(%r14), %rax
	movb	$0, (%rax,%rbx)
	testq	%r12, %r12
	je	.LBB15_503
# %bb.406:                              # %.lr.ph755
	leaq	24(%rsp), %rbp
	movabsq	$9223372036854775807, %rax      # imm = 0x7FFFFFFFFFFFFFFF
	decq	%rax
	movq	%rax, 184(%rsp)                 # 8-byte Spill
	jmp	.LBB15_408
	.p2align	4, 0x90
.LBB15_407:                             # %_ZL9Py_DECREFP7_object.exit122
                                        #   in Loop: Header=BB15_408 Depth=1
	movq	%r15, %r12
	testq	%r15, %r15
	je	.LBB15_503
.LBB15_408:                             # =>This Loop Header: Depth=1
                                        #     Child Loop BB15_438 Depth 2
                                        #     Child Loop BB15_454 Depth 2
.Ltmp496:
	movq	%r12, %rdi
	callq	PyFrame_GetCode@PLT
.Ltmp497:
# %bb.409:                              #   in Loop: Header=BB15_408 Depth=1
.Ltmp499:
	movq	%rax, %rbx
	movq	%r12, 144(%rsp)                 # 8-byte Spill
	movq	%r12, %rdi
	callq	PyFrame_GetLineNumber@PLT
.Ltmp500:
# %bb.410:                              #   in Loop: Header=BB15_408 Depth=1
	movl	%eax, %r12d
	movq	(%rsp), %rcx                    # 8-byte Reload
	movq	8(%rcx), %rsi
	movq	%rsi, %rax
	andq	$-2, %rax
	cmpq	184(%rsp), %rax                 # 8-byte Folded Reload
	je	.LBB15_534
# %bb.411:                              # %_ZNKSt7__cxx1112basic_stringIcSt11char_traitsIcESaIcEE15_M_check_lengthEmmPKc.exit.i.i405
                                        #   in Loop: Header=BB15_408 Depth=1
	movq	(%rcx), %rax
	movl	$15, %ecx
	cmpq	40(%rsp), %rax                  # 8-byte Folded Reload
	je	.LBB15_413
# %bb.412:                              # %_ZNKSt7__cxx1112basic_stringIcSt11char_traitsIcESaIcEE15_M_check_lengthEmmPKc.exit.i.i405
                                        #   in Loop: Header=BB15_408 Depth=1
	movq	40(%rsp), %rcx                  # 8-byte Reload
	movq	(%rcx), %rcx
.LBB15_413:                             # %_ZNKSt7__cxx1112basic_stringIcSt11char_traitsIcESaIcEE15_M_check_lengthEmmPKc.exit.i.i405
                                        #   in Loop: Header=BB15_408 Depth=1
	leaq	2(%rsi), %r14
	cmpq	%rcx, %r14
	jbe	.LBB15_415
# %bb.414:                              #   in Loop: Header=BB15_408 Depth=1
.Ltmp501:
	movl	$2, %r8d
	movq	(%rsp), %rdi                    # 8-byte Reload
	xorl	%edx, %edx
	leaq	.L.str.27(%rip), %rcx
	callq	_ZNSt7__cxx1112basic_stringIcSt11char_traitsIcESaIcEE9_M_mutateEmmPKcm@PLT
.Ltmp502:
	jmp	.LBB15_416
	.p2align	4, 0x90
.LBB15_415:                             #   in Loop: Header=BB15_408 Depth=1
	movw	$8224, (%rax,%rsi)              # imm = 0x2020
.LBB15_416:                             #   in Loop: Header=BB15_408 Depth=1
	movq	(%rsp), %rax                    # 8-byte Reload
	movq	%r14, 8(%rax)
	movq	(%rax), %rax
	movb	$0, (%rax,%r14)
	movq	112(%rbx), %rax
	movq	%rax, 80(%rsp)
	movq	%rbp, 8(%rsp)
	movq	$0, 16(%rsp)
	movb	$0, 24(%rsp)
.Ltmp503:
	leaq	8(%rsp), %rdi
	leaq	80(%rsp), %rsi
	callq	_ZN8pybind116detail9load_typeINSt7__cxx1112basic_stringIcSt11char_traitsIcESaIcEEEvEERNS0_11type_casterIT_T0_EESC_RKNS_6handleE
.Ltmp504:
# %bb.417:                              # %_ZN8pybind116detail9load_typeINSt7__cxx1112basic_stringIcSt11char_traitsIcESaIcEEEEENS0_11type_casterINS0_14intrinsic_typeIT_E4typeEvEERKNS_6handleE.exit.i.i
                                        #   in Loop: Header=BB15_408 Depth=1
	leaq	64(%rsp), %rdi
	movq	%rdi, 48(%rsp)
	movq	8(%rsp), %rcx
	cmpq	%rbp, %rcx
	je	.LBB15_419
# %bb.418:                              # %_ZNKSt7__cxx1112basic_stringIcSt11char_traitsIcESaIcEE11_M_is_localEv.exit.i.i.i
                                        #   in Loop: Header=BB15_408 Depth=1
	movq	%rcx, 48(%rsp)
	movq	16(%rsp), %r13
	movq	24(%rsp), %rax
	movq	%rax, 64(%rsp)
	jmp	.LBB15_420
	.p2align	4, 0x90
.LBB15_419:                             #   in Loop: Header=BB15_408 Depth=1
	movq	16(%rsp), %r13
	leaq	1(%r13), %rdx
	movq	%rbp, %rsi
	movq	%rdi, %r14
	callq	memcpy@PLT
	movq	%r14, %rcx
.LBB15_420:                             #   in Loop: Header=BB15_408 Depth=1
	movq	%r13, 56(%rsp)
	movq	(%rsp), %rdx                    # 8-byte Reload
	movq	8(%rdx), %rsi
	movabsq	$9223372036854775807, %rax      # imm = 0x7FFFFFFFFFFFFFFF
	subq	%rsi, %rax
	cmpq	%r13, %rax
	jb	.LBB15_538
# %bb.421:                              # %_ZNKSt7__cxx1112basic_stringIcSt11char_traitsIcESaIcEE15_M_check_lengthEmmPKc.exit.i.i.i414
                                        #   in Loop: Header=BB15_408 Depth=1
	movq	(%rdx), %rdi
	movl	$15, %eax
	cmpq	40(%rsp), %rdi                  # 8-byte Folded Reload
	je	.LBB15_423
# %bb.422:                              # %_ZNKSt7__cxx1112basic_stringIcSt11char_traitsIcESaIcEE15_M_check_lengthEmmPKc.exit.i.i.i414
                                        #   in Loop: Header=BB15_408 Depth=1
	movq	40(%rsp), %rax                  # 8-byte Reload
	movq	(%rax), %rax
.LBB15_423:                             # %_ZNKSt7__cxx1112basic_stringIcSt11char_traitsIcESaIcEE15_M_check_lengthEmmPKc.exit.i.i.i414
                                        #   in Loop: Header=BB15_408 Depth=1
	leaq	(%rsi,%r13), %r14
	cmpq	%rax, %r14
	jbe	.LBB15_425
# %bb.424:                              #   in Loop: Header=BB15_408 Depth=1
.Ltmp506:
	movq	(%rsp), %rdi                    # 8-byte Reload
	xorl	%edx, %edx
	movq	%r13, %r8
	callq	_ZNSt7__cxx1112basic_stringIcSt11char_traitsIcESaIcEE9_M_mutateEmmPKcm@PLT
.Ltmp507:
	jmp	.LBB15_429
	.p2align	4, 0x90
.LBB15_425:                             #   in Loop: Header=BB15_408 Depth=1
	testq	%r13, %r13
	je	.LBB15_429
# %bb.426:                              #   in Loop: Header=BB15_408 Depth=1
	addq	%rsi, %rdi
	cmpq	$1, %r13
	jne	.LBB15_428
# %bb.427:                              #   in Loop: Header=BB15_408 Depth=1
	movzbl	(%rcx), %eax
	movb	%al, (%rdi)
	jmp	.LBB15_429
.LBB15_428:                             #   in Loop: Header=BB15_408 Depth=1
	movq	%rcx, %rsi
	movq	%r13, %rdx
	callq	memcpy@PLT
	.p2align	4, 0x90
.LBB15_429:                             #   in Loop: Header=BB15_408 Depth=1
	movq	(%rsp), %rax                    # 8-byte Reload
	movq	%r14, 8(%rax)
	movq	(%rax), %rax
	movb	$0, (%rax,%r14)
	movq	48(%rsp), %rdi
	leaq	64(%rsp), %rax
	cmpq	%rax, %rdi
	je	.LBB15_431
# %bb.430:                              # %_ZNKSt7__cxx1112basic_stringIcSt11char_traitsIcESaIcEE11_M_is_localEv.exit.i.i422
                                        #   in Loop: Header=BB15_408 Depth=1
	movq	64(%rsp), %rsi
	incq	%rsi
	callq	_ZdlPvm@PLT
.LBB15_431:                             # %_ZNSt7__cxx1112basic_stringIcSt11char_traitsIcESaIcEED2Ev.exit424
                                        #   in Loop: Header=BB15_408 Depth=1
	movq	(%rsp), %rcx                    # 8-byte Reload
	movq	(%rcx), %rax
	movq	8(%rcx), %r13
	movl	$15, %ecx
	cmpq	40(%rsp), %rax                  # 8-byte Folded Reload
	je	.LBB15_433
# %bb.432:                              # %_ZNSt7__cxx1112basic_stringIcSt11char_traitsIcESaIcEED2Ev.exit424
                                        #   in Loop: Header=BB15_408 Depth=1
	movq	40(%rsp), %rcx                  # 8-byte Reload
	movq	(%rcx), %rcx
.LBB15_433:                             # %_ZNSt7__cxx1112basic_stringIcSt11char_traitsIcESaIcEED2Ev.exit424
                                        #   in Loop: Header=BB15_408 Depth=1
	leaq	1(%r13), %r14
	cmpq	%rcx, %r14
	jbe	.LBB15_436
# %bb.434:                              #   in Loop: Header=BB15_408 Depth=1
.Ltmp509:
	movl	$1, %r8d
	movq	(%rsp), %rdi                    # 8-byte Reload
	movq	%r13, %rsi
	xorl	%edx, %edx
	xorl	%ecx, %ecx
	callq	_ZNSt7__cxx1112basic_stringIcSt11char_traitsIcESaIcEE9_M_mutateEmmPKcm@PLT
.Ltmp510:
# %bb.435:                              # %.noexc427
                                        #   in Loop: Header=BB15_408 Depth=1
	movq	(%rsp), %rax                    # 8-byte Reload
	movq	(%rax), %rax
.LBB15_436:                             #   in Loop: Header=BB15_408 Depth=1
	movb	$40, (%rax,%r13)
	movq	(%rsp), %rax                    # 8-byte Reload
	movq	%r14, 8(%rax)
	movq	(%rax), %rax
	movb	$0, 1(%rax,%r13)
	movl	%r12d, %ebp
	negl	%ebp
	cmovsl	%r12d, %ebp
	movl	$1, %r14d
	cmpl	$10, %ebp
	jb	.LBB15_445
# %bb.437:                              # %.lr.ph.i.i429.preheader
                                        #   in Loop: Header=BB15_408 Depth=1
	movl	$4, %r14d
	movl	%ebp, %eax
	.p2align	4, 0x90
.LBB15_438:                             # %.lr.ph.i.i429
                                        #   Parent Loop BB15_408 Depth=1
                                        # =>  This Inner Loop Header: Depth=2
	cmpl	$99, %eax
	jbe	.LBB15_443
# %bb.439:                              #   in Loop: Header=BB15_438 Depth=2
	cmpl	$999, %eax                      # imm = 0x3E7
	jbe	.LBB15_444
# %bb.440:                              #   in Loop: Header=BB15_438 Depth=2
	cmpl	$10000, %eax                    # imm = 0x2710
	jb	.LBB15_445
# %bb.441:                              #   in Loop: Header=BB15_438 Depth=2
	movl	%eax, %ecx
	movl	$3518437209, %edx               # imm = 0xD1B71759
	imulq	%rdx, %rcx
	shrq	$45, %rcx
	addl	$4, %r14d
	cmpl	$99999, %eax                    # imm = 0x1869F
	movl	%ecx, %eax
	ja	.LBB15_438
# %bb.442:                              # %_ZNSt8__detail14__to_chars_lenIjEEjT_i.exit.i.loopexit
                                        #   in Loop: Header=BB15_408 Depth=1
	addl	$-3, %r14d
	jmp	.LBB15_445
.LBB15_443:                             #   in Loop: Header=BB15_408 Depth=1
	addl	$-2, %r14d
	jmp	.LBB15_445
.LBB15_444:                             #   in Loop: Header=BB15_408 Depth=1
	decl	%r14d
	.p2align	4, 0x90
.LBB15_445:                             # %_ZNSt8__detail14__to_chars_lenIjEEjT_i.exit.i
                                        #   in Loop: Header=BB15_408 Depth=1
	shrl	$31, %r12d
	leal	(%r14,%r12), %r13d
	leaq	24(%rsp), %r15
	movq	%r15, 8(%rsp)
	cmpl	$16, %r13d
	jb	.LBB15_448
# %bb.446:                              #   in Loop: Header=BB15_408 Depth=1
	leaq	1(%r13), %rdi
.Ltmp511:
	callq	_Znwm@PLT
.Ltmp512:
# %bb.447:                              # %.noexc.i438
                                        #   in Loop: Header=BB15_408 Depth=1
	movq	%rax, %r15
	movq	%rax, 8(%rsp)
	movq	%r13, 24(%rsp)
	jmp	.LBB15_451
	.p2align	4, 0x90
.LBB15_448:                             #   in Loop: Header=BB15_408 Depth=1
	testq	%r13, %r13
	je	.LBB15_452
# %bb.449:                              #   in Loop: Header=BB15_408 Depth=1
	cmpl	$1, %r13d
	jne	.LBB15_451
# %bb.450:                              #   in Loop: Header=BB15_408 Depth=1
	movb	$45, 24(%rsp)
	jmp	.LBB15_452
	.p2align	4, 0x90
.LBB15_451:                             #   in Loop: Header=BB15_408 Depth=1
	movq	%r15, %rdi
	movl	$45, %esi
	movq	%r13, %rdx
	callq	memset@PLT
.LBB15_452:                             #   in Loop: Header=BB15_408 Depth=1
	movq	%r13, 16(%rsp)
	movb	$0, (%r15,%r13)
	movl	%r12d, %eax
	addq	8(%rsp), %rax
	cmpl	$100, %ebp
	jb	.LBB15_457
# %bb.453:                              # %.lr.ph.preheader.i.i435
                                        #   in Loop: Header=BB15_408 Depth=1
	addl	$-2, %r14d
	leaq	.L__const._ZNSt8__detail18__to_chars_10_implIjEEvPcjT_.__digits(%rip), %r8
	.p2align	4, 0x90
.LBB15_454:                             # %.lr.ph.i11.i
                                        #   Parent Loop BB15_408 Depth=1
                                        # =>  This Inner Loop Header: Depth=2
	leal	1(%r14), %edx
	movl	%ebp, %ecx
	imulq	$1374389535, %rcx, %rcx         # imm = 0x51EB851F
	shrq	$37, %rcx
	imull	$100, %ecx, %esi
	movl	%ebp, %edi
	subl	%esi, %edi
	movzbl	(%r8,%rdi,2), %esi
	movzbl	1(%r8,%rdi,2), %edi
	movb	%dil, (%rax,%rdx)
	movl	%r14d, %edx
	movb	%sil, (%rax,%rdx)
	addl	$-2, %r14d
	cmpl	$9999, %ebp                     # imm = 0x270F
	movl	%ecx, %ebp
	ja	.LBB15_454
# %bb.455:                              # %._crit_edge.i.i432
                                        #   in Loop: Header=BB15_408 Depth=1
	cmpl	$10, %ecx
	jb	.LBB15_458
.LBB15_456:                             #   in Loop: Header=BB15_408 Depth=1
	movl	%ecx, %ecx
	leaq	(%rcx,%rcx), %rdx
	movl	%edx, %edx
	movzbl	1(%rdx,%r8), %edx
	movb	%dl, 1(%rax)
	movzbl	(%r8,%rcx,2), %ecx
	jmp	.LBB15_459
	.p2align	4, 0x90
.LBB15_457:                             #   in Loop: Header=BB15_408 Depth=1
	movl	%ebp, %ecx
	leaq	.L__const._ZNSt8__detail18__to_chars_10_implIjEEvPcjT_.__digits(%rip), %r8
	cmpl	$10, %ecx
	jae	.LBB15_456
.LBB15_458:                             #   in Loop: Header=BB15_408 Depth=1
	orb	$48, %cl
.LBB15_459:                             # %_ZNSt7__cxx119to_stringEi.exit
                                        #   in Loop: Header=BB15_408 Depth=1
	leaq	24(%rsp), %rbp
	movb	%cl, (%rax)
	movq	16(%rsp), %r8
	movq	(%rsp), %rcx                    # 8-byte Reload
	movq	8(%rcx), %rsi
	movabsq	$9223372036854775807, %rax      # imm = 0x7FFFFFFFFFFFFFFF
	subq	%rsi, %rax
	cmpq	%r8, %rax
	jb	.LBB15_540
# %bb.460:                              # %_ZNKSt7__cxx1112basic_stringIcSt11char_traitsIcESaIcEE15_M_check_lengthEmmPKc.exit.i.i.i439
                                        #   in Loop: Header=BB15_408 Depth=1
	movq	(%rcx), %rdi
	movl	$15, %eax
	cmpq	40(%rsp), %rdi                  # 8-byte Folded Reload
	je	.LBB15_462
# %bb.461:                              # %_ZNKSt7__cxx1112basic_stringIcSt11char_traitsIcESaIcEE15_M_check_lengthEmmPKc.exit.i.i.i439
                                        #   in Loop: Header=BB15_408 Depth=1
	movq	40(%rsp), %rax                  # 8-byte Reload
	movq	(%rax), %rax
.LBB15_462:                             # %_ZNKSt7__cxx1112basic_stringIcSt11char_traitsIcESaIcEE15_M_check_lengthEmmPKc.exit.i.i.i439
                                        #   in Loop: Header=BB15_408 Depth=1
	movq	8(%rsp), %rcx
	leaq	(%rsi,%r8), %r14
	cmpq	%rax, %r14
	jbe	.LBB15_464
# %bb.463:                              #   in Loop: Header=BB15_408 Depth=1
.Ltmp514:
	movq	(%rsp), %rdi                    # 8-byte Reload
	xorl	%edx, %edx
	callq	_ZNSt7__cxx1112basic_stringIcSt11char_traitsIcESaIcEE9_M_mutateEmmPKcm@PLT
.Ltmp515:
	jmp	.LBB15_468
	.p2align	4, 0x90
.LBB15_464:                             #   in Loop: Header=BB15_408 Depth=1
	testq	%r8, %r8
	je	.LBB15_468
# %bb.465:                              #   in Loop: Header=BB15_408 Depth=1
	addq	%rsi, %rdi
	cmpq	$1, %r8
	jne	.LBB15_467
# %bb.466:                              #   in Loop: Header=BB15_408 Depth=1
	movzbl	(%rcx), %eax
	movb	%al, (%rdi)
	jmp	.LBB15_468
.LBB15_467:                             #   in Loop: Header=BB15_408 Depth=1
	movq	%rcx, %rsi
	movq	%r8, %rdx
	callq	memcpy@PLT
	.p2align	4, 0x90
.LBB15_468:                             #   in Loop: Header=BB15_408 Depth=1
	movq	(%rsp), %rax                    # 8-byte Reload
	movq	%r14, 8(%rax)
	movq	(%rax), %rax
	movb	$0, (%rax,%r14)
	movq	8(%rsp), %rdi
	cmpq	%rbp, %rdi
	je	.LBB15_470
# %bb.469:                              # %_ZNKSt7__cxx1112basic_stringIcSt11char_traitsIcESaIcEE11_M_is_localEv.exit.i.i447
                                        #   in Loop: Header=BB15_408 Depth=1
	movq	24(%rsp), %rsi
	incq	%rsi
	callq	_ZdlPvm@PLT
.LBB15_470:                             # %_ZNSt7__cxx1112basic_stringIcSt11char_traitsIcESaIcEED2Ev.exit449
                                        #   in Loop: Header=BB15_408 Depth=1
	movq	(%rsp), %rcx                    # 8-byte Reload
	movq	8(%rcx), %rsi
	movabsq	$9223372036854775807, %rax      # imm = 0x7FFFFFFFFFFFFFFF
	addq	$-3, %rax
	cmpq	%rax, %rsi
	jg	.LBB15_534
# %bb.471:                              # %_ZNKSt7__cxx1112basic_stringIcSt11char_traitsIcESaIcEE15_M_check_lengthEmmPKc.exit.i.i450
                                        #   in Loop: Header=BB15_408 Depth=1
	movq	(%rcx), %rax
	movl	$15, %ecx
	cmpq	40(%rsp), %rax                  # 8-byte Folded Reload
	je	.LBB15_473
# %bb.472:                              # %_ZNKSt7__cxx1112basic_stringIcSt11char_traitsIcESaIcEE15_M_check_lengthEmmPKc.exit.i.i450
                                        #   in Loop: Header=BB15_408 Depth=1
	movq	40(%rsp), %rcx                  # 8-byte Reload
	movq	(%rcx), %rcx
.LBB15_473:                             # %_ZNKSt7__cxx1112basic_stringIcSt11char_traitsIcESaIcEE15_M_check_lengthEmmPKc.exit.i.i450
                                        #   in Loop: Header=BB15_408 Depth=1
	leaq	3(%rsi), %r14
	cmpq	%rcx, %r14
	jbe	.LBB15_475
# %bb.474:                              #   in Loop: Header=BB15_408 Depth=1
.Ltmp517:
	movl	$3, %r8d
	movq	(%rsp), %rdi                    # 8-byte Reload
	xorl	%edx, %edx
	leaq	.L.str.28(%rip), %rcx
	callq	_ZNSt7__cxx1112basic_stringIcSt11char_traitsIcESaIcEE9_M_mutateEmmPKcm@PLT
.Ltmp518:
	jmp	.LBB15_476
	.p2align	4, 0x90
.LBB15_475:                             #   in Loop: Header=BB15_408 Depth=1
	movb	$32, 2(%rax,%rsi)
	movw	$14889, (%rax,%rsi)             # imm = 0x3A29
.LBB15_476:                             #   in Loop: Header=BB15_408 Depth=1
	movq	(%rsp), %rax                    # 8-byte Reload
	movq	%r14, 8(%rax)
	movq	(%rax), %rax
	movb	$0, (%rax,%r14)
	movq	120(%rbx), %rax
	movq	%rax, 80(%rsp)
	leaq	24(%rsp), %r14
	movq	%r14, 8(%rsp)
	movq	$0, 16(%rsp)
	movb	$0, 24(%rsp)
.Ltmp519:
	leaq	8(%rsp), %rdi
	leaq	80(%rsp), %rsi
	callq	_ZN8pybind116detail9load_typeINSt7__cxx1112basic_stringIcSt11char_traitsIcESaIcEEEvEERNS0_11type_casterIT_T0_EESC_RKNS_6handleE
.Ltmp520:
# %bb.477:                              # %_ZN8pybind116detail9load_typeINSt7__cxx1112basic_stringIcSt11char_traitsIcESaIcEEEEENS0_11type_casterINS0_14intrinsic_typeIT_E4typeEvEERKNS_6handleE.exit.i.i459
                                        #   in Loop: Header=BB15_408 Depth=1
	leaq	64(%rsp), %rdi
	movq	%rdi, 48(%rsp)
	movq	8(%rsp), %rcx
	cmpq	%r14, %rcx
	je	.LBB15_479
# %bb.478:                              # %_ZNKSt7__cxx1112basic_stringIcSt11char_traitsIcESaIcEE11_M_is_localEv.exit.i.i.i460
                                        #   in Loop: Header=BB15_408 Depth=1
	movq	%rcx, 48(%rsp)
	movq	16(%rsp), %r12
	movq	24(%rsp), %rax
	movq	%rax, 64(%rsp)
	jmp	.LBB15_480
	.p2align	4, 0x90
.LBB15_479:                             #   in Loop: Header=BB15_408 Depth=1
	movq	%r14, %rsi
	movq	16(%rsp), %r12
	leaq	1(%r12), %rdx
	movq	%rdi, %r14
	callq	memcpy@PLT
	movq	%r14, %rcx
.LBB15_480:                             #   in Loop: Header=BB15_408 Depth=1
	movq	%r12, 56(%rsp)
	movq	(%rsp), %rdx                    # 8-byte Reload
	movq	8(%rdx), %rsi
	movabsq	$9223372036854775807, %rax      # imm = 0x7FFFFFFFFFFFFFFF
	subq	%rsi, %rax
	cmpq	%r12, %rax
	jb	.LBB15_542
# %bb.481:                              # %_ZNKSt7__cxx1112basic_stringIcSt11char_traitsIcESaIcEE15_M_check_lengthEmmPKc.exit.i.i.i467
                                        #   in Loop: Header=BB15_408 Depth=1
	movq	(%rdx), %rdi
	movl	$15, %eax
	cmpq	40(%rsp), %rdi                  # 8-byte Folded Reload
	je	.LBB15_483
# %bb.482:                              # %_ZNKSt7__cxx1112basic_stringIcSt11char_traitsIcESaIcEE15_M_check_lengthEmmPKc.exit.i.i.i467
                                        #   in Loop: Header=BB15_408 Depth=1
	movq	40(%rsp), %rax                  # 8-byte Reload
	movq	(%rax), %rax
.LBB15_483:                             # %_ZNKSt7__cxx1112basic_stringIcSt11char_traitsIcESaIcEE15_M_check_lengthEmmPKc.exit.i.i.i467
                                        #   in Loop: Header=BB15_408 Depth=1
	leaq	(%rsi,%r12), %r14
	cmpq	%rax, %r14
	jbe	.LBB15_485
# %bb.484:                              #   in Loop: Header=BB15_408 Depth=1
.Ltmp522:
	movq	(%rsp), %rdi                    # 8-byte Reload
	xorl	%edx, %edx
	movq	%r12, %r8
	callq	_ZNSt7__cxx1112basic_stringIcSt11char_traitsIcESaIcEE9_M_mutateEmmPKcm@PLT
.Ltmp523:
	jmp	.LBB15_489
	.p2align	4, 0x90
.LBB15_485:                             #   in Loop: Header=BB15_408 Depth=1
	testq	%r12, %r12
	je	.LBB15_489
# %bb.486:                              #   in Loop: Header=BB15_408 Depth=1
	addq	%rsi, %rdi
	cmpq	$1, %r12
	jne	.LBB15_488
# %bb.487:                              #   in Loop: Header=BB15_408 Depth=1
	movzbl	(%rcx), %eax
	movb	%al, (%rdi)
	jmp	.LBB15_489
.LBB15_488:                             #   in Loop: Header=BB15_408 Depth=1
	movq	%rcx, %rsi
	movq	%r12, %rdx
	callq	memcpy@PLT
	.p2align	4, 0x90
.LBB15_489:                             #   in Loop: Header=BB15_408 Depth=1
	movq	(%rsp), %rax                    # 8-byte Reload
	movq	%r14, 8(%rax)
	movq	(%rax), %rax
	movb	$0, (%rax,%r14)
	movq	48(%rsp), %rdi
	leaq	64(%rsp), %rax
	cmpq	%rax, %rdi
	je	.LBB15_491
# %bb.490:                              # %_ZNKSt7__cxx1112basic_stringIcSt11char_traitsIcESaIcEE11_M_is_localEv.exit.i.i475
                                        #   in Loop: Header=BB15_408 Depth=1
	movq	64(%rsp), %rsi
	incq	%rsi
	callq	_ZdlPvm@PLT
.LBB15_491:                             # %_ZNSt7__cxx1112basic_stringIcSt11char_traitsIcESaIcEED2Ev.exit477
                                        #   in Loop: Header=BB15_408 Depth=1
	movq	(%rsp), %rcx                    # 8-byte Reload
	movq	(%rcx), %rax
	movq	8(%rcx), %r12
	movl	$15, %ecx
	cmpq	40(%rsp), %rax                  # 8-byte Folded Reload
	je	.LBB15_493
# %bb.492:                              # %_ZNSt7__cxx1112basic_stringIcSt11char_traitsIcESaIcEED2Ev.exit477
                                        #   in Loop: Header=BB15_408 Depth=1
	movq	40(%rsp), %rcx                  # 8-byte Reload
	movq	(%rcx), %rcx
.LBB15_493:                             # %_ZNSt7__cxx1112basic_stringIcSt11char_traitsIcESaIcEED2Ev.exit477
                                        #   in Loop: Header=BB15_408 Depth=1
	leaq	1(%r12), %r14
	cmpq	%rcx, %r14
	jbe	.LBB15_496
# %bb.494:                              #   in Loop: Header=BB15_408 Depth=1
.Ltmp525:
	movl	$1, %r8d
	movq	(%rsp), %rdi                    # 8-byte Reload
	movq	%r12, %rsi
	xorl	%edx, %edx
	xorl	%ecx, %ecx
	callq	_ZNSt7__cxx1112basic_stringIcSt11char_traitsIcESaIcEE9_M_mutateEmmPKcm@PLT
.Ltmp526:
# %bb.495:                              # %.noexc480
                                        #   in Loop: Header=BB15_408 Depth=1
	movq	(%rsp), %rax                    # 8-byte Reload
	movq	(%rax), %rax
.LBB15_496:                             #   in Loop: Header=BB15_408 Depth=1
	movb	$10, (%rax,%r12)
	movq	(%rsp), %rax                    # 8-byte Reload
	movq	%r14, 8(%rax)
	movq	(%rax), %rax
	movb	$0, 1(%rax,%r12)
	movq	(%rbx), %rax
	testl	%eax, %eax
	js	.LBB15_499
# %bb.497:                              #   in Loop: Header=BB15_408 Depth=1
	decq	%rax
	movq	%rax, (%rbx)
	jne	.LBB15_499
# %bb.498:                              #   in Loop: Header=BB15_408 Depth=1
.Ltmp527:
	movq	%rbx, %rdi
	callq	_Py_Dealloc@PLT
.Ltmp528:
	.p2align	4, 0x90
.LBB15_499:                             # %_ZL9Py_DECREFP7_object.exit
                                        #   in Loop: Header=BB15_408 Depth=1
.Ltmp530:
	movq	144(%rsp), %r14                 # 8-byte Reload
	movq	%r14, %rdi
	callq	PyFrame_GetBack@PLT
.Ltmp531:
# %bb.500:                              #   in Loop: Header=BB15_408 Depth=1
	movq	%rax, %r15
	movq	(%r14), %rax
	testl	%eax, %eax
	js	.LBB15_407
# %bb.501:                              #   in Loop: Header=BB15_408 Depth=1
	decq	%rax
	movq	%rax, (%r14)
	jne	.LBB15_407
# %bb.502:                              #   in Loop: Header=BB15_408 Depth=1
.Ltmp532:
	movq	%r14, %rdi
	callq	_Py_Dealloc@PLT
.Ltmp533:
	jmp	.LBB15_407
.LBB15_503:                             # %.preheader._crit_edge
	movq	160(%rsp), %r8
	testq	%r8, %r8
	je	.LBB15_516
.LBB15_504:
	movq	152(%rsp), %rcx
.Ltmp553:
	leaq	.L.str.29(%rip), %rsi
	leaq	8(%rsp), %rdi
	leaq	48(%rsp), %r9
	movl	$39, %edx
	callq	_ZSt12__str_concatINSt7__cxx1112basic_stringIcSt11char_traitsIcESaIcEEEET_PKNS6_10value_typeENS6_9size_typeES9_SA_RKNS6_14allocator_typeE@PLT
.Ltmp554:
# %bb.505:
	movq	16(%rsp), %r8
	movq	(%rsp), %rax                    # 8-byte Reload
	movq	8(%rax), %rsi
	movabsq	$9223372036854775807, %rcx      # imm = 0x7FFFFFFFFFFFFFFF
	subq	%rsi, %rcx
	cmpq	%r8, %rcx
	jb	.LBB15_564
# %bb.506:                              # %_ZNKSt7__cxx1112basic_stringIcSt11char_traitsIcESaIcEE15_M_check_lengthEmmPKc.exit.i.i.i496
	leaq	(%rsi,%r8), %rbx
	movq	(%rax), %rdi
	movl	$15, %eax
	cmpq	40(%rsp), %rdi                  # 8-byte Folded Reload
	je	.LBB15_508
# %bb.507:                              # %_ZNKSt7__cxx1112basic_stringIcSt11char_traitsIcESaIcEE15_M_check_lengthEmmPKc.exit.i.i.i496
	movq	40(%rsp), %rax                  # 8-byte Reload
	movq	(%rax), %rax
.LBB15_508:                             # %_ZNKSt7__cxx1112basic_stringIcSt11char_traitsIcESaIcEE15_M_check_lengthEmmPKc.exit.i.i.i496
	movq	8(%rsp), %rcx
	cmpq	%rax, %rbx
	jbe	.LBB15_510
# %bb.509:
.Ltmp556:
	movq	(%rsp), %rdi                    # 8-byte Reload
	xorl	%edx, %edx
	callq	_ZNSt7__cxx1112basic_stringIcSt11char_traitsIcESaIcEE9_M_mutateEmmPKcm@PLT
.Ltmp557:
	jmp	.LBB15_514
.LBB15_510:
	testq	%r8, %r8
	je	.LBB15_514
# %bb.511:
	addq	%rsi, %rdi
	cmpq	$1, %r8
	jne	.LBB15_513
# %bb.512:
	movzbl	(%rcx), %eax
	movb	%al, (%rdi)
	jmp	.LBB15_514
.LBB15_513:
	movq	%rcx, %rsi
	movq	%r8, %rdx
	callq	memcpy@PLT
.LBB15_514:
	movq	(%rsp), %rax                    # 8-byte Reload
	movq	%rbx, 8(%rax)
	movq	(%rax), %rax
	movb	$0, (%rax,%rbx)
	movq	8(%rsp), %rdi
	leaq	24(%rsp), %rax
	cmpq	%rax, %rdi
	je	.LBB15_516
# %bb.515:                              # %_ZNKSt7__cxx1112basic_stringIcSt11char_traitsIcESaIcEE11_M_is_localEv.exit.i.i504
	movq	24(%rsp), %rsi
	incq	%rsi
	callq	_ZdlPvm@PLT
.LBB15_516:
	movq	152(%rsp), %rdi
	leaq	168(%rsp), %rax
	cmpq	%rax, %rdi
	je	.LBB15_518
# %bb.517:                              # %_ZNKSt7__cxx1112basic_stringIcSt11char_traitsIcESaIcEE11_M_is_localEv.exit.i.i510
	movq	168(%rsp), %rsi
	incq	%rsi
	callq	_ZdlPvm@PLT
.LBB15_518:                             # %_ZNSt7__cxx1112basic_stringIcSt11char_traitsIcESaIcEED2Ev.exit512
	movq	(%rsp), %rax                    # 8-byte Reload
	addq	$280, %rsp                      # imm = 0x118
	.cfi_def_cfa_offset 56
	popq	%rbx
	.cfi_def_cfa_offset 48
	popq	%r12
	.cfi_def_cfa_offset 40
	popq	%r13
	.cfi_def_cfa_offset 32
	popq	%r14
	.cfi_def_cfa_offset 24
	popq	%r15
	.cfi_def_cfa_offset 16
	popq	%rbp
	.cfi_def_cfa_offset 8
	retq
.LBB15_519:                             # %.noexc9.i365
	.cfi_def_cfa_offset 336
.Ltmp369:
	callq	_ZSt17__throw_bad_allocv@PLT
.Ltmp370:
# %bb.520:                              # %.noexc369
.LBB15_521:
.Ltmp436:
	callq	_ZSt17__throw_bad_allocv@PLT
.Ltmp437:
# %bb.522:                              # %.noexc907
.LBB15_523:
.Ltmp402:
	callq	_ZSt17__throw_bad_allocv@PLT
.Ltmp403:
# %bb.524:                              # %.noexc920
.LBB15_525:
.Ltmp489:
	leaq	.L.str.25(%rip), %rcx
	movl	$15, %r8d
	movq	(%rsp), %rbx                    # 8-byte Reload
	movq	%rbx, %rdi
	xorl	%edx, %edx
	xorl	%r9d, %r9d
	callq	_ZNSt7__cxx1112basic_stringIcSt11char_traitsIcESaIcEE15_M_replace_coldEPcmPKcmm@PLT
.Ltmp490:
	jmp	.LBB15_387
.LBB15_526:
.Ltmp450:
	callq	_ZSt17__throw_bad_allocv@PLT
.Ltmp451:
# %bb.527:                              # %.noexc894
.LBB15_528:
.Ltmp467:
	callq	_ZSt17__throw_bad_allocv@PLT
.Ltmp468:
# %bb.529:                              # %.noexc882
.LBB15_530:                             # %.noexc9.i
.Ltmp304:
	callq	_ZSt17__throw_bad_allocv@PLT
.Ltmp305:
# %bb.531:                              # %.noexc152
.LBB15_532:
.Ltmp344:
	leaq	.L.str.17(%rip), %rcx
	leaq	80(%rsp), %rdi
	movl	$16, %r8d
	movq	%r14, %rsi
	xorl	%edx, %edx
	movq	%r12, %r9
	callq	_ZNSt7__cxx1112basic_stringIcSt11char_traitsIcESaIcEE15_M_replace_coldEPcmPKcmm@PLT
.Ltmp345:
	jmp	.LBB15_152
.LBB15_533:
	movq	%rsi, %rdi
	jmp	.LBB15_71
.LBB15_534:                             # %.invoke
.Ltmp544:
	leaq	.L.str.41(%rip), %rdi
	callq	_ZSt20__throw_length_errorPKc@PLT
.Ltmp545:
# %bb.535:                              # %.cont
.LBB15_536:
.Ltmp458:
	leaq	.L.str.16(%rip), %rcx
	leaq	48(%rsp), %rdi
	movl	$35, %r8d
	movq	%r15, %rsi
	xorl	%edx, %edx
	movq	%r12, %r9
	callq	_ZNSt7__cxx1112basic_stringIcSt11char_traitsIcESaIcEE15_M_replace_coldEPcmPKcmm@PLT
.Ltmp459:
# %bb.537:                              # %..noexc168_crit_edge
	movq	48(%rsp), %r15
	jmp	.LBB15_363
.LBB15_538:
.Ltmp541:
	leaq	.L.str.41(%rip), %rdi
	callq	_ZSt20__throw_length_errorPKc@PLT
.Ltmp542:
# %bb.539:                              # %.noexc419
.LBB15_540:
.Ltmp538:
	leaq	.L.str.41(%rip), %rdi
	callq	_ZSt20__throw_length_errorPKc@PLT
.Ltmp539:
# %bb.541:                              # %.noexc444
.LBB15_542:
.Ltmp535:
	leaq	.L.str.41(%rip), %rdi
	callq	_ZSt20__throw_length_errorPKc@PLT
.Ltmp536:
# %bb.543:                              # %.noexc472
.LBB15_544:
	leaq	.L.str.19(%rip), %rdi
	leaq	.L.str.20(%rip), %rsi
	leaq	.L__PRETTY_FUNCTION__._ZNK8pybind116detail25error_fetch_and_normalize22format_value_and_traceB5cxx11Ev(%rip), %rcx
	movl	$615, %edx                      # imm = 0x267
	callq	__assert_fail@PLT
.LBB15_545:
.Ltmp373:
	leaq	.L.str.35(%rip), %rdi
	callq	_ZSt19__throw_logic_errorPKc@PLT
.Ltmp374:
# %bb.546:                              # %.noexc367
.LBB15_547:
.Ltmp366:
	leaq	.L.str.41(%rip), %rdi
	callq	_ZSt20__throw_length_errorPKc@PLT
.Ltmp367:
# %bb.548:                              # %.noexc377
.LBB15_549:
.Ltmp433:
	leaq	.L.str.41(%rip), %rdi
	callq	_ZSt20__throw_length_errorPKc@PLT
.Ltmp434:
# %bb.550:                              # %.noexc258
.LBB15_551:
.Ltmp415:
	leaq	.L.str.41(%rip), %rdi
	callq	_ZSt20__throw_length_errorPKc@PLT
.Ltmp416:
# %bb.552:                              # %.noexc250
.LBB15_553:
.Ltmp399:
	leaq	.L.str.41(%rip), %rdi
	callq	_ZSt20__throw_length_errorPKc@PLT
.Ltmp400:
# %bb.554:                              # %.noexc328
.LBB15_555:                             # %.noexc.i366
.Ltmp371:
	leaq	.L.str.10(%rip), %rdi
	callq	_ZSt20__throw_length_errorPKc@PLT
.Ltmp372:
# %bb.556:                              # %.noexc368
.LBB15_557:
	leaq	.L.str.10(%rip), %rax
	movq	%rax, 192(%rsp)                 # 8-byte Spill
.LBB15_558:                             # %.invoke1013
.Ltmp438:
	movq	192(%rsp), %rdi                 # 8-byte Reload
	callq	_ZSt20__throw_length_errorPKc@PLT
.Ltmp439:
# %bb.559:                              # %.cont1014
.LBB15_560:
.Ltmp384:
	leaq	.L.str.41(%rip), %rdi
	callq	_ZSt20__throw_length_errorPKc@PLT
.Ltmp385:
# %bb.561:                              # %.noexc320
.LBB15_562:
.Ltmp547:
	leaq	.L.str.41(%rip), %rdi
	callq	_ZSt20__throw_length_errorPKc@PLT
.Ltmp548:
# %bb.563:                              # %.noexc403
.LBB15_564:
.Ltmp558:
	leaq	.L.str.41(%rip), %rdi
	callq	_ZSt20__throw_length_errorPKc@PLT
.Ltmp559:
# %bb.565:                              # %.noexc501
.LBB15_566:
	leaq	.L.str.10(%rip), %rax
	movq	%rax, 192(%rsp)                 # 8-byte Spill
.LBB15_567:                             # %.invoke1015
.Ltmp404:
	movq	192(%rsp), %rdi                 # 8-byte Reload
	callq	_ZSt20__throw_length_errorPKc@PLT
.Ltmp405:
# %bb.568:                              # %.cont1016
.LBB15_569:
	leaq	.L.str.9(%rip), %rdi
	jmp	.LBB15_575
.LBB15_570:
.Ltmp447:
	leaq	.L.str.41(%rip), %rdi
	callq	_ZSt20__throw_length_errorPKc@PLT
.Ltmp448:
# %bb.571:                              # %.noexc193
.LBB15_572:
.Ltmp444:
	leaq	.L.str.41(%rip), %rdi
	callq	_ZSt20__throw_length_errorPKc@PLT
.Ltmp445:
# %bb.573:                              # %.noexc200
.LBB15_574:
	leaq	.L.str.10(%rip), %rdi
.LBB15_575:                             # %.invoke1011
.Ltmp452:
	callq	_ZSt20__throw_length_errorPKc@PLT
.Ltmp453:
# %bb.576:                              # %.cont1012
.LBB15_577:
.Ltmp308:
	leaq	.L.str.35(%rip), %rdi
	callq	_ZSt19__throw_logic_errorPKc@PLT
.Ltmp309:
# %bb.578:                              # %.noexc150
.LBB15_579:
	leaq	.L.str.9(%rip), %rdi
	jmp	.LBB15_583
.LBB15_580:
.Ltmp464:
	leaq	.L.str.41(%rip), %rdi
	callq	_ZSt20__throw_length_errorPKc@PLT
.Ltmp465:
# %bb.581:                              # %.noexc169
.LBB15_582:
	leaq	.L.str.10(%rip), %rdi
.LBB15_583:                             # %.invoke1009
.Ltmp469:
	callq	_ZSt20__throw_length_errorPKc@PLT
.Ltmp470:
# %bb.584:                              # %.cont1010
.LBB15_585:                             # %.noexc.i
.Ltmp306:
	leaq	.L.str.10(%rip), %rdi
	callq	_ZSt20__throw_length_errorPKc@PLT
.Ltmp307:
# %bb.586:                              # %.noexc151
.LBB15_587:
.Ltmp343:
	jmp	.LBB15_653
.LBB15_588:
.Ltmp313:
	jmp	.LBB15_676
.LBB15_589:
.Ltmp552:
	jmp	.LBB15_674
.LBB15_590:
.Ltmp457:
	jmp	.LBB15_653
.LBB15_591:
.Ltmp322:
	jmp	.LBB15_676
.LBB15_592:
.Ltmp319:
	jmp	.LBB15_676
.LBB15_593:
.Ltmp466:
	movq	%rax, %rbx
	movq	8(%rsp), %rdi
	cmpq	%r15, %rdi
	je	.LBB15_679
# %bb.594:                              # %_ZNKSt7__cxx1112basic_stringIcSt11char_traitsIcESaIcEE11_M_is_localEv.exit.i.i177
	movq	24(%rsp), %rsi
	incq	%rsi
	callq	_ZdlPvm@PLT
	jmp	.LBB15_679
.LBB15_595:
.Ltmp474:
	jmp	.LBB15_653
.LBB15_596:
.Ltmp334:
	jmp	.LBB15_618
.LBB15_597:
.Ltmp331:
	jmp	.LBB15_618
.LBB15_598:
.Ltmp378:
	jmp	.LBB15_690
.LBB15_599:
.Ltmp316:
	jmp	.LBB15_676
.LBB15_600:
.Ltmp446:
	movq	%rax, %rbx
	movq	8(%rsp), %rdi
	cmpq	%r12, %rdi
	jne	.LBB15_603
# %bb.601:                              # %_ZNSt7__cxx1112basic_stringIcSt11char_traitsIcESaIcEED2Ev.exit214
	movq	48(%rsp), %rdi
	cmpq	%r14, %rdi
	jne	.LBB15_605
.LBB15_602:                             # %_ZNSt7__cxx1112basic_stringIcSt11char_traitsIcESaIcEED2Ev.exit217
	movq	80(%rsp), %rdi
	cmpq	144(%rsp), %rdi                 # 8-byte Folded Reload
	jne	.LBB15_682
	jmp	.LBB15_692
.LBB15_603:                             # %_ZNKSt7__cxx1112basic_stringIcSt11char_traitsIcESaIcEE11_M_is_localEv.exit.i.i212
	movq	24(%rsp), %rsi
	incq	%rsi
	callq	_ZdlPvm@PLT
	movq	48(%rsp), %rdi
	cmpq	%r14, %rdi
	je	.LBB15_602
	jmp	.LBB15_605
.LBB15_604:
.Ltmp449:
	movq	%rax, %rbx
	movq	48(%rsp), %rdi
	cmpq	%r14, %rdi
	je	.LBB15_602
.LBB15_605:                             # %_ZNKSt7__cxx1112basic_stringIcSt11char_traitsIcESaIcEE11_M_is_localEv.exit.i.i215
	movq	64(%rsp), %rsi
	incq	%rsi
	callq	_ZdlPvm@PLT
	movq	80(%rsp), %rdi
	cmpq	144(%rsp), %rdi                 # 8-byte Folded Reload
	jne	.LBB15_682
	jmp	.LBB15_692
.LBB15_606:
.Ltmp328:
	movq	%rax, %rdi
	callq	__clang_call_terminate
.LBB15_607:
.Ltmp340:
	jmp	.LBB15_653
.LBB15_608:
.Ltmp299:
	jmp	.LBB15_618
.LBB15_609:
.Ltmp409:
	jmp	.LBB15_690
.LBB15_610:
.Ltmp493:
	jmp	.LBB15_674
.LBB15_611:                             # %.loopexit561
.Ltmp389:
	jmp	.LBB15_623
.LBB15_612:                             # %.loopexit566
.Ltmp398:
	jmp	.LBB15_634
.LBB15_613:                             # %.loopexit941
.Ltmp383:
	jmp	.LBB15_686
.LBB15_614:
.Ltmp486:
	movq	%rax, %rdi
	callq	__clang_call_terminate
.LBB15_615:
.Ltmp483:
	movq	%rax, %rdi
	callq	__clang_call_terminate
.LBB15_616:
.Ltmp555:
	jmp	.LBB15_674
.LBB15_617:
.Ltmp337:
.LBB15_618:
	movq	%rax, %rbx
	jmp	.LBB15_693
.LBB15_619:
.Ltmp296:
	jmp	.LBB15_674
.LBB15_620:                             # %.loopexit.split-lp562
.Ltmp386:
	jmp	.LBB15_623
.LBB15_621:                             # %.loopexit576
.Ltmp429:
	jmp	.LBB15_634
.LBB15_622:                             # %.loopexit571
.Ltmp420:
	jmp	.LBB15_623
.LBB15_624:                             # %.loopexit945
.Ltmp414:
	jmp	.LBB15_686
.LBB15_625:
.Ltmp560:
	jmp	.LBB15_665
.LBB15_626:
.Ltmp549:
	jmp	.LBB15_674
.LBB15_627:                             # %.loopexit551
.Ltmp362:
	jmp	.LBB15_690
.LBB15_628:                             # %.loopexit556
.Ltmp365:
	jmp	.LBB15_648
.LBB15_629:                             # %.loopexit.split-lp567
.Ltmp401:
	jmp	.LBB15_634
.LBB15_630:                             # %.loopexit.split-lp572
.Ltmp417:
.LBB15_623:                             # %.loopexit571
	movq	%rax, %rbx
	movq	80(%rsp), %rdi
	leaq	96(%rsp), %rax
	cmpq	%rax, %rdi
	je	.LBB15_638
	jmp	.LBB15_646
.LBB15_631:
.Ltmp395:
	jmp	.LBB15_641
.LBB15_632:
.Ltmp392:
	jmp	.LBB15_644
.LBB15_633:                             # %.loopexit.split-lp577
.Ltmp435:
.LBB15_634:
	movq	%rax, %rbx
	movq	8(%rsp), %rdi
	leaq	24(%rsp), %rax
	cmpq	%rax, %rdi
	jne	.LBB15_639
# %bb.635:                              # %_ZNSt7__cxx1112basic_stringIcSt11char_traitsIcESaIcEED2Ev.exit278
	movq	208(%rsp), %rdi
	leaq	224(%rsp), %rax
	cmpq	%rax, %rdi
	jne	.LBB15_642
.LBB15_636:                             # %_ZNSt7__cxx1112basic_stringIcSt11char_traitsIcESaIcEED2Ev.exit281
	movq	48(%rsp), %rdi
	leaq	64(%rsp), %rax
	cmpq	%rax, %rdi
	jne	.LBB15_645
.LBB15_637:                             # %_ZNSt7__cxx1112basic_stringIcSt11char_traitsIcESaIcEED2Ev.exit284
	movq	80(%rsp), %rdi
	leaq	96(%rsp), %rax
	cmpq	%rax, %rdi
	jne	.LBB15_646
.LBB15_638:                             # %_ZNSt7__cxx1112basic_stringIcSt11char_traitsIcESaIcEED2Ev.exit287
	movq	112(%rsp), %rdi
	leaq	128(%rsp), %rax
	cmpq	%rax, %rdi
	jne	.LBB15_687
	jmp	.LBB15_691
.LBB15_639:                             # %_ZNKSt7__cxx1112basic_stringIcSt11char_traitsIcESaIcEE11_M_is_localEv.exit.i.i276
	movq	24(%rsp), %rsi
	incq	%rsi
	callq	_ZdlPvm@PLT
	movq	208(%rsp), %rdi
	leaq	224(%rsp), %rax
	cmpq	%rax, %rdi
	je	.LBB15_636
	jmp	.LBB15_642
.LBB15_640:
.Ltmp426:
.LBB15_641:
	movq	%rax, %rbx
	movq	208(%rsp), %rdi
	leaq	224(%rsp), %rax
	cmpq	%rax, %rdi
	je	.LBB15_636
.LBB15_642:                             # %_ZNKSt7__cxx1112basic_stringIcSt11char_traitsIcESaIcEE11_M_is_localEv.exit.i.i279
	movq	224(%rsp), %rsi
	incq	%rsi
	callq	_ZdlPvm@PLT
	movq	48(%rsp), %rdi
	leaq	64(%rsp), %rax
	cmpq	%rax, %rdi
	je	.LBB15_637
.LBB15_645:                             # %_ZNKSt7__cxx1112basic_stringIcSt11char_traitsIcESaIcEE11_M_is_localEv.exit.i.i282
	movq	64(%rsp), %rsi
	incq	%rsi
	callq	_ZdlPvm@PLT
	movq	80(%rsp), %rdi
	leaq	96(%rsp), %rax
	cmpq	%rax, %rdi
	je	.LBB15_638
.LBB15_646:                             # %_ZNKSt7__cxx1112basic_stringIcSt11char_traitsIcESaIcEE11_M_is_localEv.exit.i.i285
	movq	96(%rsp), %rsi
	incq	%rsi
	callq	_ZdlPvm@PLT
	movq	112(%rsp), %rdi
	leaq	128(%rsp), %rax
	cmpq	%rax, %rdi
	jne	.LBB15_687
	jmp	.LBB15_691
.LBB15_643:
.Ltmp423:
.LBB15_644:
	movq	%rax, %rbx
	movq	48(%rsp), %rdi
	leaq	64(%rsp), %rax
	cmpq	%rax, %rdi
	je	.LBB15_637
	jmp	.LBB15_645
.LBB15_647:                             # %.loopexit.split-lp557
.Ltmp368:
.LBB15_648:
	movq	%rax, %rbx
	movq	8(%rsp), %rdi
	leaq	24(%rsp), %rax
	cmpq	%rax, %rdi
	je	.LBB15_691
# %bb.649:                              # %_ZNKSt7__cxx1112basic_stringIcSt11char_traitsIcESaIcEE11_M_is_localEv.exit.i.i383
	movq	24(%rsp), %rsi
	jmp	.LBB15_688
.LBB15_650:
.Ltmp359:
	jmp	.LBB15_690
.LBB15_651:
.Ltmp432:
	movq	%rax, %rdi
	callq	__clang_call_terminate
.LBB15_652:
.Ltmp354:
.LBB15_653:
	movq	%rax, %rbx
	jmp	.LBB15_692
.LBB15_654:                             # %.loopexit535
.Ltmp508:
	jmp	.LBB15_668
.LBB15_655:                             # %.loopexit540
.Ltmp516:
	jmp	.LBB15_665
.LBB15_656:
.Ltmp513:
	movq	%rax, %rdi
	callq	__clang_call_terminate
.LBB15_657:                             # %.loopexit545
.Ltmp524:
	jmp	.LBB15_668
.LBB15_658:
.Ltmp498:
	jmp	.LBB15_674
.LBB15_659:
.Ltmp505:
	movq	%rax, %rbx
	movq	8(%rsp), %rdi
	cmpq	%rbp, %rdi
	je	.LBB15_694
	jmp	.LBB15_660
.LBB15_661:
.Ltmp521:
	movq	%rax, %rbx
	movq	8(%rsp), %rdi
	cmpq	%r14, %rdi
	jne	.LBB15_660
	jmp	.LBB15_694
.LBB15_663:                             # %.loopexit.split-lp546
.Ltmp537:
	jmp	.LBB15_668
.LBB15_664:                             # %.loopexit.split-lp541
.Ltmp540:
.LBB15_665:
	movq	%rax, %rbx
	movq	8(%rsp), %rdi
	leaq	24(%rsp), %rax
	cmpq	%rax, %rdi
	je	.LBB15_694
.LBB15_660:                             # %_ZNKSt7__cxx1112basic_stringIcSt11char_traitsIcESaIcEE11_M_is_localEv.exit.i.i.i519
	movq	24(%rsp), %rsi
	jmp	.LBB15_670
.LBB15_667:                             # %.loopexit.split-lp536
.Ltmp543:
.LBB15_668:
	movq	%rax, %rbx
	movq	48(%rsp), %rdi
	leaq	64(%rsp), %rax
	cmpq	%rax, %rdi
	je	.LBB15_694
# %bb.669:                              # %_ZNKSt7__cxx1112basic_stringIcSt11char_traitsIcESaIcEE11_M_is_localEv.exit.i.i482
	movq	64(%rsp), %rsi
.LBB15_670:                             # %.body
	incq	%rsi
	callq	_ZdlPvm@PLT
	jmp	.LBB15_694
.LBB15_671:
.Ltmp534:
	jmp	.LBB15_674
.LBB15_672:                             # %.loopexit.split-lp
.Ltmp546:
	jmp	.LBB15_674
.LBB15_673:                             # %.loopexit534
.Ltmp529:
.LBB15_674:
	movq	%rax, %rbx
	jmp	.LBB15_694
.LBB15_675:
.Ltmp310:
.LBB15_676:
	movq	%rax, %rbx
.Ltmp323:
	leaq	48(%rsp), %rdi
	callq	_ZNKR8pybind116handle7dec_refEv
.Ltmp324:
	jmp	.LBB15_693
.LBB15_677:
.Ltmp325:
	movq	%rax, %rdi
	callq	__clang_call_terminate
.LBB15_678:
.Ltmp471:
	movq	%rax, %rbx
.LBB15_679:                             # %_ZNSt7__cxx1112basic_stringIcSt11char_traitsIcESaIcEED2Ev.exit179
	movq	48(%rsp), %rdi
	leaq	64(%rsp), %rax
	cmpq	%rax, %rdi
	je	.LBB15_692
# %bb.680:                              # %_ZNKSt7__cxx1112basic_stringIcSt11char_traitsIcESaIcEE11_M_is_localEv.exit.i.i180
	movq	64(%rsp), %rsi
	jmp	.LBB15_683
.LBB15_681:
.Ltmp454:
	movq	%rax, %rbx
	movq	80(%rsp), %rdi
	cmpq	144(%rsp), %rdi                 # 8-byte Folded Reload
	je	.LBB15_692
.LBB15_682:                             # %_ZNKSt7__cxx1112basic_stringIcSt11char_traitsIcESaIcEE11_M_is_localEv.exit.i.i218
	movq	96(%rsp), %rsi
.LBB15_683:
	incq	%rsi
	callq	_ZdlPvm@PLT
	jmp	.LBB15_692
.LBB15_684:                             # %.loopexit.split-lp942
.Ltmp406:
	jmp	.LBB15_686
.LBB15_685:                             # %.loopexit.split-lp946
.Ltmp440:
.LBB15_686:                             # %.loopexit.split-lp946
	movq	%rax, %rbx
	movq	112(%rsp), %rdi
	leaq	128(%rsp), %rax
	cmpq	%rax, %rdi
	je	.LBB15_691
.LBB15_687:                             # %_ZNKSt7__cxx1112basic_stringIcSt11char_traitsIcESaIcEE11_M_is_localEv.exit.i.i288
	movq	128(%rsp), %rsi
.LBB15_688:
	incq	%rsi
	callq	_ZdlPvm@PLT
	jmp	.LBB15_691
.LBB15_689:                             # %.loopexit.split-lp552
.Ltmp375:
.LBB15_690:
	movq	%rax, %rbx
.LBB15_691:
.Ltmp441:
	leaq	264(%rsp), %rdi
	callq	_ZNKR8pybind116handle7dec_refEv
.Ltmp442:
.LBB15_692:
.Ltmp475:
	leaq	200(%rsp), %rdi
	callq	_ZNKR8pybind116handle7dec_refEv
.Ltmp476:
.LBB15_693:
.Ltmp478:
	leaq	272(%rsp), %rdi
	callq	_ZNKR8pybind116handle7dec_refEv
.Ltmp479:
.LBB15_694:
	movq	152(%rsp), %rdi
	leaq	168(%rsp), %rax
	cmpq	%rax, %rdi
	je	.LBB15_696
# %bb.695:                              # %_ZNKSt7__cxx1112basic_stringIcSt11char_traitsIcESaIcEE11_M_is_localEv.exit.i.i513
	movq	168(%rsp), %rsi
	incq	%rsi
	callq	_ZdlPvm@PLT
.LBB15_696:                             # %_ZNSt7__cxx1112basic_stringIcSt11char_traitsIcESaIcEED2Ev.exit515
	movq	(%rsp), %rax                    # 8-byte Reload
	movq	(%rax), %rdi
	movq	40(%rsp), %rax                  # 8-byte Reload
	cmpq	%rax, %rdi
	je	.LBB15_698
# %bb.697:                              # %_ZNKSt7__cxx1112basic_stringIcSt11char_traitsIcESaIcEE11_M_is_localEv.exit.i.i516
	movq	(%rax), %rsi
	incq	%rsi
	callq	_ZdlPvm@PLT
.LBB15_698:                             # %_ZNSt7__cxx1112basic_stringIcSt11char_traitsIcESaIcEED2Ev.exit518
	movq	%rbx, %rdi
	callq	_Unwind_Resume@PLT
.LBB15_699:
.Ltmp480:
	movq	%rax, %rdi
	callq	__clang_call_terminate
.LBB15_700:
.Ltmp477:
	movq	%rax, %rdi
	callq	__clang_call_terminate
.LBB15_701:
.Ltmp443:
	movq	%rax, %rdi
	callq	__clang_call_terminate
.Lfunc_end15:
	.size	_ZNK8pybind116detail25error_fetch_and_normalize22format_value_and_traceB5cxx11Ev, .Lfunc_end15-_ZNK8pybind116detail25error_fetch_and_normalize22format_value_and_traceB5cxx11Ev
	.cfi_endproc
	.section	.gcc_except_table._ZNK8pybind116detail25error_fetch_and_normalize22format_value_and_traceB5cxx11Ev,"aG",@progbits,_ZNK8pybind116detail25error_fetch_and_normalize22format_value_and_traceB5cxx11Ev,comdat
	.p2align	2, 0x0
GCC_except_table15:
.Lexception8:
	.byte	255                             # @LPStart Encoding = omit
	.byte	155                             # @TType Encoding = indirect pcrel sdata4
	.uleb128 .Lttbase5-.Lttbaseref5
.Lttbaseref5:
	.byte	1                               # Call site Encoding = uleb128
	.uleb128 .Lcst_end8-.Lcst_begin8
.Lcst_begin8:
	.uleb128 .Ltmp294-.Lfunc_begin8         # >> Call Site 1 <<
	.uleb128 .Ltmp295-.Ltmp294              #   Call between .Ltmp294 and .Ltmp295
	.uleb128 .Ltmp296-.Lfunc_begin8         #     jumps to .Ltmp296
	.byte	0                               #   On action: cleanup
	.uleb128 .Ltmp297-.Lfunc_begin8         # >> Call Site 2 <<
	.uleb128 .Ltmp298-.Ltmp297              #   Call between .Ltmp297 and .Ltmp298
	.uleb128 .Ltmp299-.Lfunc_begin8         #     jumps to .Ltmp299
	.byte	0                               #   On action: cleanup
	.uleb128 .Ltmp300-.Lfunc_begin8         # >> Call Site 3 <<
	.uleb128 .Ltmp301-.Ltmp300              #   Call between .Ltmp300 and .Ltmp301
	.uleb128 .Ltmp316-.Lfunc_begin8         #     jumps to .Ltmp316
	.byte	0                               #   On action: cleanup
	.uleb128 .Ltmp302-.Lfunc_begin8         # >> Call Site 4 <<
	.uleb128 .Ltmp303-.Ltmp302              #   Call between .Ltmp302 and .Ltmp303
	.uleb128 .Ltmp310-.Lfunc_begin8         #     jumps to .Ltmp310
	.byte	0                               #   On action: cleanup
	.uleb128 .Ltmp487-.Lfunc_begin8         # >> Call Site 5 <<
	.uleb128 .Ltmp492-.Ltmp487              #   Call between .Ltmp487 and .Ltmp492
	.uleb128 .Ltmp493-.Lfunc_begin8         #     jumps to .Ltmp493
	.byte	0                               #   On action: cleanup
	.uleb128 .Ltmp329-.Lfunc_begin8         # >> Call Site 6 <<
	.uleb128 .Ltmp330-.Ltmp329              #   Call between .Ltmp329 and .Ltmp330
	.uleb128 .Ltmp331-.Lfunc_begin8         #     jumps to .Ltmp331
	.byte	0                               #   On action: cleanup
	.uleb128 .Ltmp317-.Lfunc_begin8         # >> Call Site 7 <<
	.uleb128 .Ltmp318-.Ltmp317              #   Call between .Ltmp317 and .Ltmp318
	.uleb128 .Ltmp319-.Lfunc_begin8         #     jumps to .Ltmp319
	.byte	0                               #   On action: cleanup
	.uleb128 .Ltmp311-.Lfunc_begin8         # >> Call Site 8 <<
	.uleb128 .Ltmp312-.Ltmp311              #   Call between .Ltmp311 and .Ltmp312
	.uleb128 .Ltmp313-.Lfunc_begin8         #     jumps to .Ltmp313
	.byte	0                               #   On action: cleanup
	.uleb128 .Ltmp312-.Lfunc_begin8         # >> Call Site 9 <<
	.uleb128 .Ltmp332-.Ltmp312              #   Call between .Ltmp312 and .Ltmp332
	.byte	0                               #     has no landing pad
	.byte	0                               #   On action: cleanup
	.uleb128 .Ltmp332-.Lfunc_begin8         # >> Call Site 10 <<
	.uleb128 .Ltmp333-.Ltmp332              #   Call between .Ltmp332 and .Ltmp333
	.uleb128 .Ltmp334-.Lfunc_begin8         #     jumps to .Ltmp334
	.byte	0                               #   On action: cleanup
	.uleb128 .Ltmp333-.Lfunc_begin8         # >> Call Site 11 <<
	.uleb128 .Ltmp320-.Ltmp333              #   Call between .Ltmp333 and .Ltmp320
	.byte	0                               #     has no landing pad
	.byte	0                               #   On action: cleanup
	.uleb128 .Ltmp320-.Lfunc_begin8         # >> Call Site 12 <<
	.uleb128 .Ltmp321-.Ltmp320              #   Call between .Ltmp320 and .Ltmp321
	.uleb128 .Ltmp322-.Lfunc_begin8         #     jumps to .Ltmp322
	.byte	0                               #   On action: cleanup
	.uleb128 .Ltmp321-.Lfunc_begin8         # >> Call Site 13 <<
	.uleb128 .Ltmp314-.Ltmp321              #   Call between .Ltmp321 and .Ltmp314
	.byte	0                               #     has no landing pad
	.byte	0                               #   On action: cleanup
	.uleb128 .Ltmp314-.Lfunc_begin8         # >> Call Site 14 <<
	.uleb128 .Ltmp315-.Ltmp314              #   Call between .Ltmp314 and .Ltmp315
	.uleb128 .Ltmp316-.Lfunc_begin8         #     jumps to .Ltmp316
	.byte	0                               #   On action: cleanup
	.uleb128 .Ltmp326-.Lfunc_begin8         # >> Call Site 15 <<
	.uleb128 .Ltmp327-.Ltmp326              #   Call between .Ltmp326 and .Ltmp327
	.uleb128 .Ltmp328-.Lfunc_begin8         #     jumps to .Ltmp328
	.byte	1                               #   On action: 1
	.uleb128 .Ltmp335-.Lfunc_begin8         # >> Call Site 16 <<
	.uleb128 .Ltmp336-.Ltmp335              #   Call between .Ltmp335 and .Ltmp336
	.uleb128 .Ltmp337-.Lfunc_begin8         #     jumps to .Ltmp337
	.byte	0                               #   On action: cleanup
	.uleb128 .Ltmp338-.Lfunc_begin8         # >> Call Site 17 <<
	.uleb128 .Ltmp339-.Ltmp338              #   Call between .Ltmp338 and .Ltmp339
	.uleb128 .Ltmp340-.Lfunc_begin8         #     jumps to .Ltmp340
	.byte	0                               #   On action: cleanup
	.uleb128 .Ltmp472-.Lfunc_begin8         # >> Call Site 18 <<
	.uleb128 .Ltmp473-.Ltmp472              #   Call between .Ltmp472 and .Ltmp473
	.uleb128 .Ltmp474-.Lfunc_begin8         #     jumps to .Ltmp474
	.byte	0                               #   On action: cleanup
	.uleb128 .Ltmp455-.Lfunc_begin8         # >> Call Site 19 <<
	.uleb128 .Ltmp456-.Ltmp455              #   Call between .Ltmp455 and .Ltmp456
	.uleb128 .Ltmp457-.Lfunc_begin8         #     jumps to .Ltmp457
	.byte	0                               #   On action: cleanup
	.uleb128 .Ltmp460-.Lfunc_begin8         # >> Call Site 20 <<
	.uleb128 .Ltmp461-.Ltmp460              #   Call between .Ltmp460 and .Ltmp461
	.uleb128 .Ltmp471-.Lfunc_begin8         #     jumps to .Ltmp471
	.byte	0                               #   On action: cleanup
	.uleb128 .Ltmp341-.Lfunc_begin8         # >> Call Site 21 <<
	.uleb128 .Ltmp342-.Ltmp341              #   Call between .Ltmp341 and .Ltmp342
	.uleb128 .Ltmp343-.Lfunc_begin8         #     jumps to .Ltmp343
	.byte	0                               #   On action: cleanup
	.uleb128 .Ltmp342-.Lfunc_begin8         # >> Call Site 22 <<
	.uleb128 .Ltmp346-.Ltmp342              #   Call between .Ltmp342 and .Ltmp346
	.byte	0                               #     has no landing pad
	.byte	0                               #   On action: cleanup
	.uleb128 .Ltmp346-.Lfunc_begin8         # >> Call Site 23 <<
	.uleb128 .Ltmp347-.Ltmp346              #   Call between .Ltmp346 and .Ltmp347
	.uleb128 .Ltmp454-.Lfunc_begin8         #     jumps to .Ltmp454
	.byte	0                               #   On action: cleanup
	.uleb128 .Ltmp347-.Lfunc_begin8         # >> Call Site 24 <<
	.uleb128 .Ltmp348-.Ltmp347              #   Call between .Ltmp347 and .Ltmp348
	.byte	0                               #     has no landing pad
	.byte	0                               #   On action: cleanup
	.uleb128 .Ltmp348-.Lfunc_begin8         # >> Call Site 25 <<
	.uleb128 .Ltmp349-.Ltmp348              #   Call between .Ltmp348 and .Ltmp349
	.uleb128 .Ltmp449-.Lfunc_begin8         #     jumps to .Ltmp449
	.byte	0                               #   On action: cleanup
	.uleb128 .Ltmp349-.Lfunc_begin8         # >> Call Site 26 <<
	.uleb128 .Ltmp350-.Ltmp349              #   Call between .Ltmp349 and .Ltmp350
	.byte	0                               #     has no landing pad
	.byte	0                               #   On action: cleanup
	.uleb128 .Ltmp350-.Lfunc_begin8         # >> Call Site 27 <<
	.uleb128 .Ltmp351-.Ltmp350              #   Call between .Ltmp350 and .Ltmp351
	.uleb128 .Ltmp446-.Lfunc_begin8         #     jumps to .Ltmp446
	.byte	0                               #   On action: cleanup
	.uleb128 .Ltmp351-.Lfunc_begin8         # >> Call Site 28 <<
	.uleb128 .Ltmp352-.Ltmp351              #   Call between .Ltmp351 and .Ltmp352
	.byte	0                               #     has no landing pad
	.byte	0                               #   On action: cleanup
	.uleb128 .Ltmp352-.Lfunc_begin8         # >> Call Site 29 <<
	.uleb128 .Ltmp353-.Ltmp352              #   Call between .Ltmp352 and .Ltmp353
	.uleb128 .Ltmp354-.Lfunc_begin8         #     jumps to .Ltmp354
	.byte	0                               #   On action: cleanup
	.uleb128 .Ltmp355-.Lfunc_begin8         # >> Call Site 30 <<
	.uleb128 .Ltmp358-.Ltmp355              #   Call between .Ltmp355 and .Ltmp358
	.uleb128 .Ltmp359-.Lfunc_begin8         #     jumps to .Ltmp359
	.byte	0                               #   On action: cleanup
	.uleb128 .Ltmp360-.Lfunc_begin8         # >> Call Site 31 <<
	.uleb128 .Ltmp361-.Ltmp360              #   Call between .Ltmp360 and .Ltmp361
	.uleb128 .Ltmp362-.Lfunc_begin8         #     jumps to .Ltmp362
	.byte	0                               #   On action: cleanup
	.uleb128 .Ltmp361-.Lfunc_begin8         # >> Call Site 32 <<
	.uleb128 .Ltmp363-.Ltmp361              #   Call between .Ltmp361 and .Ltmp363
	.byte	0                               #     has no landing pad
	.byte	0                               #   On action: cleanup
	.uleb128 .Ltmp363-.Lfunc_begin8         # >> Call Site 33 <<
	.uleb128 .Ltmp364-.Ltmp363              #   Call between .Ltmp363 and .Ltmp364
	.uleb128 .Ltmp365-.Lfunc_begin8         #     jumps to .Ltmp365
	.byte	0                               #   On action: cleanup
	.uleb128 .Ltmp364-.Lfunc_begin8         # >> Call Site 34 <<
	.uleb128 .Ltmp407-.Ltmp364              #   Call between .Ltmp364 and .Ltmp407
	.byte	0                               #     has no landing pad
	.byte	0                               #   On action: cleanup
	.uleb128 .Ltmp407-.Lfunc_begin8         # >> Call Site 35 <<
	.uleb128 .Ltmp408-.Ltmp407              #   Call between .Ltmp407 and .Ltmp408
	.uleb128 .Ltmp409-.Lfunc_begin8         #     jumps to .Ltmp409
	.byte	0                               #   On action: cleanup
	.uleb128 .Ltmp408-.Lfunc_begin8         # >> Call Site 36 <<
	.uleb128 .Ltmp412-.Ltmp408              #   Call between .Ltmp408 and .Ltmp412
	.byte	0                               #     has no landing pad
	.byte	0                               #   On action: cleanup
	.uleb128 .Ltmp412-.Lfunc_begin8         # >> Call Site 37 <<
	.uleb128 .Ltmp413-.Ltmp412              #   Call between .Ltmp412 and .Ltmp413
	.uleb128 .Ltmp414-.Lfunc_begin8         #     jumps to .Ltmp414
	.byte	0                               #   On action: cleanup
	.uleb128 .Ltmp413-.Lfunc_begin8         # >> Call Site 38 <<
	.uleb128 .Ltmp418-.Ltmp413              #   Call between .Ltmp413 and .Ltmp418
	.byte	0                               #     has no landing pad
	.byte	0                               #   On action: cleanup
	.uleb128 .Ltmp418-.Lfunc_begin8         # >> Call Site 39 <<
	.uleb128 .Ltmp419-.Ltmp418              #   Call between .Ltmp418 and .Ltmp419
	.uleb128 .Ltmp420-.Lfunc_begin8         #     jumps to .Ltmp420
	.byte	0                               #   On action: cleanup
	.uleb128 .Ltmp419-.Lfunc_begin8         # >> Call Site 40 <<
	.uleb128 .Ltmp421-.Ltmp419              #   Call between .Ltmp419 and .Ltmp421
	.byte	0                               #     has no landing pad
	.byte	0                               #   On action: cleanup
	.uleb128 .Ltmp421-.Lfunc_begin8         # >> Call Site 41 <<
	.uleb128 .Ltmp422-.Ltmp421              #   Call between .Ltmp421 and .Ltmp422
	.uleb128 .Ltmp423-.Lfunc_begin8         #     jumps to .Ltmp423
	.byte	0                               #   On action: cleanup
	.uleb128 .Ltmp424-.Lfunc_begin8         # >> Call Site 42 <<
	.uleb128 .Ltmp425-.Ltmp424              #   Call between .Ltmp424 and .Ltmp425
	.uleb128 .Ltmp426-.Lfunc_begin8         #     jumps to .Ltmp426
	.byte	0                               #   On action: cleanup
	.uleb128 .Ltmp427-.Lfunc_begin8         # >> Call Site 43 <<
	.uleb128 .Ltmp428-.Ltmp427              #   Call between .Ltmp427 and .Ltmp428
	.uleb128 .Ltmp429-.Lfunc_begin8         #     jumps to .Ltmp429
	.byte	0                               #   On action: cleanup
	.uleb128 .Ltmp428-.Lfunc_begin8         # >> Call Site 44 <<
	.uleb128 .Ltmp376-.Ltmp428              #   Call between .Ltmp428 and .Ltmp376
	.byte	0                               #     has no landing pad
	.byte	0                               #   On action: cleanup
	.uleb128 .Ltmp376-.Lfunc_begin8         # >> Call Site 45 <<
	.uleb128 .Ltmp377-.Ltmp376              #   Call between .Ltmp376 and .Ltmp377
	.uleb128 .Ltmp378-.Lfunc_begin8         #     jumps to .Ltmp378
	.byte	0                               #   On action: cleanup
	.uleb128 .Ltmp377-.Lfunc_begin8         # >> Call Site 46 <<
	.uleb128 .Ltmp381-.Ltmp377              #   Call between .Ltmp377 and .Ltmp381
	.byte	0                               #     has no landing pad
	.byte	0                               #   On action: cleanup
	.uleb128 .Ltmp381-.Lfunc_begin8         # >> Call Site 47 <<
	.uleb128 .Ltmp382-.Ltmp381              #   Call between .Ltmp381 and .Ltmp382
	.uleb128 .Ltmp383-.Lfunc_begin8         #     jumps to .Ltmp383
	.byte	0                               #   On action: cleanup
	.uleb128 .Ltmp382-.Lfunc_begin8         # >> Call Site 48 <<
	.uleb128 .Ltmp387-.Ltmp382              #   Call between .Ltmp382 and .Ltmp387
	.byte	0                               #     has no landing pad
	.byte	0                               #   On action: cleanup
	.uleb128 .Ltmp387-.Lfunc_begin8         # >> Call Site 49 <<
	.uleb128 .Ltmp388-.Ltmp387              #   Call between .Ltmp387 and .Ltmp388
	.uleb128 .Ltmp389-.Lfunc_begin8         #     jumps to .Ltmp389
	.byte	0                               #   On action: cleanup
	.uleb128 .Ltmp388-.Lfunc_begin8         # >> Call Site 50 <<
	.uleb128 .Ltmp390-.Ltmp388              #   Call between .Ltmp388 and .Ltmp390
	.byte	0                               #     has no landing pad
	.byte	0                               #   On action: cleanup
	.uleb128 .Ltmp390-.Lfunc_begin8         # >> Call Site 51 <<
	.uleb128 .Ltmp391-.Ltmp390              #   Call between .Ltmp390 and .Ltmp391
	.uleb128 .Ltmp392-.Lfunc_begin8         #     jumps to .Ltmp392
	.byte	0                               #   On action: cleanup
	.uleb128 .Ltmp393-.Lfunc_begin8         # >> Call Site 52 <<
	.uleb128 .Ltmp394-.Ltmp393              #   Call between .Ltmp393 and .Ltmp394
	.uleb128 .Ltmp395-.Lfunc_begin8         #     jumps to .Ltmp395
	.byte	0                               #   On action: cleanup
	.uleb128 .Ltmp396-.Lfunc_begin8         # >> Call Site 53 <<
	.uleb128 .Ltmp397-.Ltmp396              #   Call between .Ltmp396 and .Ltmp397
	.uleb128 .Ltmp398-.Lfunc_begin8         #     jumps to .Ltmp398
	.byte	0                               #   On action: cleanup
	.uleb128 .Ltmp397-.Lfunc_begin8         # >> Call Site 54 <<
	.uleb128 .Ltmp430-.Ltmp397              #   Call between .Ltmp397 and .Ltmp430
	.byte	0                               #     has no landing pad
	.byte	0                               #   On action: cleanup
	.uleb128 .Ltmp430-.Lfunc_begin8         # >> Call Site 55 <<
	.uleb128 .Ltmp431-.Ltmp430              #   Call between .Ltmp430 and .Ltmp431
	.uleb128 .Ltmp432-.Lfunc_begin8         #     jumps to .Ltmp432
	.byte	1                               #   On action: 1
	.uleb128 .Ltmp431-.Lfunc_begin8         # >> Call Site 56 <<
	.uleb128 .Ltmp410-.Ltmp431              #   Call between .Ltmp431 and .Ltmp410
	.byte	0                               #     has no landing pad
	.byte	0                               #   On action: cleanup
	.uleb128 .Ltmp410-.Lfunc_begin8         # >> Call Site 57 <<
	.uleb128 .Ltmp411-.Ltmp410              #   Call between .Ltmp410 and .Ltmp411
	.uleb128 .Ltmp414-.Lfunc_begin8         #     jumps to .Ltmp414
	.byte	0                               #   On action: cleanup
	.uleb128 .Ltmp379-.Lfunc_begin8         # >> Call Site 58 <<
	.uleb128 .Ltmp380-.Ltmp379              #   Call between .Ltmp379 and .Ltmp380
	.uleb128 .Ltmp383-.Lfunc_begin8         #     jumps to .Ltmp383
	.byte	0                               #   On action: cleanup
	.uleb128 .Ltmp380-.Lfunc_begin8         # >> Call Site 59 <<
	.uleb128 .Ltmp462-.Ltmp380              #   Call between .Ltmp380 and .Ltmp462
	.byte	0                               #     has no landing pad
	.byte	0                               #   On action: cleanup
	.uleb128 .Ltmp462-.Lfunc_begin8         # >> Call Site 60 <<
	.uleb128 .Ltmp463-.Ltmp462              #   Call between .Ltmp462 and .Ltmp463
	.uleb128 .Ltmp466-.Lfunc_begin8         #     jumps to .Ltmp466
	.byte	0                               #   On action: cleanup
	.uleb128 .Ltmp463-.Lfunc_begin8         # >> Call Site 61 <<
	.uleb128 .Ltmp481-.Ltmp463              #   Call between .Ltmp463 and .Ltmp481
	.byte	0                               #     has no landing pad
	.byte	0                               #   On action: cleanup
	.uleb128 .Ltmp481-.Lfunc_begin8         # >> Call Site 62 <<
	.uleb128 .Ltmp482-.Ltmp481              #   Call between .Ltmp481 and .Ltmp482
	.uleb128 .Ltmp483-.Lfunc_begin8         #     jumps to .Ltmp483
	.byte	1                               #   On action: 1
	.uleb128 .Ltmp484-.Lfunc_begin8         # >> Call Site 63 <<
	.uleb128 .Ltmp485-.Ltmp484              #   Call between .Ltmp484 and .Ltmp485
	.uleb128 .Ltmp486-.Lfunc_begin8         #     jumps to .Ltmp486
	.byte	1                               #   On action: 1
	.uleb128 .Ltmp494-.Lfunc_begin8         # >> Call Site 64 <<
	.uleb128 .Ltmp495-.Ltmp494              #   Call between .Ltmp494 and .Ltmp495
	.uleb128 .Ltmp549-.Lfunc_begin8         #     jumps to .Ltmp549
	.byte	0                               #   On action: cleanup
	.uleb128 .Ltmp550-.Lfunc_begin8         # >> Call Site 65 <<
	.uleb128 .Ltmp551-.Ltmp550              #   Call between .Ltmp550 and .Ltmp551
	.uleb128 .Ltmp552-.Lfunc_begin8         #     jumps to .Ltmp552
	.byte	0                               #   On action: cleanup
	.uleb128 .Ltmp496-.Lfunc_begin8         # >> Call Site 66 <<
	.uleb128 .Ltmp497-.Ltmp496              #   Call between .Ltmp496 and .Ltmp497
	.uleb128 .Ltmp498-.Lfunc_begin8         #     jumps to .Ltmp498
	.byte	0                               #   On action: cleanup
	.uleb128 .Ltmp499-.Lfunc_begin8         # >> Call Site 67 <<
	.uleb128 .Ltmp502-.Ltmp499              #   Call between .Ltmp499 and .Ltmp502
	.uleb128 .Ltmp529-.Lfunc_begin8         #     jumps to .Ltmp529
	.byte	0                               #   On action: cleanup
	.uleb128 .Ltmp503-.Lfunc_begin8         # >> Call Site 68 <<
	.uleb128 .Ltmp504-.Ltmp503              #   Call between .Ltmp503 and .Ltmp504
	.uleb128 .Ltmp505-.Lfunc_begin8         #     jumps to .Ltmp505
	.byte	0                               #   On action: cleanup
	.uleb128 .Ltmp504-.Lfunc_begin8         # >> Call Site 69 <<
	.uleb128 .Ltmp506-.Ltmp504              #   Call between .Ltmp504 and .Ltmp506
	.byte	0                               #     has no landing pad
	.byte	0                               #   On action: cleanup
	.uleb128 .Ltmp506-.Lfunc_begin8         # >> Call Site 70 <<
	.uleb128 .Ltmp507-.Ltmp506              #   Call between .Ltmp506 and .Ltmp507
	.uleb128 .Ltmp508-.Lfunc_begin8         #     jumps to .Ltmp508
	.byte	0                               #   On action: cleanup
	.uleb128 .Ltmp507-.Lfunc_begin8         # >> Call Site 71 <<
	.uleb128 .Ltmp509-.Ltmp507              #   Call between .Ltmp507 and .Ltmp509
	.byte	0                               #     has no landing pad
	.byte	0                               #   On action: cleanup
	.uleb128 .Ltmp509-.Lfunc_begin8         # >> Call Site 72 <<
	.uleb128 .Ltmp510-.Ltmp509              #   Call between .Ltmp509 and .Ltmp510
	.uleb128 .Ltmp529-.Lfunc_begin8         #     jumps to .Ltmp529
	.byte	0                               #   On action: cleanup
	.uleb128 .Ltmp511-.Lfunc_begin8         # >> Call Site 73 <<
	.uleb128 .Ltmp512-.Ltmp511              #   Call between .Ltmp511 and .Ltmp512
	.uleb128 .Ltmp513-.Lfunc_begin8         #     jumps to .Ltmp513
	.byte	1                               #   On action: 1
	.uleb128 .Ltmp512-.Lfunc_begin8         # >> Call Site 74 <<
	.uleb128 .Ltmp514-.Ltmp512              #   Call between .Ltmp512 and .Ltmp514
	.byte	0                               #     has no landing pad
	.byte	0                               #   On action: cleanup
	.uleb128 .Ltmp514-.Lfunc_begin8         # >> Call Site 75 <<
	.uleb128 .Ltmp515-.Ltmp514              #   Call between .Ltmp514 and .Ltmp515
	.uleb128 .Ltmp516-.Lfunc_begin8         #     jumps to .Ltmp516
	.byte	0                               #   On action: cleanup
	.uleb128 .Ltmp515-.Lfunc_begin8         # >> Call Site 76 <<
	.uleb128 .Ltmp517-.Ltmp515              #   Call between .Ltmp515 and .Ltmp517
	.byte	0                               #     has no landing pad
	.byte	0                               #   On action: cleanup
	.uleb128 .Ltmp517-.Lfunc_begin8         # >> Call Site 77 <<
	.uleb128 .Ltmp518-.Ltmp517              #   Call between .Ltmp517 and .Ltmp518
	.uleb128 .Ltmp529-.Lfunc_begin8         #     jumps to .Ltmp529
	.byte	0                               #   On action: cleanup
	.uleb128 .Ltmp519-.Lfunc_begin8         # >> Call Site 78 <<
	.uleb128 .Ltmp520-.Ltmp519              #   Call between .Ltmp519 and .Ltmp520
	.uleb128 .Ltmp521-.Lfunc_begin8         #     jumps to .Ltmp521
	.byte	0                               #   On action: cleanup
	.uleb128 .Ltmp520-.Lfunc_begin8         # >> Call Site 79 <<
	.uleb128 .Ltmp522-.Ltmp520              #   Call between .Ltmp520 and .Ltmp522
	.byte	0                               #     has no landing pad
	.byte	0                               #   On action: cleanup
	.uleb128 .Ltmp522-.Lfunc_begin8         # >> Call Site 80 <<
	.uleb128 .Ltmp523-.Ltmp522              #   Call between .Ltmp522 and .Ltmp523
	.uleb128 .Ltmp524-.Lfunc_begin8         #     jumps to .Ltmp524
	.byte	0                               #   On action: cleanup
	.uleb128 .Ltmp523-.Lfunc_begin8         # >> Call Site 81 <<
	.uleb128 .Ltmp525-.Ltmp523              #   Call between .Ltmp523 and .Ltmp525
	.byte	0                               #     has no landing pad
	.byte	0                               #   On action: cleanup
	.uleb128 .Ltmp525-.Lfunc_begin8         # >> Call Site 82 <<
	.uleb128 .Ltmp528-.Ltmp525              #   Call between .Ltmp525 and .Ltmp528
	.uleb128 .Ltmp529-.Lfunc_begin8         #     jumps to .Ltmp529
	.byte	0                               #   On action: cleanup
	.uleb128 .Ltmp530-.Lfunc_begin8         # >> Call Site 83 <<
	.uleb128 .Ltmp533-.Ltmp530              #   Call between .Ltmp530 and .Ltmp533
	.uleb128 .Ltmp534-.Lfunc_begin8         #     jumps to .Ltmp534
	.byte	0                               #   On action: cleanup
	.uleb128 .Ltmp553-.Lfunc_begin8         # >> Call Site 84 <<
	.uleb128 .Ltmp554-.Ltmp553              #   Call between .Ltmp553 and .Ltmp554
	.uleb128 .Ltmp555-.Lfunc_begin8         #     jumps to .Ltmp555
	.byte	0                               #   On action: cleanup
	.uleb128 .Ltmp556-.Lfunc_begin8         # >> Call Site 85 <<
	.uleb128 .Ltmp557-.Ltmp556              #   Call between .Ltmp556 and .Ltmp557
	.uleb128 .Ltmp560-.Lfunc_begin8         #     jumps to .Ltmp560
	.byte	0                               #   On action: cleanup
	.uleb128 .Ltmp557-.Lfunc_begin8         # >> Call Site 86 <<
	.uleb128 .Ltmp369-.Ltmp557              #   Call between .Ltmp557 and .Ltmp369
	.byte	0                               #     has no landing pad
	.byte	0                               #   On action: cleanup
	.uleb128 .Ltmp369-.Lfunc_begin8         # >> Call Site 87 <<
	.uleb128 .Ltmp370-.Ltmp369              #   Call between .Ltmp369 and .Ltmp370
	.uleb128 .Ltmp375-.Lfunc_begin8         #     jumps to .Ltmp375
	.byte	0                               #   On action: cleanup
	.uleb128 .Ltmp436-.Lfunc_begin8         # >> Call Site 88 <<
	.uleb128 .Ltmp437-.Ltmp436              #   Call between .Ltmp436 and .Ltmp437
	.uleb128 .Ltmp440-.Lfunc_begin8         #     jumps to .Ltmp440
	.byte	0                               #   On action: cleanup
	.uleb128 .Ltmp402-.Lfunc_begin8         # >> Call Site 89 <<
	.uleb128 .Ltmp403-.Ltmp402              #   Call between .Ltmp402 and .Ltmp403
	.uleb128 .Ltmp406-.Lfunc_begin8         #     jumps to .Ltmp406
	.byte	0                               #   On action: cleanup
	.uleb128 .Ltmp489-.Lfunc_begin8         # >> Call Site 90 <<
	.uleb128 .Ltmp490-.Ltmp489              #   Call between .Ltmp489 and .Ltmp490
	.uleb128 .Ltmp493-.Lfunc_begin8         #     jumps to .Ltmp493
	.byte	0                               #   On action: cleanup
	.uleb128 .Ltmp450-.Lfunc_begin8         # >> Call Site 91 <<
	.uleb128 .Ltmp451-.Ltmp450              #   Call between .Ltmp450 and .Ltmp451
	.uleb128 .Ltmp454-.Lfunc_begin8         #     jumps to .Ltmp454
	.byte	0                               #   On action: cleanup
	.uleb128 .Ltmp467-.Lfunc_begin8         # >> Call Site 92 <<
	.uleb128 .Ltmp468-.Ltmp467              #   Call between .Ltmp467 and .Ltmp468
	.uleb128 .Ltmp471-.Lfunc_begin8         #     jumps to .Ltmp471
	.byte	0                               #   On action: cleanup
	.uleb128 .Ltmp304-.Lfunc_begin8         # >> Call Site 93 <<
	.uleb128 .Ltmp305-.Ltmp304              #   Call between .Ltmp304 and .Ltmp305
	.uleb128 .Ltmp310-.Lfunc_begin8         #     jumps to .Ltmp310
	.byte	0                               #   On action: cleanup
	.uleb128 .Ltmp344-.Lfunc_begin8         # >> Call Site 94 <<
	.uleb128 .Ltmp345-.Ltmp344              #   Call between .Ltmp344 and .Ltmp345
	.uleb128 .Ltmp454-.Lfunc_begin8         #     jumps to .Ltmp454
	.byte	0                               #   On action: cleanup
	.uleb128 .Ltmp544-.Lfunc_begin8         # >> Call Site 95 <<
	.uleb128 .Ltmp545-.Ltmp544              #   Call between .Ltmp544 and .Ltmp545
	.uleb128 .Ltmp546-.Lfunc_begin8         #     jumps to .Ltmp546
	.byte	0                               #   On action: cleanup
	.uleb128 .Ltmp458-.Lfunc_begin8         # >> Call Site 96 <<
	.uleb128 .Ltmp459-.Ltmp458              #   Call between .Ltmp458 and .Ltmp459
	.uleb128 .Ltmp471-.Lfunc_begin8         #     jumps to .Ltmp471
	.byte	0                               #   On action: cleanup
	.uleb128 .Ltmp541-.Lfunc_begin8         # >> Call Site 97 <<
	.uleb128 .Ltmp542-.Ltmp541              #   Call between .Ltmp541 and .Ltmp542
	.uleb128 .Ltmp543-.Lfunc_begin8         #     jumps to .Ltmp543
	.byte	0                               #   On action: cleanup
	.uleb128 .Ltmp538-.Lfunc_begin8         # >> Call Site 98 <<
	.uleb128 .Ltmp539-.Ltmp538              #   Call between .Ltmp538 and .Ltmp539
	.uleb128 .Ltmp540-.Lfunc_begin8         #     jumps to .Ltmp540
	.byte	0                               #   On action: cleanup
	.uleb128 .Ltmp535-.Lfunc_begin8         # >> Call Site 99 <<
	.uleb128 .Ltmp536-.Ltmp535              #   Call between .Ltmp535 and .Ltmp536
	.uleb128 .Ltmp537-.Lfunc_begin8         #     jumps to .Ltmp537
	.byte	0                               #   On action: cleanup
	.uleb128 .Ltmp373-.Lfunc_begin8         # >> Call Site 100 <<
	.uleb128 .Ltmp374-.Ltmp373              #   Call between .Ltmp373 and .Ltmp374
	.uleb128 .Ltmp375-.Lfunc_begin8         #     jumps to .Ltmp375
	.byte	0                               #   On action: cleanup
	.uleb128 .Ltmp366-.Lfunc_begin8         # >> Call Site 101 <<
	.uleb128 .Ltmp367-.Ltmp366              #   Call between .Ltmp366 and .Ltmp367
	.uleb128 .Ltmp368-.Lfunc_begin8         #     jumps to .Ltmp368
	.byte	0                               #   On action: cleanup
	.uleb128 .Ltmp433-.Lfunc_begin8         # >> Call Site 102 <<
	.uleb128 .Ltmp434-.Ltmp433              #   Call between .Ltmp433 and .Ltmp434
	.uleb128 .Ltmp435-.Lfunc_begin8         #     jumps to .Ltmp435
	.byte	0                               #   On action: cleanup
	.uleb128 .Ltmp415-.Lfunc_begin8         # >> Call Site 103 <<
	.uleb128 .Ltmp416-.Ltmp415              #   Call between .Ltmp415 and .Ltmp416
	.uleb128 .Ltmp417-.Lfunc_begin8         #     jumps to .Ltmp417
	.byte	0                               #   On action: cleanup
	.uleb128 .Ltmp399-.Lfunc_begin8         # >> Call Site 104 <<
	.uleb128 .Ltmp400-.Ltmp399              #   Call between .Ltmp399 and .Ltmp400
	.uleb128 .Ltmp401-.Lfunc_begin8         #     jumps to .Ltmp401
	.byte	0                               #   On action: cleanup
	.uleb128 .Ltmp371-.Lfunc_begin8         # >> Call Site 105 <<
	.uleb128 .Ltmp372-.Ltmp371              #   Call between .Ltmp371 and .Ltmp372
	.uleb128 .Ltmp375-.Lfunc_begin8         #     jumps to .Ltmp375
	.byte	0                               #   On action: cleanup
	.uleb128 .Ltmp438-.Lfunc_begin8         # >> Call Site 106 <<
	.uleb128 .Ltmp439-.Ltmp438              #   Call between .Ltmp438 and .Ltmp439
	.uleb128 .Ltmp440-.Lfunc_begin8         #     jumps to .Ltmp440
	.byte	0                               #   On action: cleanup
	.uleb128 .Ltmp384-.Lfunc_begin8         # >> Call Site 107 <<
	.uleb128 .Ltmp385-.Ltmp384              #   Call between .Ltmp384 and .Ltmp385
	.uleb128 .Ltmp386-.Lfunc_begin8         #     jumps to .Ltmp386
	.byte	0                               #   On action: cleanup
	.uleb128 .Ltmp547-.Lfunc_begin8         # >> Call Site 108 <<
	.uleb128 .Ltmp548-.Ltmp547              #   Call between .Ltmp547 and .Ltmp548
	.uleb128 .Ltmp549-.Lfunc_begin8         #     jumps to .Ltmp549
	.byte	0                               #   On action: cleanup
	.uleb128 .Ltmp558-.Lfunc_begin8         # >> Call Site 109 <<
	.uleb128 .Ltmp559-.Ltmp558              #   Call between .Ltmp558 and .Ltmp559
	.uleb128 .Ltmp560-.Lfunc_begin8         #     jumps to .Ltmp560
	.byte	0                               #   On action: cleanup
	.uleb128 .Ltmp404-.Lfunc_begin8         # >> Call Site 110 <<
	.uleb128 .Ltmp405-.Ltmp404              #   Call between .Ltmp404 and .Ltmp405
	.uleb128 .Ltmp406-.Lfunc_begin8         #     jumps to .Ltmp406
	.byte	0                               #   On action: cleanup
	.uleb128 .Ltmp447-.Lfunc_begin8         # >> Call Site 111 <<
	.uleb128 .Ltmp448-.Ltmp447              #   Call between .Ltmp447 and .Ltmp448
	.uleb128 .Ltmp449-.Lfunc_begin8         #     jumps to .Ltmp449
	.byte	0                               #   On action: cleanup
	.uleb128 .Ltmp444-.Lfunc_begin8         # >> Call Site 112 <<
	.uleb128 .Ltmp445-.Ltmp444              #   Call between .Ltmp444 and .Ltmp445
	.uleb128 .Ltmp446-.Lfunc_begin8         #     jumps to .Ltmp446
	.byte	0                               #   On action: cleanup
	.uleb128 .Ltmp452-.Lfunc_begin8         # >> Call Site 113 <<
	.uleb128 .Ltmp453-.Ltmp452              #   Call between .Ltmp452 and .Ltmp453
	.uleb128 .Ltmp454-.Lfunc_begin8         #     jumps to .Ltmp454
	.byte	0                               #   On action: cleanup
	.uleb128 .Ltmp308-.Lfunc_begin8         # >> Call Site 114 <<
	.uleb128 .Ltmp309-.Ltmp308              #   Call between .Ltmp308 and .Ltmp309
	.uleb128 .Ltmp310-.Lfunc_begin8         #     jumps to .Ltmp310
	.byte	0                               #   On action: cleanup
	.uleb128 .Ltmp464-.Lfunc_begin8         # >> Call Site 115 <<
	.uleb128 .Ltmp465-.Ltmp464              #   Call between .Ltmp464 and .Ltmp465
	.uleb128 .Ltmp466-.Lfunc_begin8         #     jumps to .Ltmp466
	.byte	0                               #   On action: cleanup
	.uleb128 .Ltmp469-.Lfunc_begin8         # >> Call Site 116 <<
	.uleb128 .Ltmp470-.Ltmp469              #   Call between .Ltmp469 and .Ltmp470
	.uleb128 .Ltmp471-.Lfunc_begin8         #     jumps to .Ltmp471
	.byte	0                               #   On action: cleanup
	.uleb128 .Ltmp306-.Lfunc_begin8         # >> Call Site 117 <<
	.uleb128 .Ltmp307-.Ltmp306              #   Call between .Ltmp306 and .Ltmp307
	.uleb128 .Ltmp310-.Lfunc_begin8         #     jumps to .Ltmp310
	.byte	0                               #   On action: cleanup
	.uleb128 .Ltmp323-.Lfunc_begin8         # >> Call Site 118 <<
	.uleb128 .Ltmp324-.Ltmp323              #   Call between .Ltmp323 and .Ltmp324
	.uleb128 .Ltmp325-.Lfunc_begin8         #     jumps to .Ltmp325
	.byte	1                               #   On action: 1
	.uleb128 .Ltmp441-.Lfunc_begin8         # >> Call Site 119 <<
	.uleb128 .Ltmp442-.Ltmp441              #   Call between .Ltmp441 and .Ltmp442
	.uleb128 .Ltmp443-.Lfunc_begin8         #     jumps to .Ltmp443
	.byte	1                               #   On action: 1
	.uleb128 .Ltmp475-.Lfunc_begin8         # >> Call Site 120 <<
	.uleb128 .Ltmp476-.Ltmp475              #   Call between .Ltmp475 and .Ltmp476
	.uleb128 .Ltmp477-.Lfunc_begin8         #     jumps to .Ltmp477
	.byte	1                               #   On action: 1
	.uleb128 .Ltmp478-.Lfunc_begin8         # >> Call Site 121 <<
	.uleb128 .Ltmp479-.Ltmp478              #   Call between .Ltmp478 and .Ltmp479
	.uleb128 .Ltmp480-.Lfunc_begin8         #     jumps to .Ltmp480
	.byte	1                               #   On action: 1
	.uleb128 .Ltmp479-.Lfunc_begin8         # >> Call Site 122 <<
	.uleb128 .Lfunc_end15-.Ltmp479          #   Call between .Ltmp479 and .Lfunc_end15
	.byte	0                               #     has no landing pad
	.byte	0                               #   On action: cleanup
.Lcst_end8:
	.byte	1                               # >> Action Record 1 <<
                                        #   Catch TypeInfo 1
	.byte	0                               #   No further actions
	.p2align	2, 0x0
                                        # >> Catch TypeInfos <<
	.long	0                               # TypeInfo 1
.Lttbase5:
	.p2align	2, 0x0
                                        # -- End function
	.section	.text._ZNSt7__cxx1112basic_stringIcSt11char_traitsIcESaIcEE10_M_replaceEmmPKcm,"axG",@progbits,_ZNSt7__cxx1112basic_stringIcSt11char_traitsIcESaIcEE10_M_replaceEmmPKcm,comdat
	.weak	_ZNSt7__cxx1112basic_stringIcSt11char_traitsIcESaIcEE10_M_replaceEmmPKcm # -- Begin function _ZNSt7__cxx1112basic_stringIcSt11char_traitsIcESaIcEE10_M_replaceEmmPKcm
	.p2align	4, 0x90
	.type	_ZNSt7__cxx1112basic_stringIcSt11char_traitsIcESaIcEE10_M_replaceEmmPKcm,@function
_ZNSt7__cxx1112basic_stringIcSt11char_traitsIcESaIcEE10_M_replaceEmmPKcm: # @_ZNSt7__cxx1112basic_stringIcSt11char_traitsIcESaIcEE10_M_replaceEmmPKcm
	.cfi_startproc
# %bb.0:
	pushq	%r15
	.cfi_def_cfa_offset 16
	pushq	%r14
	.cfi_def_cfa_offset 24
	pushq	%r13
	.cfi_def_cfa_offset 32
	pushq	%r12
	.cfi_def_cfa_offset 40
	pushq	%rbx
	.cfi_def_cfa_offset 48
	.cfi_offset %rbx, -48
	.cfi_offset %r12, -40
	.cfi_offset %r13, -32
	.cfi_offset %r14, -24
	.cfi_offset %r15, -16
	movq	%rdi, %rbx
	movq	8(%rdi), %rax
	movq	%rdx, %rdi
	subq	%rax, %rdi
	movabsq	$9223372036854775807, %r9       # imm = 0x7FFFFFFFFFFFFFFF
	addq	%rdi, %r9
	cmpq	%r8, %r9
	jb	.LBB16_17
# %bb.1:                                # %_ZNKSt7__cxx1112basic_stringIcSt11char_traitsIcESaIcEE15_M_check_lengthEmmPKc.exit
	movq	%r8, %r15
	subq	%rdx, %r15
	addq	%rax, %r15
	movq	(%rbx), %rdi
	leaq	16(%rbx), %r10
	movl	$15, %r9d
	cmpq	%r10, %rdi
	je	.LBB16_3
# %bb.2:                                # %_ZNKSt7__cxx1112basic_stringIcSt11char_traitsIcESaIcEE15_M_check_lengthEmmPKc.exit
	movq	16(%rbx), %r9
.LBB16_3:                               # %_ZNKSt7__cxx1112basic_stringIcSt11char_traitsIcESaIcEE15_M_check_lengthEmmPKc.exit
	cmpq	%r9, %r15
	jbe	.LBB16_4
# %bb.15:
	movq	%rbx, %rdi
	callq	_ZNSt7__cxx1112basic_stringIcSt11char_traitsIcESaIcEE9_M_mutateEmmPKcm@PLT
	jmp	.LBB16_16
.LBB16_4:
	leaq	(%rdi,%rsi), %r14
	addq	%rdx, %rsi
	movq	%rax, %r9
	subq	%rsi, %r9
	cmpq	%rcx, %rdi
	seta	%r10b
	addq	%rax, %rdi
	cmpq	%rcx, %rdi
	setb	%dil
	orb	%r10b, %dil
	cmpb	$1, %dil
	jne	.LBB16_14
# %bb.5:
	cmpq	%rsi, %rax
	sete	%al
	cmpq	%rdx, %r8
	sete	%sil
	orb	%al, %sil
	jne	.LBB16_10
# %bb.6:
	testq	%r9, %r9
	je	.LBB16_10
# %bb.7:
	leaq	(%r14,%r8), %rdi
	addq	%r14, %rdx
	cmpq	$1, %r9
	jne	.LBB16_9
# %bb.8:
	movzbl	(%rdx), %eax
	movb	%al, (%rdi)
.LBB16_10:                              # %_ZNSt7__cxx1112basic_stringIcSt11char_traitsIcESaIcEE7_S_moveEPcPKcm.exit
	testq	%r8, %r8
	je	.LBB16_16
.LBB16_11:                              # %_ZNSt7__cxx1112basic_stringIcSt11char_traitsIcESaIcEE7_S_moveEPcPKcm.exit
	cmpq	$1, %r8
	jne	.LBB16_13
# %bb.12:
	movzbl	(%rcx), %eax
	movb	%al, (%r14)
	jmp	.LBB16_16
.LBB16_13:
	movq	%r14, %rdi
	movq	%rcx, %rsi
	movq	%r8, %rdx
	callq	memcpy@PLT
.LBB16_16:                              # %_ZNSt7__cxx1112basic_stringIcSt11char_traitsIcESaIcEE7_S_copyEPcPKcm.exit
	movq	%r15, 8(%rbx)
	movq	(%rbx), %rax
	movb	$0, (%rax,%r15)
	movq	%rbx, %rax
	popq	%rbx
	.cfi_def_cfa_offset 40
	popq	%r12
	.cfi_def_cfa_offset 32
	popq	%r13
	.cfi_def_cfa_offset 24
	popq	%r14
	.cfi_def_cfa_offset 16
	popq	%r15
	.cfi_def_cfa_offset 8
	retq
.LBB16_9:
	.cfi_def_cfa_offset 48
	movq	%rdx, %rsi
	movq	%r9, %rdx
	movq	%r8, %r12
	movq	%rcx, %r13
	callq	memmove@PLT
	movq	%r13, %rcx
	movq	%r12, %r8
	testq	%r8, %r8
	jne	.LBB16_11
	jmp	.LBB16_16
.LBB16_14:
	movq	%rbx, %rdi
	movq	%r14, %rsi
	callq	_ZNSt7__cxx1112basic_stringIcSt11char_traitsIcESaIcEE15_M_replace_coldEPcmPKcmm@PLT
	jmp	.LBB16_16
.LBB16_17:
	leaq	.L.str.9(%rip), %rdi
	callq	_ZSt20__throw_length_errorPKc@PLT
.Lfunc_end16:
	.size	_ZNSt7__cxx1112basic_stringIcSt11char_traitsIcESaIcEE10_M_replaceEmmPKcm, .Lfunc_end16-_ZNSt7__cxx1112basic_stringIcSt11char_traitsIcESaIcEE10_M_replaceEmmPKcm
	.cfi_endproc
                                        # -- End function
	.section	.text._ZNSt7__cxx1112basic_stringIcSt11char_traitsIcESaIcEE9_M_mutateEmmPKcm,"axG",@progbits,_ZNSt7__cxx1112basic_stringIcSt11char_traitsIcESaIcEE9_M_mutateEmmPKcm,comdat
	.weak	_ZNSt7__cxx1112basic_stringIcSt11char_traitsIcESaIcEE9_M_mutateEmmPKcm # -- Begin function _ZNSt7__cxx1112basic_stringIcSt11char_traitsIcESaIcEE9_M_mutateEmmPKcm
	.p2align	4, 0x90
	.type	_ZNSt7__cxx1112basic_stringIcSt11char_traitsIcESaIcEE9_M_mutateEmmPKcm,@function
_ZNSt7__cxx1112basic_stringIcSt11char_traitsIcESaIcEE9_M_mutateEmmPKcm: # @_ZNSt7__cxx1112basic_stringIcSt11char_traitsIcESaIcEE9_M_mutateEmmPKcm
	.cfi_startproc
# %bb.0:                                # %_ZNKSt7__cxx1112basic_stringIcSt11char_traitsIcESaIcEE8capacityEv.exit
	pushq	%rbp
	.cfi_def_cfa_offset 16
	pushq	%r15
	.cfi_def_cfa_offset 24
	pushq	%r14
	.cfi_def_cfa_offset 32
	pushq	%r13
	.cfi_def_cfa_offset 40
	pushq	%r12
	.cfi_def_cfa_offset 48
	pushq	%rbx
	.cfi_def_cfa_offset 56
	subq	$56, %rsp
	.cfi_def_cfa_offset 112
	.cfi_offset %rbx, -56
	.cfi_offset %r12, -48
	.cfi_offset %r13, -40
	.cfi_offset %r14, -32
	.cfi_offset %r15, -24
	.cfi_offset %rbp, -16
	movq	%rcx, 16(%rsp)                  # 8-byte Spill
	movq	(%rdi), %r15
	movq	8(%rdi), %r13
	movq	%r8, %rbp
	movq	%rdx, 32(%rsp)                  # 8-byte Spill
	subq	%rdx, %rbp
	leaq	16(%rdi), %rdx
	cmpq	%rdx, %r15
	movq	16(%rdi), %rcx
	movl	$15, %eax
	cmovneq	%rcx, %rax
	addq	%r13, %rbp
	js	.LBB17_21
# %bb.1:
	movq	%r8, %r14
	movq	%rsi, %r12
	movq	%rdi, %rbx
	cmpq	%rax, %rbp
	movq	%rcx, 40(%rsp)                  # 8-byte Spill
	movq	%rdx, 48(%rsp)                  # 8-byte Spill
	jbe	.LBB17_4
# %bb.2:
	addq	%rax, %rax
	cmpq	%rax, %rbp
	jae	.LBB17_4
# %bb.3:
	movabsq	$9223372036854775807, %rbp      # imm = 0x7FFFFFFFFFFFFFFF
	cmpq	%rbp, %rax
	cmovbq	%rax, %rbp
.LBB17_4:
	movq	%rbp, %rdi
	incq	%rdi
	js	.LBB17_22
# %bb.5:                                # %_ZNSt7__cxx1112basic_stringIcSt11char_traitsIcESaIcEE9_M_createERmm.exit
	callq	_Znwm@PLT
	movq	%rax, %rdx
	testq	%r12, %r12
	movq	%rax, 8(%rsp)                   # 8-byte Spill
	je	.LBB17_9
# %bb.6:                                # %_ZNSt7__cxx1112basic_stringIcSt11char_traitsIcESaIcEE9_M_createERmm.exit
	cmpq	$1, %r12
	jne	.LBB17_8
# %bb.7:
	movzbl	(%r15), %eax
	movb	%al, (%rdx)
	jmp	.LBB17_9
.LBB17_8:
	movq	%rdx, %rdi
	movq	%r15, %rsi
	movq	%r12, %rdx
	callq	memcpy@PLT
	movq	8(%rsp), %rdx                   # 8-byte Reload
.LBB17_9:                               # %_ZNSt7__cxx1112basic_stringIcSt11char_traitsIcESaIcEE7_S_copyEPcPKcm.exit
